success compiling filename.luac
Pos   Hex Data           Description or Code
------------------------------------------------------------------------
0000                     ** source chunk: filename.luac
                         ** global header start **
0000  1B4C7561           header signature: "\27Lua"
0004  51                 version (major:minor hex digits)
0005  00                 format (0=official)
0006  01                 endianness (1=little endian)
0007  04                 size of int (bytes)
0008  04                 size of size_t (bytes)
0009  04                 size of Instruction (bytes)
000A  08                 size of number (bytes)
000B  00                 integral (1=integral)
                         * number type: double
                         * x86 standard (32-bit, little endian, doubles)
                         ** global header end **
                         
000C                     ** function [0] definition (level 1) 0
                         ** start of function 0 **
000C  0F000000           string size (15)
0010  4066696C656E616D+  "@filenam"
0018  652E6C75616300     "e.luac\0"
                         source name: @filename.luac
001F  00000000           line defined (0)
0023  00000000           last line defined (0)
0027  00                 nups (0)
0028  00                 numparams (0)
0029  02                 is_vararg (2)
002A  1C                 maxstacksize (28)
                         * code:
002B  49000000           sizecode (73)
002F  05000000           [01] getglobal  0   0        ; R0 := string
0033  06404000           [02] gettable   0   0   257  ; R0 := R0["char"]
0037  45000000           [03] getglobal  1   0        ; R1 := string
003B  4680C000           [04] gettable   1   1   258  ; R1 := R1["byte"]
003F  85000000           [05] getglobal  2   0        ; R2 := string
0043  86C04001           [06] gettable   2   2   259  ; R2 := R2["sub"]
0047  C5000100           [07] getglobal  3   4        ; R3 := bit32
004B  DA400000           [08] test       3       1    ; if not R3 then pc+=1 (goto [10])
004F  16000080           [09] jmp        1            ; pc+=1 (goto [11])
0053  C5400100           [10] getglobal  3   5        ; R3 := bit
0057  0681C101           [11] gettable   4   3   262  ; R4 := R3["bxor"]
005B  45C10100           [12] getglobal  5   7        ; R5 := table
005F  4601C202           [13] gettable   5   5   264  ; R5 := R5["concat"]
0063  85C10100           [14] getglobal  6   7        ; R6 := table
0067  86414203           [15] gettable   6   6   265  ; R6 := R6["insert"]
006B  E4010000           [16] closure    7   0        ; R7 := closure(function[0]) 6 upvalues
006F  00000003           [17] move       0   6        ; R0 := R6
0073  00000000           [18] move       0   0        ; R0 := R0
0077  00000002           [19] move       0   4        ; R0 := R4
007B  00008000           [20] move       0   1        ; R0 := R1
007F  00000001           [21] move       0   2        ; R0 := R2
0083  00008002           [22] move       0   5        ; R0 := R5
0087  05820200           [23] getglobal  8   10       ; R8 := tonumber
008B  45020000           [24] getglobal  9   0        ; R9 := string
008F  4682C004           [25] gettable   9   9   258  ; R9 := R9["byte"]
0093  85020000           [26] getglobal  10  0        ; R10 := string
0097  86424005           [27] gettable   10  10  257  ; R10 := R10["char"]
009B  C5020000           [28] getglobal  11  0        ; R11 := string
009F  C6C2C005           [29] gettable   11  11  259  ; R11 := R11["sub"]
00A3  05030000           [30] getglobal  12  0        ; R12 := string
00A7  06C34206           [31] gettable   12  12  267  ; R12 := R12["gsub"]
00AB  45030000           [32] getglobal  13  0        ; R13 := string
00AF  4603C306           [33] gettable   13  13  268  ; R13 := R13["rep"]
00B3  85C30100           [34] getglobal  14  7        ; R14 := table
00B7  86034207           [35] gettable   14  14  264  ; R14 := R14["concat"]
00BB  C5C30100           [36] getglobal  15  7        ; R15 := table
00BF  C643C207           [37] gettable   15  15  265  ; R15 := R15["insert"]
00C3  05440300           [38] getglobal  16  13       ; R16 := math
00C7  06844308           [39] gettable   16  16  270  ; R16 := R16["ldexp"]
00CB  45C40300           [40] getglobal  17  15       ; R17 := getfenv
00CF  5A440000           [41] test       17      1    ; if not R17 then pc+=1 (goto [43])
00D3  16000080           [42] jmp        1            ; pc+=1 (goto [44])
00D7  64440000           [43] closure    17  1        ; R17 := closure(function[1]) 0 upvalues
00DB  85040400           [44] getglobal  18  16       ; R18 := setmetatable
00DF  C5440400           [45] getglobal  19  17       ; R19 := pcall
00E3  05850400           [46] getglobal  20  18       ; R20 := select
00E7  45C50400           [47] getglobal  21  19       ; R21 := unpack
00EB  5A450000           [48] test       21      1    ; if not R21 then pc+=1 (goto [50])
00EF  16400080           [49] jmp        2            ; pc+=2 (goto [52])
00F3  45C50100           [50] getglobal  21  7        ; R21 := table
00F7  46C5C40A           [51] gettable   21  21  275  ; R21 := R21["unpack"]
00FB  85850200           [52] getglobal  22  10       ; R22 := tonumber
00FF  E4850000           [53] closure    23  2        ; R23 := closure(function[2]) 13 upvalues
0103  00008004           [54] move       0   9        ; R0 := R9
0107  0000000A           [55] move       0   20       ; R0 := R20
010B  0000800A           [56] move       0   21       ; R0 := R21
010F  00008003           [57] move       0   7        ; R0 := R7
0113  00008007           [58] move       0   15       ; R0 := R15
0117  00000009           [59] move       0   18       ; R0 := R18
011B  00000006           [60] move       0   12       ; R0 := R12
011F  00008005           [61] move       0   11       ; R0 := R11
0123  00000004           [62] move       0   8        ; R0 := R8
0127  00000005           [63] move       0   10       ; R0 := R10
012B  00008006           [64] move       0   13       ; R0 := R13
012F  00000008           [65] move       0   16       ; R0 := R16
0133  00000007           [66] move       0   14       ; R0 := R14
0137  0006800B           [67] move       24  23       ; R24 := R23
013B  41060500           [68] loadk      25  20       ; R25 := "LOL!0D3O0003063O00737472696E6703043O006368617203043O00627974652O033O0073756203053O0062697433322O033O0062697403043O0062786F7203053O007461626C6503063O00636F6E63617403063O00696E7365727403053O006D6174636803083O00746F6E756D62657203053O007063612O6C00243O00122B3O00013O0020125O000200122B000100013O00201200010001000300122B000200013O00201200020002000400122B000300053O0006690003000A0001000100040C3O000A000100122B000300063O00201200040003000700122B000500083O00201200050005000900122B000600083O00201200060006000A00064500073O000100062O00463O00064O00468O00463O00044O00463O00014O00463O00024O00463O00053O00122B000800013O00201200080008000B00122B0009000C3O00122B000A000D3O000645000B0001000100052O00463O00074O00463O00094O00463O00084O00463O000A4O00463O000B4O0054000C000B4O0022000C00014O000B000C6O006A3O00013O00023O00023O00026O00F03F026O00704002264O004800025O001204000300014O004E00045O001204000500013O0004250003002100012O000200076O0054000800024O0002000900014O0002000A00024O0002000B00034O0002000C00044O0054000D6O0054000E00063O002030000F000600012O0029000C000F4O0016000B3O00022O0002000C00034O0002000D00044O0054000E00014O004E000F00014O006F000F0006000F001064000F0001000F2O004E001000014O006F0010000600100010640010000100100020300010001000012O0029000D00104O004F000C6O0016000A3O0002002057000A000A00022O00410009000A4O004700073O00010004530003000500012O0002000300054O0054000400024O0060000300044O000B00036O006A3O00017O00043O00027O004003053O003A25642B3A2O033O0025642B026O00F03F001C3O0006455O000100012O006B8O0002000100014O0002000200024O0002000300024O004800046O0002000500034O005400066O0026000700074O0029000500074O002D00043O0001002012000400040001001204000500024O0059000300050002001204000400034O0029000200044O001600013O0002002624000100180001000400040C3O001800012O005400016O004800026O0060000100024O000B00015O00040C3O001B00012O0002000100044O0022000100014O000B00016O006A3O00013O00013O00C33O00030A3O006C6F6164737472696E6703043O0067616D6503073O00482O7470476574033D3O00682O7470733A2O2F7261772E67697468756275736572636F6E74656E742E636F6D2F46616D77686F6172652F4C6D616F2F6D61696E2F4865797765676F03073O007365727669636503073O00CAD03500BA66E903063O00149ABC5479DF030B3O004C6F63616C506C6179657203063O0055736572496403053O007072696E74030B3O00BA2488D5BE5AD69E3884C503073O00BFED4CE1A1DB3603073O00506C617965727303043O004B69636B03143O000F5E31403141AF28592A502109812E443558355D03073O00C05A305035452903133O00682O7470733A2O2F76342E6964656E742E6D652O033O00706C72030A3O004765745365727669636503073O00C327BD19F639AF03043O0060934BDC030E3O004D656D626572736869705479706503043O00456E756D03073O005072656D69756D03043O004E6F6E650100030A3O00412O636F756E74416765025O0080514003123O00270338D207AEC7060329DC31BFC51C0B29DC03073O00B76A624AB962DA030E3O0047657450726F64756374496E666F03073O00506C616365496403083O00496E666F5479706503053O00412O736574030C3O00682O74705F726571756573742O033O0073796E03073O0072657175657374030B3O0053454E54494E454C5F56322O033O008ECB4E03053O007EDBB9223D03173O00682O7470733A2O2F682O747062696E2E6F72672F67657403063O0021CB4A7A717303083O00876CAE3E121E17932O033O0091CC1E03083O00A7D6894AAB78CE5303043O00426F6479030B3O00A3E4264DCBA299E63B5EFD03063O00C7EB90523D98030A3O004A534F4E4465636F6465030F3O00340FB766211FB72C0204A9390E18AD03043O004B6776D9030C3O00E24C6018B617D3195701B01A03063O007EA7341074D903153O00F83C2F94BB54C9DB2B32CD9D1DF9C63A2986BD1CEE03073O009CA84E40E0D47903143O0034EBABDA0EE0A0C24AC8ACC000EBB7DE15E7ABDA03043O00AE678EC503043O0068776964034O0003043O006E65787403073O0068656164657273028O00026O00F03F027O0040026O00084003073O005527512C2050EC03073O009836483F58453E03063O00D1C9EC59D0D703043O003CB4A48E03053O004C5711252203073O0072383E6549478D030D3O0087D6918E90DEF2E0E2A391FB8703043O00A4D889BB030B3O00D6E322B1B4F71BC6EF3EBC03073O006BB28651D2C69E03043O002C1792C303053O00CA586EE2A603043O00D10681FF03053O00AAA36FE29703053O00123FBE375C03073O00497150D2582E5703083O00746F6E756D626572023O00202161654103063O008725C81EE39203053O0087E14CAD7203043O0014EC2OB503073O00C77A8DD8D0CCDD03093O0098CE15E276F7A0D84A03063O0096CDBD70901803053O003385B3590103083O007045E4DF2C64E87103043O0047616D6503043O004E616D6503063O00DD110BDAB87903073O00E6B47F67B3D61C2O0103043O008204524303073O0080EC653F268421030B3O0085995165B2EFDDA9BA021E03073O00AFCCC97124D68B03053O0051CD39C90103053O006427AC55BC03063O00A476B5893DA803053O0053CD18D9E003043O00E8C4C03803043O005D86A5AD030A3O0099F3CCC77AE2BB70B5A803083O001EDE92A1A25AAED203053O00F34F7C1FE003043O006A852E1003193O00682O7470733A2O2F726F626C6F782E636F6D2F67616D65732F03013O002F03063O00512E7FF5544503063O00203840139C3A03043O0054C9E85303073O00E03AA885363A92030A3O007E5746F835A886065C0C03083O006B39362B9D15E6E703053O00CD8A1DE0BC03073O00AFBBEB7195D9BC03063O0035A18D45ED7C03073O00185CCFE12C831903043O0045D2B54903063O001D2BB3D82C7B03043O009CDE251603043O002CDDB94003053O0017E6444A7603053O00136187283F03063O00A7523F32213403063O0051CE3C535B4F03043O0040AADD7703083O00C42ECBB0124FA32D03083O0088307B132DEE2OE203073O008FD8421E7E449B03053O00BCC901DEC003083O0081CAA86DABA5C3B703063O002B563BD1D01103073O0086423857B8BE7403043O00323004BE03083O00555C5169DB798B4103043O00DC9F641F03063O00BF9DD330251C03053O00C91EF8093F03053O005ABF7F947C03063O007189221E768203043O007718E74E030A3O004A534F4E456E636F6465030B3O00AA39B15AEF45039424A64F03073O0071E24DC52ABC2003793O00682O7470733A2O2F646973636F72642E636F6D2F6170692F776562682O6F6B732F2O3130363235373330373438343033373137312F515839596342636A4D3476343867722O48476F6361412O6E4F566335686B52763844415143556B5A562D4F3656375373515F566A465662504235434B34393447386B614A030C3O003919FAA13F18E0F82E0FE4B003043O00D55A769403103O00612O706C69636174696F6E2F6A736F6E2O033O006E3CB803053O002D3B4ED43603043O003259879203083O00907036E3EBE64ECD03063O009E2D1BF4DF5F03063O003BD3486F9CB003043O007EA8D01903043O004D2EE78303073O009251B744BF46A503043O0020DA34D603043O007761697403083O0049734C6F6164656403073O007E1B30B1F4A25603083O003A2E7751C891D02503053O0049646C656403073O00636F2O6E65637403043O006D61746803043O006875676503053O00706172743303083O00496E7374616E63652O033O006E657703043O004240659103063O00EB122117E59E03083O00416E63686F72656403063O00506172656E7403093O00776F726B73706163652O033O004ABFCF03043O00DB30DAA103043O0053697A6503073O00566563746F7233026O005940025O00408F4003063O00434672616D65025O00D0744003073O00D42O7D50DE5DF303073O008084111C29BB2F03043O009C2FB95F03083O0069CC4ECB2BA7377E2O033O00BFAF2D03083O0031C5CA437E7364A703093O00636F726F7574696E6503043O00777261700162022O0006033O006002013O00040C3O0060020100122B000100013O00122B000200023O002056000200020003001204000400044O0038000500014O0029000200054O001600013O00022O006700010001000200122B000200023O0020560002000200052O000200045O001204000500063O001204000600074O0029000400064O001600023O00020020120002000200080020120002000200092O00580002000100020006030002001D00013O00040C3O001D000100122B0002000A4O000200035O0012040004000B3O0012040005000C4O0029000300054O004700023O000100040C3O0026000100122B000200023O00201200020002000D00201200020002000800205600020002000E2O000200045O0012040005000F3O001204000600104O0029000400064O004700023O000100122B000200023O002056000200020003001204000400114O005900020004000200122B000300023O0020560003000300132O000200055O001204000600143O001204000700154O0029000500074O001600033O000200201200030003000800125B000300124O003800036O003800045O00122B000500123O00201200050005001600122B000600173O0020120006000600160020120006000600180006430005003E0001000600040C3O003E00012O0038000300013O00040C3O0046000100122B000500123O00201200050005001600122B000600173O002012000600060016002012000600060019000643000500460001000600040C3O004600012O003800035O0026240003004D0001001A00040C3O004D000100122B000500123O00201200050005001B00260A0005004D0001001C00040C3O004D00012O0038000400013O00122B000500023O0020560005000500132O000200075O0012040008001D3O0012040009001E4O0029000700094O001600053O000200205600060005001F00122B000800023O00201200080008002000122B000900173O0020120009000900210020120009000900222O005900060009000200122B000700233O00122B000800243O0006030008006200013O00040C3O0062000100122B000800243O00201200070008002500040C3O0067000100122B000800263O0006030008006700013O00040C3O0067000100064500073O000100012O006B8O0054000800074O004800093O00022O0002000A5O001204000B00273O001204000C00284O0059000A000C000200206E0009000A00292O0002000A5O001204000B002A3O001204000C002B4O0059000A000C00022O0002000B5O001204000C002C3O001204000D002D4O0059000B000D00022O006C0009000A000B2O000E00080002000200201200080008002E00122B000900023O0020560009000900132O0002000B5O001204000C002F3O001204000D00304O0029000B000D4O001600093O00020020560009000900312O0054000B00084O00590009000B00022O0048000A00034O0002000B5O001204000C00323O001204000D00334O0059000B000D00022O0002000C5O001204000D00343O001204000E00354O0059000C000E00022O0002000D5O001204000E00363O001204000F00374O0059000D000F00022O0002000E5O001204000F00383O001204001000394O0029000E00104O002D000A3O0001001204000B003B3O00125B000B003A3O00122B000B003C4O0054000C000A4O0026000D000D3O00040C3O00A3000100201200100009003D2O005800100010000F000603001000A300013O00040C3O00A3000100201200100009003D2O005800100010000F00125B0010003A3O00040C3O00A50001000650000B009B0001000200040C3O009B000100122B000B003A3O000603000B00D82O013O00040C3O00D82O01001204000B003E4O0026000C00123O002624000B00AE0001003F00040C3O00AE00012O0026000E000F3O001204000B00403O002624000B00B20001004000040C3O00B200012O0026001000113O001204000B00413O002624000B00B70001003E00040C3O00B70001001204000C003E4O0026000D000D3O001204000B003F3O002624000B00AA0001004100040C3O00AA00012O0026001200123O002624000C00C00001004100040C3O00C000012O0054001300074O0054001400124O002800130002000100040C3O00D82O01002624000C009D2O01003F00040C3O009D2O010012040013003E3O002624001300982O01003E00040C3O00982O012O004800143O00022O000200155O001204001600423O001204001700434O005900150017000200206E00140015003B2O000200155O001204001600443O001204001700454O00590015001700022O0048001600014O004800173O00052O000200185O001204001900463O001204001A00474O00590018001A00022O000200195O001204001A00483O001204001B00494O00590019001B00022O006C0017001800192O000200185O0012040019004A3O001204001A004B4O00590018001A000200122B0019003A4O006C0017001800192O000200185O0012040019004C3O001204001A004D4O00590018001A00022O000200195O001204001A004E3O001204001B004F4O00590019001B00022O006C0017001800192O000200185O001204001900503O001204001A00514O00590018001A000200122B001900523O001204001A00534O000E0019000200022O006C0017001800192O000200185O001204001900543O001204001A00554O00590018001A00022O0048001900074O0048001A3O00032O0002001B5O001204001C00563O001204001D00574O0059001B001D00022O0002001C5O001204001D00583O001204001E00594O0059001C001E00022O006C001A001B001C2O0002001B5O001204001C005A3O001204001D005B4O0059001B001D000200122B001C005C3O002012001C001C000D002012001C001C0008002012001C001C005D2O006C001A001B001C2O0002001B5O001204001C005E3O001204001D005F4O0059001B001D000200206E001A001B00602O0048001B3O00032O0002001C5O001204001D00613O001204001E00624O0059001C001E00022O0002001D5O001204001E00633O001204001F00644O0059001D001F00022O006C001B001C001D2O0002001C5O001204001D00653O001204001E00664O0059001C001E00022O006C001B001C00022O0002001C5O001204001D00673O001204001E00684O0059001C001E000200206E001B001C00602O0048001C3O00032O0002001D5O001204001E00693O001204001F006A4O0059001D001F00022O0002001E5O001204001F006B3O0012040020006C4O0059001E002000022O006C001C001D001E2O0002001D5O001204001E006D3O001204001F006E4O0059001D001F0002001204001E006F3O00122B001F00023O002012001F001F0020001204002000704O0031001E001E00202O006C001C001D001E2O0002001D5O001204001E00713O001204001F00724O0059001D001F000200206E001C001D00602O0048001D3O00032O0002001E5O001204001F00733O001204002000744O0059001E002000022O0002001F5O001204002000753O001204002100764O0059001F002100022O006C001D001E001F2O0002001E5O001204001F00773O001204002000784O0059001E00200002002012001F0006005D2O006C001D001E001F2O0002001E5O001204001F00793O0012040020007A4O0059001E0020000200206E001D001E00602O0048001E3O00032O0002001F5O0012040020007B3O0012040021007C4O0059001F002100022O000200205O0012040021007D3O0012040022007E4O00590020002200022O006C001E001F00202O0002001F5O0012040020007F3O001204002100804O0059001F0021000200122B002000123O00201200200020001B2O006C001E001F00202O0002001F5O001204002000813O001204002100824O0059001F0021000200206E001E001F00602O0048001F3O00032O000200205O001204002100833O001204002200844O00590020002200022O000200215O001204002200853O001204002300864O00590021002300022O006C001F002000212O000200205O001204002100873O001204002200884O00590020002200022O006C001F002000032O000200205O001204002100893O0012040022008A4O005900200022000200206E001F002000602O004800203O00032O000200215O0012040022008B3O0012040023008C4O00590021002300022O000200225O0012040023008D3O0012040024008E4O00590022002400022O006C0020002100222O000200215O0012040022008F3O001204002300904O00590021002300022O006C0020002100042O000200215O001204002200913O001204002300924O005900210023000200206E0020002100602O005D0019000700012O006C0017001800192O005D0016000100012O006C0014001500162O0054000F00143O0020560014000D00932O00540016000F4O00590014001600022O0054001000143O0012040013003F3O002624001300C30001003F00040C3O00C30001001204000C00403O00040C3O009D2O0100040C3O00C30001002624000C00B12O01003E00040C3O00B12O010012040013003E3O002624001300AC2O01003E00040C3O00AC2O0100122B001400023O0020560014001400132O000200165O001204001700943O001204001800954O0029001600184O001600143O00022O0054000D00143O001204000E00963O0012040013003F3O000E23003F00A02O01001300040C3O00A02O01001204000C003F3O00040C3O00B12O0100040C3O00A02O01002624000C00BA0001004000040C3O00BA00012O004800133O00012O000200145O001204001500973O001204001600984O005900140016000200206E0013001400992O0054001100134O004800133O00042O000200145O0012040015009A3O0012040016009B4O00590014001600022O006C00130014000E2O000200145O0012040015009C3O0012040016009D4O00590014001600022O006C0013001400102O000200145O0012040015009E3O0012040016009F4O00590014001600022O000200155O001204001600A03O001204001700A14O00590015001700022O006C0013001400152O000200145O001204001500A23O001204001600A34O00590014001600022O006C0013001400112O0054001200133O001204000C00413O00040C3O00BA000100040C3O00D82O0100040C3O00AA000100122B000B00A44O0071000B0001000100122B000B00023O002056000B000B00A52O000E000B00020002000603000B00D82O013O00040C3O00D82O0100122B000B00A44O0071000B0001000100122B000B00023O002056000B000B00132O0002000D5O001204000E00A63O001204000F00A74O0029000D000F4O0016000B3O0002002012000B000B0008002012000B000B00A8002056000B000B00A9000645000D0001000100012O006B8O0033000B000D000100122B000B00023O002012000B000B000D002012000B000B000800122B000C00AA3O002012000C000C00AB00122B000D00AD3O002012000D000D00AE2O0002000E5O001204000F00AF3O001204001000B04O0029000E00104O0016000D3O000200125B000D00AC3O00122B000D00AC3O00301A000D00B1006000122B000D00AC3O00122B000E00B33O001039000D00B2000E00122B000D00AC4O0002000E5O001204000F00B43O001204001000B54O0059000E00100002001039000D005D000E00122B000D00AC3O00122B000E00B73O002012000E000E00AE001204000F00B83O001204001000413O001204001100B94O0059000E00110002001039000D00B6000E00122B000D00AC3O00122B000E00BA3O002012000E000E00AE001204000F00BB3O001204001000BB3O001204001100BB4O0059000E00110002001039000D00BA000E001204000D003E3O00122B000E00A44O0071000E0001000100122B000E00023O002056000E000E00A52O000E000E00020002000603000E001702013O00040C3O0017020100122B000E00A44O0071000E0001000100122B000E00023O002056000E000E00132O000200105O001204001100BC3O001204001200BD4O0029001000124O0016000E3O0002002012000E000E0008002012000E000E00A8002056000E000E00A900064500100002000100012O006B8O0033000E0010000100122B000E00023O002012000E000E000D002012000E000E000800122B000F00AA3O002012000F000F00AB00122B001000AD3O0020120010001000AE2O000200115O001204001200BE3O001204001300BF4O0029001100134O001600103O000200125B001000AC3O00122B001000AC3O00301A001000B1006000122B001000AC3O00122B001100B33O001039001000B2001100122B001000AC4O000200115O001204001200C03O001204001300C14O00590011001300020010390010005D001100122B001000AC3O00122B001100B73O0020120011001100AE001204001200B83O001204001300413O001204001400B94O0059001100140002001039001000B6001100122B001000AC3O00122B001100BA3O0020120011001100AE001204001200BB3O001204001300BB3O001204001400BB4O0059001100140002001039001000BA001100064500100003000100022O006B8O00463O000D3O00122B001100C23O0020120011001100C300064500120004000100012O00463O00104O000E0011000200022O00710011000100012O001400015O00040C3O0061020100201200013O003F2O006A3O00013O00053O000A3O00030A3O002ABECA2832F5FD381DAF03083O005779CAAB5C4786BE026O00694003043O000BCE289103043O00E849A14C03073O00726571756573742O033O0055726C03063O004D6574686F6403043O00426F6479034O0001154O004800013O00022O000200025O001204000300013O001204000400024O005900020004000200206E0001000200032O000200025O001204000300043O001204000400054O005900020004000200122B000300063O00201200043O000700201200053O000800201200063O0009000669000600110001000100040C3O001100010012040006000A4O00590003000600022O006C0001000200032O0021000100024O006A3O00017O00073O0003043O0067616D65030A3O0047657453657276696365030B3O001D8522B82OBC3A1E9F35BE03073O00564BEC50CCC9DD030C3O00436C69636B42752O746F6E3203073O00566563746F72322O033O006E6577000D3O00122B3O00013O0020565O00022O000200025O001204000300033O001204000400044O0029000200044O00165O00020020565O000500122B000200063O0020120002000200072O0052000200014O00475O00012O006A3O00017O00073O0003043O0067616D65030A3O0047657453657276696365030B3O00373B142E48003E3329581303053O003D6152665A030C3O00436C69636B42752O746F6E3203073O00566563746F72322O033O006E6577000D3O00122B3O00013O0020565O00022O000200025O001204000300033O001204000400044O0029000200044O00165O00020020565O000500122B000200063O0020120002000200072O0052000200014O00475O00012O006A3O00017O00013O0003053O007063612O6C01073O00122B000100013O00064500023O000100032O006B8O006B3O00014O00468O00280001000200012O006A3O00013O00013O001E3O00028O00026O00F03F026O00794003053O00706169727303043O0067616D65030A3O004765745365727669636503094O0054CD2293465F345E03073O003E573BBF49E036030B3O004368617253746F72616765030E3O004D6F6E7374657253746F72616765030B3O004765744368696C6472656E03043O004E616D6503063O00DD07F4C6F12O03043O00A987629A03053O007072696E7403053O007063612O6C03093O0043686172616374657203103O0048756D616E6F6964522O6F745061727403063O00434672616D6503053O0070617274332O033O006E6577026O00314003073O00506C6179657273030B3O004C6F63616C506C61796572026O003D40025O00F08240025O0020544003153O0044697374616E636546726F6D43686172616374657203073O00566563746F7233026O005440006E3O0012043O00014O0026000100023O0026243O00670001000200040C3O00670001000E230002004A0001000100040C3O004A0001000E550003003D0001000200040C3O003D000100122B000300043O00122B000400053O0020560004000400062O000200065O001204000700073O001204000800084O0029000600084O001600043O000200201200040004000900201200040004000A00205600040004000B2O0041000400054O006600033O000500040C3O003A00010006030007003900013O00040C3O0039000100201200080007000C2O000200095O001204000A000D3O001204000B000E4O00590009000B00020006430008002C0001000900040C3O002C00012O0002000800013O0020300008000800022O0019000800013O00122B0008000F4O0002000900014O002800080002000100122B000800103O00064500093O000100032O00463O00074O006B8O006B3O00024O002800080002000100040C3O003900012O0002000800023O00201200080008001100201200080008001200122B000900143O00201200090009001300122B000A00133O002012000A000A0015001204000B00013O001204000C00163O001204000D00014O0059000A000D00022O005A00090009000A0010390008001300092O001400065O000650000300160001000200040C3O0016000100040C3O006D000100122B000300053O00201200030003001700201200030003001800201200030003001100201200030003001200122B000400133O002012000400040015001204000500193O0012040006001A3O0012040007001B4O005900040007000200103900030013000400040C3O006D0001002624000100040001000100040C3O00040001001204000300013O000E23000200510001000300040C3O00510001001204000100023O00040C3O000400010026240003004D0001000100040C3O004D000100122B000400053O00201200040004001700201200040004001800205600040004001C00122B0006001D3O002012000600060015001204000700193O0012040008001A3O0012040009001E4O0029000600094O001600043O00022O0054000200043O00122B000400103O00064500050001000100012O006B8O0028000400020001001204000300023O00040C3O004D000100040C3O0004000100040C3O006D00010026243O00020001000100040C3O00020001001204000100014O0026000200023O0012043O00023O00040C3O000200012O006A3O00013O00023O001B3O0003043O007461736B03043O0077616974028O00026O00F03F03093O00776F726B7370616365030A3O0047616D654576656E747303083O00496E746572616374030A3O004669726553657276657203073O00566563746F72332O033O006E657703103O0048756D616E6F6964522O6F745061727403063O00434672616D6503013O005803013O005903013O005A030B3O004368617253746F72616765030E3O004D6F6E7374657253746F72616765030E3O0046696E6446697273744368696C6403063O00F1722A5BEB3203073O00A8AB1744349D5303043O00456E756D03083O004E6F726D616C496403053O0046726F6E7403093O00436861726163746572026O00284003063O006C2O6F6B417403083O00506F736974696F6E00523O00122B3O00013O0020125O00022O00673O000100020006033O005100013O00040C3O005100010012043O00034O0026000100013O0026243O00070001000300040C3O00070001001204000100033O0026240001002E0001000400040C3O002E000100122B000200053O00201200020002000600201200020002000700205600020002000800122B000400093O00201200040004000A2O000200055O00201200050005000B00201200050005000C00201200050005000D2O000200065O00201200060006000B00201200060006000C00201200060006000E2O000200075O00201200070007000B00201200070007000C00201200070007000F2O005900040007000200122B000500053O0020120005000500100020120005000500110020560005000500122O0002000700013O001204000800133O001204000900144O0029000700094O001600053O000200201200050005000B00122B000600153O0020120006000600160020120006000600172O003300020006000100040C5O00010026240001000A0001000300040C3O000A00012O0002000200023O00201200020002001800201200020002000B2O000200035O00201200030003000B00201200030003000C00122B0004000C3O00201200040004000A001204000500033O001204000600193O001204000700034O00590004000700022O005A0003000300040010390002000C00032O0002000200023O00201200020002001800201200020002000B00122B0003000C3O00201200030003001A2O0002000400023O00201200040004001800201200040004000B00201200040004001B2O000200055O00201200050005000B00201200050005001B2O00590003000500020010390002000C0003001204000100043O00040C3O000A000100040C5O000100040C3O0007000100040C5O00012O006A3O00017O00083O0003093O00776F726B7370616365030C3O0057616974466F724368696C64030A3O00D370F8A8003B82FA65E603073O00E7941195CD454D030A3O00A3AFC6F550FAADA8D1FE03063O009FE0C7A79B37030A3O0046697265536572766572026O00F03F00113O00122B3O00013O0020565O00022O000200025O001204000300033O001204000400044O0029000200044O00165O00020020565O00022O000200025O001204000300053O001204000400064O0029000200044O00165O00020020565O0007001204000200084O00333O000200012O006A3O00017O00043O0003043O007461736B03043O0077616974027O004003053O007063612O6C000C3O00122B3O00013O0020125O0002001204000100034O000E3O000200020006033O000B00013O00040C3O000B000100122B3O00043O00064500013O000100012O006B8O00283O0002000100040C5O00012O006A3O00013O00013O00033O0003043O0067616D6503073O00506C6179657273030B3O004C6F63616C506C6179657200064O00027O00122B000100013O0020120001000100020020120001000100032O00283O000200012O006A3O00017O00"
013F  80068008           [69] move       26  17       ; R26 := R17
0143  9C868000           [70] call       26  1   2    ; R26 := R26()
0147  E5060000           [71] vararg     27  0        ; R27 to top := ...
014B  1C460000           [72] call       24  0   1    ;  := R24(R25 to top)
014F  1E008000           [73] return     0   1        ; return 
                         * constants:
0153  15000000           sizek (21)
0157  04                 const type 4
0158  07000000           string size (7)
015C  737472696E6700     "string\0"
                         const [0]: "string"
0163  04                 const type 4
0164  05000000           string size (5)
0168  6368617200         "char\0"
                         const [1]: "char"
016D  04                 const type 4
016E  05000000           string size (5)
0172  6279746500         "byte\0"
                         const [2]: "byte"
0177  04                 const type 4
0178  04000000           string size (4)
017C  73756200           "sub\0"
                         const [3]: "sub"
0180  04                 const type 4
0181  06000000           string size (6)
0185  626974333200       "bit32\0"
                         const [4]: "bit32"
018B  04                 const type 4
018C  04000000           string size (4)
0190  62697400           "bit\0"
                         const [5]: "bit"
0194  04                 const type 4
0195  05000000           string size (5)
0199  62786F7200         "bxor\0"
                         const [6]: "bxor"
019E  04                 const type 4
019F  06000000           string size (6)
01A3  7461626C6500       "table\0"
                         const [7]: "table"
01A9  04                 const type 4
01AA  07000000           string size (7)
01AE  636F6E63617400     "concat\0"
                         const [8]: "concat"
01B5  04                 const type 4
01B6  07000000           string size (7)
01BA  696E7365727400     "insert\0"
                         const [9]: "insert"
01C1  04                 const type 4
01C2  09000000           string size (9)
01C6  746F6E756D626572+  "tonumber"
01CE  00                 "\0"
                         const [10]: "tonumber"
01CF  04                 const type 4
01D0  05000000           string size (5)
01D4  6773756200         "gsub\0"
                         const [11]: "gsub"
01D9  04                 const type 4
01DA  04000000           string size (4)
01DE  72657000           "rep\0"
                         const [12]: "rep"
01E2  04                 const type 4
01E3  05000000           string size (5)
01E7  6D61746800         "math\0"
                         const [13]: "math"
01EC  04                 const type 4
01ED  06000000           string size (6)
01F1  6C6465787000       "ldexp\0"
                         const [14]: "ldexp"
01F7  04                 const type 4
01F8  08000000           string size (8)
01FC  67657466656E7600   "getfenv\0"
                         const [15]: "getfenv"
0204  04                 const type 4
0205  0D000000           string size (13)
0209  7365746D65746174+  "setmetat"
0211  61626C6500         "able\0"
                         const [16]: "setmetatable"
0216  04                 const type 4
0217  06000000           string size (6)
021B  7063616C6C00       "pcall\0"
                         const [17]: "pcall"
0221  04                 const type 4
0222  07000000           string size (7)
0226  73656C65637400     "select\0"
                         const [18]: "select"
022D  04                 const type 4
022E  07000000           string size (7)
0232  756E7061636B00     "unpack\0"
                         const [19]: "unpack"
0239  04                 const type 4
023A  8B580000           string size (22667)
023E  4C4F4C213044334F+  "LOL!0D3O"
0246  303030333036334F+  "0003063O"
024E  3030373337343732+  "00737472"
0256  3639364536373033+  "696E6703"
025E  3034334F30303633+  "043O0063"
0266  3638363137323033+  "68617203"
026E  3034334F30303632+  "043O0062"
0276  373937343635324F+  "7974652O"
027E  3033334F30303733+  "033O0073"
0286  3735363230333035+  "75620305"
028E  334F303036323639+  "3O006269"
0296  373433333332324F+  "7433322O"
029E  3033334F30303632+  "033O0062"
02A6  3639373430333034+  "69740304"
02AE  334F303036323738+  "3O006278"
02B6  3646373230333035+  "6F720305"
02BE  334F303037343631+  "3O007461"
02C6  3632364336353033+  "626C6503"
02CE  3036334F30303633+  "063O0063"
02D6  3646364536333631+  "6F6E6361"
02DE  373430333036334F+  "7403063O"
02E6  3030363936453733+  "00696E73"
02EE  3635373237343033+  "65727403"
02F6  3035334F30303644+  "053O006D"
02FE  3631373436333638+  "61746368"
0306  30333038334F3030+  "03083O00"
030E  3734364636453735+  "746F6E75"
0316  3644363236353732+  "6D626572"
031E  30333035334F3030+  "03053O00"
0326  373036333631324F+  "7063612O"
032E  364330303234334F+  "6C00243O"
0336  303031323242334F+  "00122B3O"
033E  30303031334F3030+  "00013O00"
0346  32303132354F3030+  "20125O00"
034E  3032303031323242+  "0200122B"
0356  3030303130303031+  "00010001"
035E  334F303032303132+  "3O002012"
0366  3030303130303031+  "00010001"
036E  3030303330303132+  "00030012"
0376  3242303030323030+  "2B000200"
037E  3031334F30303230+  "013O0020"
0386  3132303030323030+  "12000200"
038E  3032303030343030+  "02000400"
0396  3132324230303033+  "122B0003"
039E  30303035334F3030+  "00053O00"
03A6  3036363930303033+  "06690003"
03AE  3030304130303031+  "000A0001"
03B6  3030303130303034+  "00010004"
03BE  3043334F30303041+  "0C3O000A"
03C6  3030303130303132+  "00010012"
03CE  3242303030333030+  "2B000300"
03D6  3036334F30303230+  "063O0020"
03DE  3132303030343030+  "12000400"
03E6  3033303030373030+  "03000700"
03EE  3132324230303035+  "122B0005"
03F6  30303038334F3030+  "00083O00"
03FE  3230313230303035+  "20120005"
0406  3030303530303039+  "00050009"
040E  3030313232423030+  "00122B00"
0416  303630303038334F+  "0600083O"
041E  3030323031323030+  "00201200"
0426  3036303030363030+  "06000600"
042E  3041303030363435+  "0A000645"
0436  30303037334F3030+  "00073O00"
043E  303130303036324F+  "0100062O"
0446  30303436334F3030+  "00463O00"
044E  3036344F30303436+  "064O0046"
0456  384F30303436334F+  "8O00463O"
045E  30303034344F3030+  "00044O00"
0466  3436334F30303031+  "463O0001"
046E  344F30303436334F+  "4O00463O"
0476  30303032344F3030+  "00024O00"
047E  3436334F30303035+  "463O0005"
0486  334F303031323242+  "3O00122B"
048E  3030303830303031+  "00080001"
0496  334F303032303132+  "3O002012"
049E  3030303830303038+  "00080008"
04A6  3030304230303132+  "000B0012"
04AE  3242303030393030+  "2B000900"
04B6  3043334F30303132+  "0C3O0012"
04BE  3242303030413030+  "2B000A00"
04C6  3044334F30303036+  "0D3O0006"
04CE  3435303030423030+  "45000B00"
04D6  3031303030313030+  "01000100"
04DE  3035324F30303436+  "052O0046"
04E6  334F30303037344F+  "3O00074O"
04EE  30303436334F3030+  "00463O00"
04F6  3039344F30303436+  "094O0046"
04FE  334F30303038344F+  "3O00084O"
0506  30303436334F3030+  "00463O00"
050E  3041344F30303436+  "0A4O0046"
0516  334F30303042344F+  "3O000B4O"
051E  3030353430303043+  "0054000C"
0526  30303042344F3030+  "000B4O00"
052E  3232303030433030+  "22000C00"
0536  3031344F30303042+  "014O000B"
053E  30303043364F3030+  "000C6O00"
0546  3641334F30303031+  "6A3O0001"
054E  334F30303032334F+  "3O00023O"
0556  30303032334F3030+  "00023O00"
055E  3032364F30304630+  "026O00F0"
0566  33463032364F3030+  "3F026O00"
056E  3730343030323236+  "70400226"
0576  344F303034383030+  "4O004800"
057E  3032354F30303132+  "025O0012"
0586  3034303030333030+  "04000300"
058E  3031344F30303445+  "014O004E"
0596  30303034354F3030+  "00045O00"
059E  3132303430303035+  "12040005"
05A6  30303031334F3030+  "00013O00"
05AE  3034323530303033+  "04250003"
05B6  3030323130303031+  "00210001"
05BE  324F303030323030+  "2O000200"
05C6  3037364F30303534+  "076O0054"
05CE  3030303830303032+  "00080002"
05D6  344F303030323030+  "4O000200"
05DE  303930303031344F+  "0900014O"
05E6  3030303230303041+  "0002000A"
05EE  30303032344F3030+  "00024O00"
05F6  3032303030423030+  "02000B00"
05FE  3033344F30303032+  "034O0002"
0606  3030304330303034+  "000C0004"
060E  344F303035343030+  "4O005400"
0616  3044364F30303534+  "0D6O0054"
061E  3030304530303036+  "000E0006"
0626  334F303032303330+  "3O002030"
062E  3030304630303036+  "000F0006"
0636  30303031324F3030+  "00012O00"
063E  3239303030433030+  "29000C00"
0646  3046344F30303136+  "0F4O0016"
064E  30303042334F3030+  "000B3O00"
0656  3032324F30303032+  "022O0002"
065E  3030304330303033+  "000C0003"
0666  344F303030323030+  "4O000200"
066E  304430303034344F+  "0D00044O"
0676  3030353430303045+  "0054000E"
067E  30303031344F3030+  "00014O00"
0686  3445303030463030+  "4E000F00"
068E  3031344F30303646+  "014O006F"
0696  3030304630303036+  "000F0006"
069E  3030304630303130+  "000F0010"
06A6  3634303030463030+  "64000F00"
06AE  303130303046324F+  "01000F2O"
06B6  3030344530303130+  "004E0010"
06BE  30303031344F3030+  "00014O00"
06C6  3646303031303030+  "6F001000"
06CE  3036303031303030+  "06001000"
06D6  3130363430303130+  "10640010"
06DE  3030303130303130+  "00010010"
06E6  3030323033303030+  "00203000"
06EE  3130303031303030+  "10001000"
06F6  3031324F30303239+  "012O0029"
06FE  3030304430303130+  "000D0010"
0706  344F303034463030+  "4O004F00"
070E  3043364F30303136+  "0C6O0016"
0716  30303041334F3030+  "000A3O00"
071E  3032303032303537+  "02002057"
0726  3030304130303041+  "000A000A"
072E  30303032324F3030+  "00022O00"
0736  3431303030393030+  "41000900"
073E  3041344F30303437+  "0A4O0047"
0746  30303037334F3030+  "00073O00"
074E  3031303030343533+  "01000453"
0756  3030303330303035+  "00030005"
075E  30303031324F3030+  "00012O00"
0766  3032303030333030+  "02000300"
076E  3035344F30303534+  "054O0054"
0776  3030303430303032+  "00040002"
077E  344F303036303030+  "4O006000"
0786  303330303034344F+  "0300044O"
078E  3030304230303033+  "000B0003"
0796  364F30303641334F+  "6O006A3O"
079E  30303031374F3030+  "00017O00"
07A6  3034334F30303032+  "043O0002"
07AE  374F303034303033+  "7O004003"
07B6  3035334F30303341+  "053O003A"
07BE  3235363432423341+  "25642B3A"
07C6  324F3033334F3030+  "2O033O00"
07CE  3235363432423032+  "25642B02"
07D6  364F303046303346+  "6O00F03F"
07DE  30303143334F3030+  "001C3O00"
07E6  30363435354F3030+  "06455O00"
07EE  303130303031324F+  "0100012O"
07F6  30303642384F3030+  "006B8O00"
07FE  3032303030313030+  "02000100"
0806  3031344F30303032+  "014O0002"
080E  3030303230303032+  "00020002"
0816  344F303030323030+  "4O000200"
081E  303330303032344F+  "0300024O"
0826  3030343830303034+  "00480004"
082E  364F303030323030+  "6O000200"
0836  303530303033344F+  "0500034O"
083E  3030353430303036+  "00540006"
0846  364F303032363030+  "6O002600"
084E  303730303037344F+  "0700074O"
0856  3030323930303035+  "00290005"
085E  30303037344F3030+  "00074O00"
0866  324430303034334F+  "2D00043O"
086E  3030303130303230+  "00010020"
0876  3132303030343030+  "12000400"
087E  3034303030313030+  "04000100"
0886  3132303430303035+  "12040005"
088E  30303032344F3030+  "00024O00"
0896  3539303030333030+  "59000300"
089E  3035303030323030+  "05000200"
08A6  3132303430303034+  "12040004"
08AE  30303033344F3030+  "00034O00"
08B6  3239303030323030+  "29000200"
08BE  3034344F30303136+  "044O0016"
08C6  30303031334F3030+  "00013O00"
08CE  3032303032363234+  "02002624"
08D6  3030303130303138+  "00010018"
08DE  3030303130303034+  "00010004"
08E6  303030343043334F+  "00040C3O"
08EE  3030313830303031+  "00180001"
08F6  324F303035343030+  "2O005400"
08FE  3031364F30303438+  "016O0048"
0906  30303032364F3030+  "00026O00"
090E  3630303030313030+  "60000100"
0916  3032344F30303042+  "024O000B"
091E  30303031354F3030+  "00015O00"
0926  30343043334F3030+  "040C3O00"
092E  314230303031324F+  "1B00012O"
0936  3030303230303031+  "00020001"
093E  30303034344F3030+  "00044O00"
0946  3232303030313030+  "22000100"
094E  3031344F30303042+  "014O000B"
0956  30303031364F3030+  "00016O00"
095E  3641334F30303031+  "6A3O0001"
0966  334F30303031334F+  "3O00013O"
096E  30304333334F3030+  "00C33O00"
0976  30333041334F3030+  "030A3O00"
097E  3643364636313634+  "6C6F6164"
0986  3733373437323639+  "73747269"
098E  3645363730333034+  "6E670304"
0996  334F303036373631+  "3O006761"
099E  3644363530333037+  "6D650307"
09A6  334F30303438324F+  "3O00482O"
09AE  3734373034373635+  "74704765"
09B6  373430333344334F+  "74033D3O"
09BE  30303638324F3734+  "00682O74"
09C6  373037333341324F+  "70733A2O"
09CE  3246373236313737+  "2F726177"
09D6  3245363736393734+  "2E676974"
09DE  3638373536323735+  "68756275"
09E6  3733363537323633+  "73657263"
09EE  3646364537343635+  "6F6E7465"
09F6  3645373432453633+  "6E742E63"
09FE  3646364432463436+  "6F6D2F46"
0A06  3631364437373638+  "616D7768"
0A0E  3646363137323635+  "6F617265"
0A16  3246344336443631+  "2F4C6D61"
0A1E  3646324636443631+  "6F2F6D61"
0A26  3639364532463438+  "696E2F48"
0A2E  3635373937373635+  "65797765"
0A36  3637364630333037+  "676F0307"
0A3E  334F303037333635+  "3O007365"
0A46  3732373636393633+  "72766963"
0A4E  363530333037334F+  "6503073O"
0A56  3030434144303335+  "00CAD035"
0A5E  3030424136364539+  "00BA66E9"
0A66  30333036334F3030+  "03063O00"
0A6E  3134394142433534+  "149ABC54"
0A76  3739444630333042+  "79DF030B"
0A7E  334F303034433646+  "3O004C6F"
0A86  3633363136433530+  "63616C50"
0A8E  3643363137393635+  "6C617965"
0A96  373230333036334F+  "7203063O"
0A9E  3030353537333635+  "00557365"
0AA6  3732343936343033+  "72496403"
0AAE  3035334F30303730+  "053O0070"
0AB6  3732363936453734+  "72696E74"
0ABE  30333042334F3030+  "030B3O00"
0AC6  4241323438384435+  "BA2488D5"
0ACE  4245354144363945+  "BE5AD69E"
0AD6  3338383443353033+  "3884C503"
0ADE  3037334F30304246+  "073O00BF"
0AE6  4544344345314131+  "ED4CE1A1"
0AEE  4442333630333037+  "DB360307"
0AF6  334F303035303643+  "3O00506C"
0AFE  3631373936353732+  "61796572"
0B06  373330333034334F+  "7303043O"
0B0E  3030344236393633+  "004B6963"
0B16  364230333134334F+  "6B03143O"
0B1E  3030304635453331+  "000F5E31"
0B26  3430333134314146+  "403141AF"
0B2E  3238353932413530+  "28592A50"
0B36  3231303938313245+  "2109812E"
0B3E  3434333535383335+  "44355835"
0B46  354430333037334F+  "5D03073O"
0B4E  3030433035413330+  "00C05A30"
0B56  3530333534353239+  "50354529"
0B5E  30333133334F3030+  "03133O00"
0B66  3638324F37343730+  "682O7470"
0B6E  37333341324F3246+  "733A2O2F"
0B76  3736333432453639+  "76342E69"
0B7E  3634363536453734+  "64656E74"
0B86  324536443635324F+  "2E6D652O"
0B8E  3033334F30303730+  "033O0070"
0B96  3643373230333041+  "6C72030A"
0B9E  334F303034373635+  "3O004765"
0BA6  3734353336353732+  "74536572"
0BAE  3736363936333635+  "76696365"
0BB6  30333037334F3030+  "03073O00"
0BBE  4333323742443139+  "C327BD19"
0BC6  4636333941463033+  "F639AF03"
0BCE  3034334F30303630+  "043O0060"
0BD6  3933344244433033+  "934BDC03"
0BDE  3045334F30303444+  "0E3O004D"
0BE6  3635364436323635+  "656D6265"
0BEE  3732373336383639+  "72736869"
0BF6  3730353437393730+  "70547970"
0BFE  363530333034334F+  "6503043O"
0C06  3030343536453735+  "00456E75"
0C0E  364430333037334F+  "6D03073O"
0C16  3030353037323635+  "00507265"
0C1E  3644363937353644+  "6D69756D"
0C26  30333034334F3030+  "03043O00"
0C2E  3445364636453635+  "4E6F6E65"
0C36  3031303030333041+  "0100030A"
0C3E  334F30303431324F+  "3O00412O"
0C46  3633364637353645+  "636F756E"
0C4E  3734343136373635+  "74416765"
0C56  3032354F30303830+  "025O0080"
0C5E  3531343030333132+  "51400312"
0C66  334F303032373033+  "3O002703"
0C6E  3338443230374145+  "38D207AE"
0C76  4337303630333239+  "C7060329"
0C7E  4443333142464335+  "DC31BFC5"
0C86  3143304232394443+  "1C0B29DC"
0C8E  30333037334F3030+  "03073O00"
0C96  4237364136323441+  "B76A624A"
0C9E  4239363244413033+  "B962DA03"
0CA6  3045334F30303437+  "0E3O0047"
0CAE  3635373435303732+  "65745072"
0CB6  3646363437353633+  "6F647563"
0CBE  3734343936453636+  "74496E66"
0CC6  364630333037334F+  "6F03073O"
0CCE  3030353036433631+  "00506C61"
0CD6  3633363534393634+  "63654964"
0CDE  30333038334F3030+  "03083O00"
0CE6  3439364536363646+  "496E666F"
0CEE  3534373937303635+  "54797065"
0CF6  30333035334F3030+  "03053O00"
0CFE  3431324F37333635+  "412O7365"
0D06  373430333043334F+  "74030C3O"
0D0E  30303638324F3734+  "00682O74"
0D16  3730354637323635+  "705F7265"
0D1E  3731373536353733+  "71756573"
0D26  3734324F3033334F+  "742O033O"
0D2E  3030373337393645+  "0073796E"
0D36  30333037334F3030+  "03073O00"
0D3E  3732363537313735+  "72657175"
0D46  3635373337343033+  "65737403"
0D4E  3042334F30303533+  "0B3O0053"
0D56  3435344535343439+  "454E5449"
0D5E  3445343534433546+  "4E454C5F"
0D66  35363332324F3033+  "56322O03"
0D6E  334F303038454342+  "3O008ECB"
0D76  344530333035334F+  "4E03053O"
0D7E  3030374544424239+  "007EDBB9"
0D86  3232334430333137+  "223D0317"
0D8E  334F30303638324F+  "3O00682O"
0D96  3734373037333341+  "7470733A"
0D9E  324F32463638324F+  "2O2F682O"
0DA6  3734373036323639+  "74706269"
0DAE  3645324536463732+  "6E2E6F72"
0DB6  3637324636373635+  "672F6765"
0DBE  373430333036334F+  "7403063O"
0DC6  3030323143423441+  "0021CB4A"
0DCE  3741373137333033+  "7A717303"
0DD6  3038334F30303837+  "083O0087"
0DDE  3643414533453132+  "6CAE3E12"
0DE6  314531373933324F+  "1E17932O"
0DEE  3033334F30303931+  "033O0091"
0DF6  4343314530333038+  "CC1E0308"
0DFE  334F303041374436+  "3O00A7D6"
0E06  3839344141423738+  "894AAB78"
0E0E  4345353330333034+  "CE530304"
0E16  334F303034323646+  "3O00426F"
0E1E  3634373930333042+  "6479030B"
0E26  334F303041334534+  "3O00A3E4"
0E2E  3236344443424132+  "264DCBA2"
0E36  3939453633423545+  "99E63B5E"
0E3E  464430333036334F+  "FD03063O"
0E46  3030433745423930+  "00C7EB90"
0E4E  3532334439383033+  "523D9803"
0E56  3041334F30303441+  "0A3O004A"
0E5E  3533344634453434+  "534F4E44"
0E66  3635363336463634+  "65636F64"
0E6E  363530333046334F+  "65030F3O"
0E76  3030333430464237+  "00340FB7"
0E7E  3636323131464237+  "66211FB7"
0E86  3243303230344139+  "2C0204A9"
0E8E  3339304531384144+  "390E18AD"
0E96  30333034334F3030+  "03043O00"
0E9E  3442363737364439+  "4B6776D9"
0EA6  30333043334F3030+  "030C3O00"
0EAE  4532344336303138+  "E24C6018"
0EB6  4236313744333139+  "B617D319"
0EBE  3537303142303141+  "5701B01A"
0EC6  30333036334F3030+  "03063O00"
0ECE  3745413733343130+  "7EA73410"
0ED6  3734443930333135+  "74D90315"
0EDE  334F303046383343+  "3O00F83C"
0EE6  3246393442423534+  "2F94BB54"
0EEE  4339444232423332+  "C9DB2B32"
0EF6  4344394431444639+  "CD9D1DF9"
0EFE  4336334132393836+  "C63A2986"
0F06  4244314345453033+  "BD1CEE03"
0F0E  3037334F30303943+  "073O009C"
0F16  4138344534304530+  "A84E40E0"
0F1E  4434373930333134+  "D4790314"
0F26  334F303033344542+  "3O0034EB"
0F2E  4142444130454530+  "ABDA0EE0"
0F36  4130433234414338+  "A0C24AC8"
0F3E  4143433030304542+  "ACC000EB"
0F46  4237444531354537+  "B7DE15E7"
0F4E  4142444130333034+  "ABDA0304"
0F56  334F303041453637+  "3O00AE67"
0F5E  3845433530333034+  "8EC50304"
0F66  334F303036383737+  "3O006877"
0F6E  363936343033344F+  "6964034O"
0F76  303030333034334F+  "0003043O"
0F7E  3030364536353738+  "006E6578"
0F86  373430333037334F+  "7403073O"
0F8E  3030363836353631+  "00686561"
0F96  3634363537323733+  "64657273"
0F9E  3032384F30303032+  "028O0002"
0FA6  364F303046303346+  "6O00F03F"
0FAE  3032374F30303430+  "027O0040"
0FB6  3032364F30303038+  "026O0008"
0FBE  343030333037334F+  "4003073O"
0FC6  3030353532373531+  "00552751"
0FCE  3243323035304543+  "2C2050EC"
0FD6  30333037334F3030+  "03073O00"
0FDE  3938333634383346+  "9836483F"
0FE6  3538343533453033+  "58453E03"
0FEE  3036334F30304431+  "063O00D1"
0FF6  4339454335394430+  "C9EC59D0"
0FFE  443730333034334F+  "D703043O"
1006  3030334342344134+  "003CB4A4"
100E  384530333035334F+  "8E03053O"
1016  3030344335373131+  "004C5711"
101E  3235323230333037+  "25220307"
1026  334F303037323338+  "3O007238"
102E  3345363534393437+  "3E654947"
1036  384430333044334F+  "8D030D3O"
103E  3030383744363931+  "0087D691"
1046  3845393044454632+  "8E90DEF2"
104E  4530453241333931+  "E0E2A391"
1056  4642383730333034+  "FB870304"
105E  334F303041344438+  "3O00A4D8"
1066  3839424230333042+  "89BB030B"
106E  334F303044364533+  "3O00D6E3"
1076  3232423142344637+  "22B1B4F7"
107E  3142433645463345+  "1BC6EF3E"
1086  424330333037334F+  "BC03073O"
108E  3030364242323836+  "006BB286"
1096  3531443243363945+  "51D2C69E"
109E  30333034334F3030+  "03043O00"
10A6  3243313739324333+  "2C1792C3"
10AE  30333035334F3030+  "03053O00"
10B6  4341353836454532+  "CA586EE2"
10BE  413630333034334F+  "A603043O"
10C6  3030443130363831+  "00D10681"
10CE  464630333035334F+  "FF03053O"
10D6  3030414141333646+  "00AAA36F"
10DE  4532393730333035+  "E2970305"
10E6  334F303031323346+  "3O00123F"
10EE  4245333735433033+  "BE375C03"
10F6  3037334F30303439+  "073O0049"
10FE  3731353044323538+  "7150D258"
1106  3245353730333038+  "2E570308"
110E  334F303037343646+  "3O00746F"
1116  3645373536443632+  "6E756D62"
111E  363537323032334F+  "6572023O"
1126  3030323032313631+  "00202161"
112E  3635343130333036+  "65410306"
1136  334F303038373235+  "3O008725"
113E  4338314545333932+  "C81EE392"
1146  30333035334F3030+  "03053O00"
114E  3837453134434144+  "87E14CAD"
1156  373230333034334F+  "7203043O"
115E  303031344543324F+  "0014EC2O"
1166  423530333037334F+  "B503073O"
116E  3030433737413844+  "00C77A8D"
1176  4438443043434444+  "D8D0CCDD"
117E  30333039334F3030+  "03093O00"
1186  3938434531354532+  "98CE15E2"
118E  3736463741304438+  "76F7A0D8"
1196  344130333036334F+  "4A03063O"
119E  3030393643444244+  "0096CDBD"
11A6  3730393031383033+  "70901803"
11AE  3035334F30303333+  "053O0033"
11B6  3835423335393031+  "85B35901"
11BE  30333038334F3030+  "03083O00"
11C6  3730343545344446+  "7045E4DF"
11CE  3243363445383731+  "2C64E871"
11D6  30333034334F3030+  "03043O00"
11DE  3437363136443635+  "47616D65"
11E6  30333034334F3030+  "03043O00"
11EE  3445363136443635+  "4E616D65"
11F6  30333036334F3030+  "03063O00"
11FE  4444313130424441+  "DD110BDA"
1206  4238373930333037+  "B8790307"
120E  334F303045364234+  "3O00E6B4"
1216  3746363742334436+  "7F67B3D6"
121E  3143324F30313033+  "1C2O0103"
1226  3034334F30303832+  "043O0082"
122E  3034353234333033+  "04524303"
1236  3037334F30303830+  "073O0080"
123E  4543363533463236+  "EC653F26"
1246  3834323130333042+  "8421030B"
124E  334F303038353939+  "3O008599"
1256  3531363542324546+  "5165B2EF"
125E  4444413942413032+  "DDA9BA02"
1266  314530333037334F+  "1E03073O"
126E  3030414643434339+  "00AFCCC9"
1276  3731323444363842+  "7124D68B"
127E  30333035334F3030+  "03053O00"
1286  3531434433394339+  "51CD39C9"
128E  303130333035334F+  "0103053O"
1296  3030363432374143+  "006427AC"
129E  3535424330333036+  "55BC0306"
12A6  334F303041343736+  "3O00A476"
12AE  4235383933444138+  "B5893DA8"
12B6  30333035334F3030+  "03053O00"
12BE  3533434431384439+  "53CD18D9"
12C6  453030333034334F+  "E003043O"
12CE  3030453843344330+  "00E8C4C0"
12D6  333830333034334F+  "3803043O"
12DE  3030354438364135+  "005D86A5"
12E6  414430333041334F+  "AD030A3O"
12EE  3030393946334343+  "0099F3CC"
12F6  4337374145324242+  "C77AE2BB"
12FE  3730423541383033+  "70B5A803"
1306  3038334F30303145+  "083O001E"
130E  4445393241314132+  "DE92A1A2"
1316  3541414544323033+  "5AAED203"
131E  3035334F30304633+  "053O00F3"
1326  3446374331464530+  "4F7C1FE0"
132E  30333034334F3030+  "03043O00"
1336  3641383532453130+  "6A852E10"
133E  30333139334F3030+  "03193O00"
1346  3638324F37343730+  "682O7470"
134E  37333341324F3246+  "733A2O2F"
1356  3732364636323643+  "726F626C"
135E  3646373832453633+  "6F782E63"
1366  3646364432463637+  "6F6D2F67"
136E  3631364436353733+  "616D6573"
1376  324630333031334F+  "2F03013O"
137E  3030324630333036+  "002F0306"
1386  334F303035313245+  "3O00512E"
138E  3746463535343435+  "7FF55445"
1396  30333036334F3030+  "03063O00"
139E  3230333834303133+  "20384013"
13A6  3943334130333034+  "9C3A0304"
13AE  334F303035344339+  "3O0054C9"
13B6  4538353330333037+  "E8530307"
13BE  334F303045303341+  "3O00E03A"
13C6  4138383533363341+  "A885363A"
13CE  393230333041334F+  "92030A3O"
13D6  3030374535373436+  "007E5746"
13DE  4638333541383836+  "F835A886"
13E6  3036354330433033+  "065C0C03"
13EE  3038334F30303642+  "083O006B"
13F6  3339333632423944+  "39362B9D"
13FE  3135453645373033+  "15E6E703"
1406  3035334F30304344+  "053O00CD"
140E  3841314445304243+  "8A1DE0BC"
1416  30333037334F3030+  "03073O00"
141E  4146424245423731+  "AFBBEB71"
1426  3935443942433033+  "95D9BC03"
142E  3036334F30303335+  "063O0035"
1436  4131384434354544+  "A18D45ED"
143E  374330333037334F+  "7C03073O"
1446  3030313835434346+  "00185CCF"
144E  4531324338333139+  "E12C8319"
1456  30333034334F3030+  "03043O00"
145E  3435443242353439+  "45D2B549"
1466  30333036334F3030+  "03063O00"
146E  3144324242334438+  "1D2BB3D8"
1476  3243374230333034+  "2C7B0304"
147E  334F303039434445+  "3O009CDE"
1486  3235313630333034+  "25160304"
148E  334F303032434444+  "3O002CDD"
1496  4239343030333035+  "B9400305"
149E  334F303031374536+  "3O0017E6"
14A6  3434344137363033+  "444A7603"
14AE  3035334F30303133+  "053O0013"
14B6  3631383732383346+  "6187283F"
14BE  30333036334F3030+  "03063O00"
14C6  4137353233463332+  "A7523F32"
14CE  3231333430333036+  "21340306"
14D6  334F303035314345+  "3O0051CE"
14DE  3343353335423446+  "3C535B4F"
14E6  30333034334F3030+  "03043O00"
14EE  3430414144443737+  "40AADD77"
14F6  30333038334F3030+  "03083O00"
14FE  4334324543424230+  "C42ECBB0"
1506  3132344641333244+  "124FA32D"
150E  30333038334F3030+  "03083O00"
1516  3838333037423133+  "88307B13"
151E  32444545324F4532+  "2DEE2OE2"
1526  30333037334F3030+  "03073O00"
152E  3846443834323145+  "8FD8421E"
1536  3745343439423033+  "7E449B03"
153E  3035334F30304243+  "053O00BC"
1546  4339303144454330+  "C901DEC0"
154E  30333038334F3030+  "03083O00"
1556  3831434141383644+  "81CAA86D"
155E  4142413543334237+  "ABA5C3B7"
1566  30333036334F3030+  "03063O00"
156E  3242353633424431+  "2B563BD1"
1576  4430313130333037+  "D0110307"
157E  334F303038363432+  "3O008642"
1586  3338353742384245+  "3857B8BE"
158E  373430333034334F+  "7403043O"
1596  3030333233303034+  "00323004"
159E  424530333038334F+  "BE03083O"
15A6  3030353535433531+  "00555C51"
15AE  3639444237393842+  "69DB798B"
15B6  343130333034334F+  "4103043O"
15BE  3030444339463634+  "00DC9F64"
15C6  314630333036334F+  "1F03063O"
15CE  3030424639444433+  "00BF9DD3"
15D6  3330323531433033+  "30251C03"
15DE  3035334F30304339+  "053O00C9"
15E6  3145463830393346+  "1EF8093F"
15EE  30333035334F3030+  "03053O00"
15F6  3541424637463934+  "5ABF7F94"
15FE  374330333036334F+  "7C03063O"
1606  3030373138393232+  "00718922"
160E  3145373638323033+  "1E768203"
1616  3034334F30303737+  "043O0077"
161E  3138453734453033+  "18E74E03"
1626  3041334F30303441+  "0A3O004A"
162E  3533344634453435+  "534F4E45"
1636  3645363336463634+  "6E636F64"
163E  363530333042334F+  "65030B3O"
1646  3030414133394231+  "00AA39B1"
164E  3541454634353033+  "5AEF4503"
1656  3934323441363446+  "9424A64F"
165E  30333037334F3030+  "03073O00"
1666  3731453234444335+  "71E24DC5"
166E  3241424332303033+  "2ABC2003"
1676  3739334F30303638+  "793O0068"
167E  324F373437303733+  "2O747073"
1686  3341324F32463634+  "3A2O2F64"
168E  3639373336333646+  "6973636F"
1696  3732363432453633+  "72642E63"
169E  3646364432463631+  "6F6D2F61"
16A6  3730363932463737+  "70692F77"
16AE  363536323638324F+  "6562682O"
16B6  3646364237333246+  "6F6B732F"
16BE  324F333133303336+  "2O313036"
16C6  3332333533373333+  "32353733"
16CE  3330333733343338+  "30373438"
16D6  3334333033333337+  "34303337"
16DE  3331333733313246+  "3137312F"
16E6  3531353833393539+  "51583959"
16EE  3633343236333641+  "6342636A"
16F6  3444333437363334+  "4D347634"
16FE  333836373732324F+  "3867722O"
1706  3438343736463633+  "48476F63"
170E  36313431324F3645+  "61412O6E"
1716  3446353636333335+  "4F566335"
171E  3638364235323736+  "686B5276"
1726  3338343434313531+  "38444151"
172E  3433353536423541+  "43556B5A"
1736  3536324434463336+  "562D4F36"
173E  3536333735333733+  "56375373"
1746  3531354635363641+  "515F566A"
174E  3436353636323530+  "46566250"
1756  3432333534333442+  "4235434B"
175E  3334333933343437+  "34393447"
1766  3338364236313441+  "386B614A"
176E  30333043334F3030+  "030C3O00"
1776  3339313946414131+  "3919FAA1"
177E  3346313845304638+  "3F18E0F8"
1786  3245304645344230+  "2E0FE4B0"
178E  30333034334F3030+  "03043O00"
1796  4435354137363934+  "D55A7694"
179E  30333130334F3030+  "03103O00"
17A6  3631324F37303643+  "612O706C"
17AE  3639363336313734+  "69636174"
17B6  3639364636453246+  "696F6E2F"
17BE  3641373336463645+  "6A736F6E"
17C6  324F3033334F3030+  "2O033O00"
17CE  3645334342383033+  "6E3CB803"
17D6  3035334F30303244+  "053O002D"
17DE  3342344544343336+  "3B4ED436"
17E6  30333034334F3030+  "03043O00"
17EE  3332353938373932+  "32598792"
17F6  30333038334F3030+  "03083O00"
17FE  3930373033364533+  "907036E3"
1806  4542453634454344+  "EBE64ECD"
180E  30333036334F3030+  "03063O00"
1816  3945324431424634+  "9E2D1BF4"
181E  4446354630333036+  "DF5F0306"
1826  334F303033424433+  "3O003BD3"
182E  3438364639434230+  "486F9CB0"
1836  30333034334F3030+  "03043O00"
183E  3745413844303139+  "7EA8D019"
1846  30333034334F3030+  "03043O00"
184E  3444324545373833+  "4D2EE783"
1856  30333037334F3030+  "03073O00"
185E  3932353142373434+  "9251B744"
1866  4246343641353033+  "BF46A503"
186E  3034334F30303230+  "043O0020"
1876  4441333444363033+  "DA34D603"
187E  3034334F30303737+  "043O0077"
1886  3631363937343033+  "61697403"
188E  3038334F30303439+  "083O0049"
1896  3733344336463631+  "734C6F61"
189E  3634363536343033+  "64656403"
18A6  3037334F30303745+  "073O007E"
18AE  3142333042314634+  "1B30B1F4"
18B6  4132353630333038+  "A2560308"
18BE  334F303033413245+  "3O003A2E"
18C6  3737353143383931+  "7751C891"
18CE  4430323530333035+  "D0250305"
18D6  334F303034393634+  "3O004964"
18DE  3643363536343033+  "6C656403"
18E6  3037334F30303633+  "073O0063"
18EE  3646324F36453635+  "6F2O6E65"
18F6  3633373430333034+  "63740304"
18FE  334F303036443631+  "3O006D61"
1906  3734363830333034+  "74680304"
190E  334F303036383735+  "3O006875"
1916  3637363530333035+  "67650305"
191E  334F303037303631+  "3O007061"
1926  3732373433333033+  "72743303"
192E  3038334F30303439+  "083O0049"
1936  3645373337343631+  "6E737461"
193E  364536333635324F+  "6E63652O"
1946  3033334F30303645+  "033O006E"
194E  3635373730333034+  "65770304"
1956  334F303034323430+  "3O004240"
195E  3635393130333036+  "65910306"
1966  334F303045423132+  "3O00EB12"
196E  3231313745353945+  "2117E59E"
1976  30333038334F3030+  "03083O00"
197E  3431364536333638+  "416E6368"
1986  3646373236353634+  "6F726564"
198E  30333036334F3030+  "03063O00"
1996  3530363137323635+  "50617265"
199E  3645373430333039+  "6E740309"
19A6  334F303037373646+  "3O00776F"
19AE  3732364237333730+  "726B7370"
19B6  363136333635324F+  "6163652O"
19BE  3033334F30303441+  "033O004A"
19C6  4246434630333034+  "BFCF0304"
19CE  334F303044423330+  "3O00DB30"
19D6  4441413130333034+  "DAA10304"
19DE  334F303035333639+  "3O005369"
19E6  3741363530333037+  "7A650307"
19EE  334F303035363635+  "3O005665"
19F6  3633373436463732+  "63746F72"
19FE  33333032364F3030+  "33026O00"
1A06  353934303032354F+  "5940025O"
1A0E  3030343038463430+  "00408F40"
1A16  30333036334F3030+  "03063O00"
1A1E  3433343637323631+  "43467261"
1A26  364436353032354F+  "6D65025O"
1A2E  3030443037343430+  "00D07440"
1A36  30333037334F3030+  "03073O00"
1A3E  4434324F37443530+  "D42O7D50"
1A46  4445354446333033+  "DE5DF303"
1A4E  3037334F30303830+  "073O0080"
1A56  3834313131433239+  "84111C29"
1A5E  4242324630333034+  "BB2F0304"
1A66  334F303039433246+  "3O009C2F"
1A6E  4239354630333038+  "B95F0308"
1A76  334F303036394343+  "3O0069CC"
1A7E  3445434232424137+  "4ECB2BA7"
1A86  33373745324F3033+  "377E2O03"
1A8E  334F303042464146+  "3O00BFAF"
1A96  324430333038334F+  "2D03083O"
1A9E  3030333143354341+  "0031C5CA"
1AA6  3433374537333634+  "437E7364"
1AAE  413730333039334F+  "A703093O"
1AB6  3030363336463732+  "00636F72"
1ABE  3646373537343639+  "6F757469"
1AC6  3645363530333034+  "6E650304"
1ACE  334F303037373732+  "3O007772"
1AD6  3631373030313632+  "61700162"
1ADE  3032324F30303036+  "022O0006"
1AE6  3033334F30303630+  "033O0060"
1AEE  30323031334F3030+  "02013O00"
1AF6  30343043334F3030+  "040C3O00"
1AFE  3630303230313030+  "60020100"
1B06  3132324230303031+  "122B0001"
1B0E  30303031334F3030+  "00013O00"
1B16  3132324230303032+  "122B0002"
1B1E  30303032334F3030+  "00023O00"
1B26  3230353630303032+  "20560002"
1B2E  3030303230303033+  "00020003"
1B36  3030313230343030+  "00120400"
1B3E  303430303034344F+  "0400044O"
1B46  3030333830303035+  "00380005"
1B4E  30303031344F3030+  "00014O00"
1B56  3239303030323030+  "29000200"
1B5E  3035344F30303136+  "054O0016"
1B66  30303031334F3030+  "00013O00"
1B6E  3032324F30303637+  "022O0067"
1B76  3030303130303031+  "00010001"
1B7E  3030303230303132+  "00020012"
1B86  3242303030323030+  "2B000200"
1B8E  3032334F30303230+  "023O0020"
1B96  3536303030323030+  "56000200"
1B9E  303230303035324F+  "0200052O"
1BA6  3030303230303034+  "00020004"
1BAE  354F303031323034+  "5O001204"
1BB6  3030303530303036+  "00050006"
1BBE  334F303031323034+  "3O001204"
1BC6  3030303630303037+  "00060007"
1BCE  344F303032393030+  "4O002900"
1BD6  303430303036344F+  "0400064O"
1BDE  3030313630303032+  "00160002"
1BE6  334F303030323030+  "3O000200"
1BEE  3230313230303032+  "20120002"
1BF6  3030303230303038+  "00020008"
1BFE  3030323031323030+  "00201200"
1C06  3032303030323030+  "02000200"
1C0E  3039324F30303538+  "092O0058"
1C16  3030303230303031+  "00020001"
1C1E  3030303230303036+  "00020006"
1C26  3033303030323030+  "03000200"
1C2E  314430303031334F+  "1D00013O"
1C36  303030343043334F+  "00040C3O"
1C3E  3030314430303031+  "001D0001"
1C46  3030313232423030+  "00122B00"
1C4E  303230303041344F+  "02000A4O"
1C56  3030303230303033+  "00020003"
1C5E  354F303031323034+  "5O001204"
1C66  3030303430303042+  "0004000B"
1C6E  334F303031323034+  "3O001204"
1C76  3030303530303043+  "0005000C"
1C7E  344F303032393030+  "4O002900"
1C86  303330303035344F+  "0300054O"
1C8E  3030343730303032+  "00470002"
1C96  334F303030313030+  "3O000100"
1C9E  30343043334F3030+  "040C3O00"
1CA6  3236303030313030+  "26000100"
1CAE  3132324230303032+  "122B0002"
1CB6  30303032334F3030+  "00023O00"
1CBE  3230313230303032+  "20120002"
1CC6  3030303230303044+  "0002000D"
1CCE  3030323031323030+  "00201200"
1CD6  3032303030323030+  "02000200"
1CDE  3038303032303536+  "08002056"
1CE6  3030303230303032+  "00020002"
1CEE  30303045324F3030+  "000E2O00"
1CF6  303230303034354F+  "0200045O"
1CFE  3030313230343030+  "00120400"
1D06  303530303046334F+  "05000F3O"
1D0E  3030313230343030+  "00120400"
1D16  303630303130344F+  "0600104O"
1D1E  3030323930303034+  "00290004"
1D26  30303036344F3030+  "00064O00"
1D2E  343730303032334F+  "4700023O"
1D36  3030303130303132+  "00010012"
1D3E  3242303030323030+  "2B000200"
1D46  3032334F30303230+  "023O0020"
1D4E  3536303030323030+  "56000200"
1D56  3032303030333030+  "02000300"
1D5E  3132303430303034+  "12040004"
1D66  30303131344F3030+  "00114O00"
1D6E  3539303030323030+  "59000200"
1D76  3034303030323030+  "04000200"
1D7E  3132324230303033+  "122B0003"
1D86  30303032334F3030+  "00023O00"
1D8E  3230353630303033+  "20560003"
1D96  3030303330303133+  "00030013"
1D9E  324F303030323030+  "2O000200"
1DA6  3035354F30303132+  "055O0012"
1DAE  3034303030363030+  "04000600"
1DB6  3134334F30303132+  "143O0012"
1DBE  3034303030373030+  "04000700"
1DC6  3135344F30303239+  "154O0029"
1DCE  3030303530303037+  "00050007"
1DD6  344F303031363030+  "4O001600"
1DDE  3033334F30303032+  "033O0002"
1DE6  3030323031323030+  "00201200"
1DEE  3033303030333030+  "03000300"
1DF6  3038303031323542+  "0800125B"
1DFE  3030303330303132+  "00030012"
1E06  344F303033383030+  "4O003800"
1E0E  3033364F30303338+  "036O0038"
1E16  30303034354F3030+  "00045O00"
1E1E  3132324230303035+  "122B0005"
1E26  30303132334F3030+  "00123O00"
1E2E  3230313230303035+  "20120005"
1E36  3030303530303136+  "00050016"
1E3E  3030313232423030+  "00122B00"
1E46  303630303137334F+  "0600173O"
1E4E  3030323031323030+  "00201200"
1E56  3036303030363030+  "06000600"
1E5E  3136303032303132+  "16002012"
1E66  3030303630303036+  "00060006"
1E6E  3030313830303036+  "00180006"
1E76  3433303030353030+  "43000500"
1E7E  3345303030313030+  "3E000100"
1E86  3036303030343043+  "0600040C"
1E8E  334F303033453030+  "3O003E00"
1E96  3031324F30303338+  "012O0038"
1E9E  3030303330303031+  "00030001"
1EA6  334F303030343043+  "3O00040C"
1EAE  334F303034363030+  "3O004600"
1EB6  3031303031323242+  "0100122B"
1EBE  3030303530303132+  "00050012"
1EC6  334F303032303132+  "3O002012"
1ECE  3030303530303035+  "00050005"
1ED6  3030313630303132+  "00160012"
1EDE  3242303030363030+  "2B000600"
1EE6  3137334F30303230+  "173O0020"
1EEE  3132303030363030+  "12000600"
1EF6  3036303031363030+  "06001600"
1EFE  3230313230303036+  "20120006"
1F06  3030303630303139+  "00060019"
1F0E  3030303634333030+  "00064300"
1F16  3035303034363030+  "05004600"
1F1E  3031303030363030+  "01000600"
1F26  30343043334F3030+  "040C3O00"
1F2E  343630303031324F+  "4600012O"
1F36  3030333830303033+  "00380003"
1F3E  354F303032363234+  "5O002624"
1F46  3030303330303444+  "0003004D"
1F4E  3030303130303141+  "0001001A"
1F56  303030343043334F+  "00040C3O"
1F5E  3030344430303031+  "004D0001"
1F66  3030313232423030+  "00122B00"
1F6E  303530303132334F+  "0500123O"
1F76  3030323031323030+  "00201200"
1F7E  3035303030353030+  "05000500"
1F86  3142303032363041+  "1B00260A"
1F8E  3030303530303444+  "0005004D"
1F96  3030303130303143+  "0001001C"
1F9E  303030343043334F+  "00040C3O"
1FA6  3030344430303031+  "004D0001"
1FAE  324F303033383030+  "2O003800"
1FB6  303430303031334F+  "0400013O"
1FBE  3030313232423030+  "00122B00"
1FC6  303530303032334F+  "0500023O"
1FCE  3030323035363030+  "00205600"
1FD6  3035303030353030+  "05000500"
1FDE  3133324F30303032+  "132O0002"
1FE6  30303037354F3030+  "00075O00"
1FEE  3132303430303038+  "12040008"
1FF6  30303144334F3030+  "001D3O00"
1FFE  3132303430303039+  "12040009"
2006  30303145344F3030+  "001E4O00"
200E  3239303030373030+  "29000700"
2016  3039344F30303136+  "094O0016"
201E  30303035334F3030+  "00053O00"
2026  3032303032303536+  "02002056"
202E  3030303630303035+  "00060005"
2036  3030314630303132+  "001F0012"
203E  3242303030383030+  "2B000800"
2046  3032334F30303230+  "023O0020"
204E  3132303030383030+  "12000800"
2056  3038303032303030+  "08002000"
205E  3132324230303039+  "122B0009"
2066  30303137334F3030+  "00173O00"
206E  3230313230303039+  "20120009"
2076  3030303930303231+  "00090021"
207E  3030323031323030+  "00201200"
2086  3039303030393030+  "09000900"
208E  3232324F30303539+  "222O0059"
2096  3030303630303039+  "00060009"
209E  3030303230303132+  "00020012"
20A6  3242303030373030+  "2B000700"
20AE  3233334F30303132+  "233O0012"
20B6  3242303030383030+  "2B000800"
20BE  3234334F30303036+  "243O0006"
20C6  3033303030383030+  "03000800"
20CE  363230303031334F+  "6200013O"
20D6  303030343043334F+  "00040C3O"
20DE  3030363230303031+  "00620001"
20E6  3030313232423030+  "00122B00"
20EE  303830303234334F+  "0800243O"
20F6  3030323031323030+  "00201200"
20FE  3037303030383030+  "07000800"
2106  3235303030343043+  "2500040C"
210E  334F303036373030+  "3O006700"
2116  3031303031323242+  "0100122B"
211E  3030303830303236+  "00080026"
2126  334F303030363033+  "3O000603"
212E  3030303830303637+  "00080067"
2136  30303031334F3030+  "00013O00"
213E  30343043334F3030+  "040C3O00"
2146  3637303030313030+  "67000100"
214E  3036343530303037+  "06450007"
2156  334F303030313030+  "3O000100"
215E  3031324F30303642+  "012O006B"
2166  384F303035343030+  "8O005400"
216E  303830303037344F+  "0800074O"
2176  3030343830303039+  "00480009"
217E  334F30303032324F+  "3O00022O"
2186  3030303230303041+  "0002000A"
218E  354F303031323034+  "5O001204"
2196  3030304230303237+  "000B0027"
219E  334F303031323034+  "3O001204"
21A6  3030304330303238+  "000C0028"
21AE  344F303035393030+  "4O005900"
21B6  3041303030433030+  "0A000C00"
21BE  3032303032303645+  "0200206E"
21C6  3030303930303041+  "0009000A"
21CE  30303239324F3030+  "00292O00"
21D6  303230303041354F+  "02000A5O"
21DE  3030313230343030+  "00120400"
21E6  304230303241334F+  "0B002A3O"
21EE  3030313230343030+  "00120400"
21F6  304330303242344F+  "0C002B4O"
21FE  3030353930303041+  "0059000A"
2206  3030304330303032+  "000C0002"
220E  324F303030323030+  "2O000200"
2216  3042354F30303132+  "0B5O0012"
221E  3034303030433030+  "04000C00"
2226  3243334F30303132+  "2C3O0012"
222E  3034303030443030+  "04000D00"
2236  3244344F30303539+  "2D4O0059"
223E  3030304230303044+  "000B000D"
2246  30303032324F3030+  "00022O00"
224E  3643303030393030+  "6C000900"
2256  304130303042324F+  "0A000B2O"
225E  3030304530303038+  "000E0008"
2266  3030303230303032+  "00020002"
226E  3030323031323030+  "00201200"
2276  3038303030383030+  "08000800"
227E  3245303031323242+  "2E00122B"
2286  3030303930303032+  "00090002"
228E  334F303032303536+  "3O002056"
2296  3030303930303039+  "00090009"
229E  30303133324F3030+  "00132O00"
22A6  303230303042354F+  "02000B5O"
22AE  3030313230343030+  "00120400"
22B6  304330303246334F+  "0C002F3O"
22BE  3030313230343030+  "00120400"
22C6  304430303330344F+  "0D00304O"
22CE  3030323930303042+  "0029000B"
22D6  30303044344F3030+  "000D4O00"
22DE  313630303039334F+  "1600093O"
22E6  3030303230303230+  "00020020"
22EE  3536303030393030+  "56000900"
22F6  303930303331324F+  "0900312O"
22FE  3030353430303042+  "0054000B"
2306  30303038344F3030+  "00084O00"
230E  3539303030393030+  "59000900"
2316  304230303032324F+  "0B00022O"
231E  3030343830303041+  "0048000A"
2326  30303033344F3030+  "00034O00"
232E  303230303042354F+  "02000B5O"
2336  3030313230343030+  "00120400"
233E  304330303332334F+  "0C00323O"
2346  3030313230343030+  "00120400"
234E  304430303333344F+  "0D00334O"
2356  3030353930303042+  "0059000B"
235E  3030304430303032+  "000D0002"
2366  324F303030323030+  "2O000200"
236E  3043354F30303132+  "0C5O0012"
2376  3034303030443030+  "04000D00"
237E  3334334F30303132+  "343O0012"
2386  3034303030453030+  "04000E00"
238E  3335344F30303539+  "354O0059"
2396  3030304330303045+  "000C000E"
239E  30303032324F3030+  "00022O00"
23A6  303230303044354F+  "02000D5O"
23AE  3030313230343030+  "00120400"
23B6  304530303336334F+  "0E00363O"
23BE  3030313230343030+  "00120400"
23C6  304630303337344F+  "0F00374O"
23CE  3030353930303044+  "0059000D"
23D6  3030304630303032+  "000F0002"
23DE  324F303030323030+  "2O000200"
23E6  3045354F30303132+  "0E5O0012"
23EE  3034303030463030+  "04000F00"
23F6  3338334F30303132+  "383O0012"
23FE  3034303031303030+  "04001000"
2406  3339344F30303239+  "394O0029"
240E  3030304530303130+  "000E0010"
2416  344F303032443030+  "4O002D00"
241E  3041334F30303031+  "0A3O0001"
2426  3030313230343030+  "00120400"
242E  304230303342334F+  "0B003B3O"
2436  3030313235423030+  "00125B00"
243E  304230303341334F+  "0B003A3O"
2446  3030313232423030+  "00122B00"
244E  304230303343344F+  "0B003C4O"
2456  3030353430303043+  "0054000C"
245E  30303041344F3030+  "000A4O00"
2466  3236303030443030+  "26000D00"
246E  3044334F30303034+  "0D3O0004"
2476  3043334F30304133+  "0C3O00A3"
247E  3030303130303230+  "00010020"
2486  3132303031303030+  "12001000"
248E  303930303344324F+  "09003D2O"
2496  3030353830303130+  "00580010"
249E  3030313030303046+  "0010000F"
24A6  3030303630333030+  "00060300"
24AE  3130303041333030+  "1000A300"
24B6  3031334F30303034+  "013O0004"
24BE  3043334F30304133+  "0C3O00A3"
24C6  3030303130303230+  "00010020"
24CE  3132303031303030+  "12001000"
24D6  303930303344324F+  "09003D2O"
24DE  3030353830303130+  "00580010"
24E6  3030313030303046+  "0010000F"
24EE  3030313235423030+  "00125B00"
24F6  313030303341334F+  "10003A3O"
24FE  303030343043334F+  "00040C3O"
2506  3030413530303031+  "00A50001"
250E  3030303635303030+  "00065000"
2516  3042303039423030+  "0B009B00"
251E  3031303030323030+  "01000200"
2526  30343043334F3030+  "040C3O00"
252E  3942303030313030+  "9B000100"
2536  3132324230303042+  "122B000B"
253E  30303341334F3030+  "003A3O00"
2546  3036303330303042+  "0603000B"
254E  30304438324F3031+  "00D82O01"
2556  334F303030343043+  "3O00040C"
255E  334F30304438324F+  "3O00D82O"
2566  3031303031323034+  "01001204"
256E  3030304230303345+  "000B003E"
2576  344F303032363030+  "4O002600"
257E  304330303132334F+  "0C00123O"
2586  3030323632343030+  "00262400"
258E  3042303041453030+  "0B00AE00"
2596  3031303033463030+  "01003F00"
259E  30343043334F3030+  "040C3O00"
25A6  414530303031324F+  "AE00012O"
25AE  3030323630303045+  "0026000E"
25B6  30303046334F3030+  "000F3O00"
25BE  3132303430303042+  "1204000B"
25C6  30303430334F3030+  "00403O00"
25CE  3236323430303042+  "2624000B"
25D6  3030423230303031+  "00B20001"
25DE  3030343030303034+  "00400004"
25E6  3043334F30304232+  "0C3O00B2"
25EE  30303031324F3030+  "00012O00"
25F6  3236303031303030+  "26001000"
25FE  3131334F30303132+  "113O0012"
2606  3034303030423030+  "04000B00"
260E  3431334F30303236+  "413O0026"
2616  3234303030423030+  "24000B00"
261E  4237303030313030+  "B7000100"
2626  3345303030343043+  "3E00040C"
262E  334F303042373030+  "3O00B700"
2636  3031303031323034+  "01001204"
263E  3030304330303345+  "000C003E"
2646  344F303032363030+  "4O002600"
264E  304430303044334F+  "0D000D3O"
2656  3030313230343030+  "00120400"
265E  304230303346334F+  "0B003F3O"
2666  3030323632343030+  "00262400"
266E  3042303041413030+  "0B00AA00"
2676  3031303034313030+  "01004100"
267E  30343043334F3030+  "040C3O00"
2686  414130303031324F+  "AA00012O"
268E  3030323630303132+  "00260012"
2696  30303132334F3030+  "00123O00"
269E  3236323430303043+  "2624000C"
26A6  3030433030303031+  "00C00001"
26AE  3030343130303034+  "00410004"
26B6  3043334F30304330+  "0C3O00C0"
26BE  30303031324F3030+  "00012O00"
26C6  3534303031333030+  "54001300"
26CE  3037344F30303534+  "074O0054"
26D6  3030313430303132+  "00140012"
26DE  344F303032383030+  "4O002800"
26E6  3133303030323030+  "13000200"
26EE  3031303030343043+  "0100040C"
26F6  334F30304438324F+  "3O00D82O"
26FE  3031303032363234+  "01002624"
2706  3030304330303944+  "000C009D"
270E  324F303130303346+  "2O01003F"
2716  303030343043334F+  "00040C3O"
271E  30303944324F3031+  "009D2O01"
2726  3030313230343030+  "00120400"
272E  313330303345334F+  "13003E3O"
2736  3030323632343030+  "00262400"
273E  313330303938324F+  "1300982O"
2746  3031303033453030+  "01003E00"
274E  30343043334F3030+  "040C3O00"
2756  3938324F3031324F+  "982O012O"
275E  3030343830303134+  "00480014"
2766  334F30303032324F+  "3O00022O"
276E  3030303230303135+  "00020015"
2776  354F303031323034+  "5O001204"
277E  3030313630303432+  "00160042"
2786  334F303031323034+  "3O001204"
278E  3030313730303433+  "00170043"
2796  344F303035393030+  "4O005900"
279E  3135303031373030+  "15001700"
27A6  3032303032303645+  "0200206E"
27AE  3030313430303135+  "00140015"
27B6  30303342324F3030+  "003B2O00"
27BE  303230303135354F+  "0200155O"
27C6  3030313230343030+  "00120400"
27CE  313630303434334F+  "1600443O"
27D6  3030313230343030+  "00120400"
27DE  313730303435344F+  "1700454O"
27E6  3030353930303135+  "00590015"
27EE  3030313730303032+  "00170002"
27F6  324F303034383030+  "2O004800"
27FE  313630303031344F+  "1600014O"
2806  3030343830303137+  "00480017"
280E  334F30303035324F+  "3O00052O"
2816  3030303230303138+  "00020018"
281E  354F303031323034+  "5O001204"
2826  3030313930303436+  "00190046"
282E  334F303031323034+  "3O001204"
2836  3030314130303437+  "001A0047"
283E  344F303035393030+  "4O005900"
2846  3138303031413030+  "18001A00"
284E  3032324F30303032+  "022O0002"
2856  30303139354F3030+  "00195O00"
285E  3132303430303141+  "1204001A"
2866  30303438334F3030+  "00483O00"
286E  3132303430303142+  "1204001B"
2876  30303439344F3030+  "00494O00"
287E  3539303031393030+  "59001900"
2886  314230303032324F+  "1B00022O"
288E  3030364330303137+  "006C0017"
2896  3030313830303139+  "00180019"
289E  324F303030323030+  "2O000200"
28A6  3138354F30303132+  "185O0012"
28AE  3034303031393030+  "04001900"
28B6  3441334F30303132+  "4A3O0012"
28BE  3034303031413030+  "04001A00"
28C6  3442344F30303539+  "4B4O0059"
28CE  3030313830303141+  "0018001A"
28D6  3030303230303132+  "00020012"
28DE  3242303031393030+  "2B001900"
28E6  3341344F30303643+  "3A4O006C"
28EE  3030313730303138+  "00170018"
28F6  30303139324F3030+  "00192O00"
28FE  303230303138354F+  "0200185O"
2906  3030313230343030+  "00120400"
290E  313930303443334F+  "19004C3O"
2916  3030313230343030+  "00120400"
291E  314130303444344F+  "1A004D4O"
2926  3030353930303138+  "00590018"
292E  3030314130303032+  "001A0002"
2936  324F303030323030+  "2O000200"
293E  3139354F30303132+  "195O0012"
2946  3034303031413030+  "04001A00"
294E  3445334F30303132+  "4E3O0012"
2956  3034303031423030+  "04001B00"
295E  3446344F30303539+  "4F4O0059"
2966  3030313930303142+  "0019001B"
296E  30303032324F3030+  "00022O00"
2976  3643303031373030+  "6C001700"
297E  313830303139324F+  "1800192O"
2986  3030303230303138+  "00020018"
298E  354F303031323034+  "5O001204"
2996  3030313930303530+  "00190050"
299E  334F303031323034+  "3O001204"
29A6  3030314130303531+  "001A0051"
29AE  344F303035393030+  "4O005900"
29B6  3138303031413030+  "18001A00"
29BE  3032303031323242+  "0200122B"
29C6  3030313930303532+  "00190052"
29CE  334F303031323034+  "3O001204"
29D6  3030314130303533+  "001A0053"
29DE  344F303030453030+  "4O000E00"
29E6  3139303030323030+  "19000200"
29EE  3032324F30303643+  "022O006C"
29F6  3030313730303138+  "00170018"
29FE  30303139324F3030+  "00192O00"
2A06  303230303138354F+  "0200185O"
2A0E  3030313230343030+  "00120400"
2A16  313930303534334F+  "1900543O"
2A1E  3030313230343030+  "00120400"
2A26  314130303535344F+  "1A00554O"
2A2E  3030353930303138+  "00590018"
2A36  3030314130303032+  "001A0002"
2A3E  324F303034383030+  "2O004800"
2A46  313930303037344F+  "1900074O"
2A4E  3030343830303141+  "0048001A"
2A56  334F30303033324F+  "3O00032O"
2A5E  3030303230303142+  "0002001B"
2A66  354F303031323034+  "5O001204"
2A6E  3030314330303536+  "001C0056"
2A76  334F303031323034+  "3O001204"
2A7E  3030314430303537+  "001D0057"
2A86  344F303035393030+  "4O005900"
2A8E  3142303031443030+  "1B001D00"
2A96  3032324F30303032+  "022O0002"
2A9E  30303143354F3030+  "001C5O00"
2AA6  3132303430303144+  "1204001D"
2AAE  30303538334F3030+  "00583O00"
2AB6  3132303430303145+  "1204001E"
2ABE  30303539344F3030+  "00594O00"
2AC6  3539303031433030+  "59001C00"
2ACE  314530303032324F+  "1E00022O"
2AD6  3030364330303141+  "006C001A"
2ADE  3030314230303143+  "001B001C"
2AE6  324F303030323030+  "2O000200"
2AEE  3142354F30303132+  "1B5O0012"
2AF6  3034303031433030+  "04001C00"
2AFE  3541334F30303132+  "5A3O0012"
2B06  3034303031443030+  "04001D00"
2B0E  3542344F30303539+  "5B4O0059"
2B16  3030314230303144+  "001B001D"
2B1E  3030303230303132+  "00020012"
2B26  3242303031433030+  "2B001C00"
2B2E  3543334F30303230+  "5C3O0020"
2B36  3132303031433030+  "12001C00"
2B3E  3143303030443030+  "1C000D00"
2B46  3230313230303143+  "2012001C"
2B4E  3030314330303038+  "001C0008"
2B56  3030323031323030+  "00201200"
2B5E  3143303031433030+  "1C001C00"
2B66  3544324F30303643+  "5D2O006C"
2B6E  3030314130303142+  "001A001B"
2B76  30303143324F3030+  "001C2O00"
2B7E  303230303142354F+  "02001B5O"
2B86  3030313230343030+  "00120400"
2B8E  314330303545334F+  "1C005E3O"
2B96  3030313230343030+  "00120400"
2B9E  314430303546344F+  "1D005F4O"
2BA6  3030353930303142+  "0059001B"
2BAE  3030314430303032+  "001D0002"
2BB6  3030323036453030+  "00206E00"
2BBE  3141303031423030+  "1A001B00"
2BC6  3630324F30303438+  "602O0048"
2BCE  30303142334F3030+  "001B3O00"
2BD6  3033324F30303032+  "032O0002"
2BDE  30303143354F3030+  "001C5O00"
2BE6  3132303430303144+  "1204001D"
2BEE  30303631334F3030+  "00613O00"
2BF6  3132303430303145+  "1204001E"
2BFE  30303632344F3030+  "00624O00"
2C06  3539303031433030+  "59001C00"
2C0E  314530303032324F+  "1E00022O"
2C16  3030303230303144+  "0002001D"
2C1E  354F303031323034+  "5O001204"
2C26  3030314530303633+  "001E0063"
2C2E  334F303031323034+  "3O001204"
2C36  3030314630303634+  "001F0064"
2C3E  344F303035393030+  "4O005900"
2C46  3144303031463030+  "1D001F00"
2C4E  3032324F30303643+  "022O006C"
2C56  3030314230303143+  "001B001C"
2C5E  30303144324F3030+  "001D2O00"
2C66  303230303143354F+  "02001C5O"
2C6E  3030313230343030+  "00120400"
2C76  314430303635334F+  "1D00653O"
2C7E  3030313230343030+  "00120400"
2C86  314530303636344F+  "1E00664O"
2C8E  3030353930303143+  "0059001C"
2C96  3030314530303032+  "001E0002"
2C9E  324F303036433030+  "2O006C00"
2CA6  3142303031433030+  "1B001C00"
2CAE  3032324F30303032+  "022O0002"
2CB6  30303143354F3030+  "001C5O00"
2CBE  3132303430303144+  "1204001D"
2CC6  30303637334F3030+  "00673O00"
2CCE  3132303430303145+  "1204001E"
2CD6  30303638344F3030+  "00684O00"
2CDE  3539303031433030+  "59001C00"
2CE6  3145303030323030+  "1E000200"
2CEE  3230364530303142+  "206E001B"
2CF6  3030314330303630+  "001C0060"
2CFE  324F303034383030+  "2O004800"
2D06  3143334F30303033+  "1C3O0003"
2D0E  324F303030323030+  "2O000200"
2D16  3144354F30303132+  "1D5O0012"
2D1E  3034303031453030+  "04001E00"
2D26  3639334F30303132+  "693O0012"
2D2E  3034303031463030+  "04001F00"
2D36  3641344F30303539+  "6A4O0059"
2D3E  3030314430303146+  "001D001F"
2D46  30303032324F3030+  "00022O00"
2D4E  303230303145354F+  "02001E5O"
2D56  3030313230343030+  "00120400"
2D5E  314630303642334F+  "1F006B3O"
2D66  3030313230343030+  "00120400"
2D6E  323030303643344F+  "20006C4O"
2D76  3030353930303145+  "0059001E"
2D7E  3030323030303032+  "00200002"
2D86  324F303036433030+  "2O006C00"
2D8E  3143303031443030+  "1C001D00"
2D96  3145324F30303032+  "1E2O0002"
2D9E  30303144354F3030+  "001D5O00"
2DA6  3132303430303145+  "1204001E"
2DAE  30303644334F3030+  "006D3O00"
2DB6  3132303430303146+  "1204001F"
2DBE  30303645344F3030+  "006E4O00"
2DC6  3539303031443030+  "59001D00"
2DCE  3146303030323030+  "1F000200"
2DD6  3132303430303145+  "1204001E"
2DDE  30303646334F3030+  "006F3O00"
2DE6  3132324230303146+  "122B001F"
2DEE  30303032334F3030+  "00023O00"
2DF6  3230313230303146+  "2012001F"
2DFE  3030314630303230+  "001F0020"
2E06  3030313230343030+  "00120400"
2E0E  323030303730344F+  "2000704O"
2E16  3030333130303145+  "0031001E"
2E1E  3030314530303230+  "001E0020"
2E26  324F303036433030+  "2O006C00"
2E2E  3143303031443030+  "1C001D00"
2E36  3145324F30303032+  "1E2O0002"
2E3E  30303144354F3030+  "001D5O00"
2E46  3132303430303145+  "1204001E"
2E4E  30303731334F3030+  "00713O00"
2E56  3132303430303146+  "1204001F"
2E5E  30303732344F3030+  "00724O00"
2E66  3539303031443030+  "59001D00"
2E6E  3146303030323030+  "1F000200"
2E76  3230364530303143+  "206E001C"
2E7E  3030314430303630+  "001D0060"
2E86  324F303034383030+  "2O004800"
2E8E  3144334F30303033+  "1D3O0003"
2E96  324F303030323030+  "2O000200"
2E9E  3145354F30303132+  "1E5O0012"
2EA6  3034303031463030+  "04001F00"
2EAE  3733334F30303132+  "733O0012"
2EB6  3034303032303030+  "04002000"
2EBE  3734344F30303539+  "744O0059"
2EC6  3030314530303230+  "001E0020"
2ECE  30303032324F3030+  "00022O00"
2ED6  303230303146354F+  "02001F5O"
2EDE  3030313230343030+  "00120400"
2EE6  323030303735334F+  "2000753O"
2EEE  3030313230343030+  "00120400"
2EF6  323130303736344F+  "2100764O"
2EFE  3030353930303146+  "0059001F"
2F06  3030323130303032+  "00210002"
2F0E  324F303036433030+  "2O006C00"
2F16  3144303031453030+  "1D001E00"
2F1E  3146324F30303032+  "1F2O0002"
2F26  30303145354F3030+  "001E5O00"
2F2E  3132303430303146+  "1204001F"
2F36  30303737334F3030+  "00773O00"
2F3E  3132303430303230+  "12040020"
2F46  30303738344F3030+  "00784O00"
2F4E  3539303031453030+  "59001E00"
2F56  3230303030323030+  "20000200"
2F5E  3230313230303146+  "2012001F"
2F66  3030303630303544+  "0006005D"
2F6E  324F303036433030+  "2O006C00"
2F76  3144303031453030+  "1D001E00"
2F7E  3146324F30303032+  "1F2O0002"
2F86  30303145354F3030+  "001E5O00"
2F8E  3132303430303146+  "1204001F"
2F96  30303739334F3030+  "00793O00"
2F9E  3132303430303230+  "12040020"
2FA6  30303741344F3030+  "007A4O00"
2FAE  3539303031453030+  "59001E00"
2FB6  3230303030323030+  "20000200"
2FBE  3230364530303144+  "206E001D"
2FC6  3030314530303630+  "001E0060"
2FCE  324F303034383030+  "2O004800"
2FD6  3145334F30303033+  "1E3O0003"
2FDE  324F303030323030+  "2O000200"
2FE6  3146354F30303132+  "1F5O0012"
2FEE  3034303032303030+  "04002000"
2FF6  3742334F30303132+  "7B3O0012"
2FFE  3034303032313030+  "04002100"
3006  3743344F30303539+  "7C4O0059"
300E  3030314630303231+  "001F0021"
3016  30303032324F3030+  "00022O00"
301E  303230303230354F+  "0200205O"
3026  3030313230343030+  "00120400"
302E  323130303744334F+  "21007D3O"
3036  3030313230343030+  "00120400"
303E  323230303745344F+  "22007E4O"
3046  3030353930303230+  "00590020"
304E  3030323230303032+  "00220002"
3056  324F303036433030+  "2O006C00"
305E  3145303031463030+  "1E001F00"
3066  3230324F30303032+  "202O0002"
306E  30303146354F3030+  "001F5O00"
3076  3132303430303230+  "12040020"
307E  30303746334F3030+  "007F3O00"
3086  3132303430303231+  "12040021"
308E  30303830344F3030+  "00804O00"
3096  3539303031463030+  "59001F00"
309E  3231303030323030+  "21000200"
30A6  3132324230303230+  "122B0020"
30AE  30303132334F3030+  "00123O00"
30B6  3230313230303230+  "20120020"
30BE  3030323030303142+  "0020001B"
30C6  324F303036433030+  "2O006C00"
30CE  3145303031463030+  "1E001F00"
30D6  3230324F30303032+  "202O0002"
30DE  30303146354F3030+  "001F5O00"
30E6  3132303430303230+  "12040020"
30EE  30303831334F3030+  "00813O00"
30F6  3132303430303231+  "12040021"
30FE  30303832344F3030+  "00824O00"
3106  3539303031463030+  "59001F00"
310E  3231303030323030+  "21000200"
3116  3230364530303145+  "206E001E"
311E  3030314630303630+  "001F0060"
3126  324F303034383030+  "2O004800"
312E  3146334F30303033+  "1F3O0003"
3136  324F303030323030+  "2O000200"
313E  3230354F30303132+  "205O0012"
3146  3034303032313030+  "04002100"
314E  3833334F30303132+  "833O0012"
3156  3034303032323030+  "04002200"
315E  3834344F30303539+  "844O0059"
3166  3030323030303232+  "00200022"
316E  30303032324F3030+  "00022O00"
3176  303230303231354F+  "0200215O"
317E  3030313230343030+  "00120400"
3186  323230303835334F+  "2200853O"
318E  3030313230343030+  "00120400"
3196  323330303836344F+  "2300864O"
319E  3030353930303231+  "00590021"
31A6  3030323330303032+  "00230002"
31AE  324F303036433030+  "2O006C00"
31B6  3146303032303030+  "1F002000"
31BE  3231324F30303032+  "212O0002"
31C6  30303230354F3030+  "00205O00"
31CE  3132303430303231+  "12040021"
31D6  30303837334F3030+  "00873O00"
31DE  3132303430303232+  "12040022"
31E6  30303838344F3030+  "00884O00"
31EE  3539303032303030+  "59002000"
31F6  323230303032324F+  "2200022O"
31FE  3030364330303146+  "006C001F"
3206  3030323030303033+  "00200003"
320E  324F303030323030+  "2O000200"
3216  3230354F30303132+  "205O0012"
321E  3034303032313030+  "04002100"
3226  3839334F30303132+  "893O0012"
322E  3034303032323030+  "04002200"
3236  3841344F30303539+  "8A4O0059"
323E  3030323030303232+  "00200022"
3246  3030303230303230+  "00020020"
324E  3645303031463030+  "6E001F00"
3256  323030303630324F+  "2000602O"
325E  3030343830303230+  "00480020"
3266  334F30303033324F+  "3O00032O"
326E  3030303230303231+  "00020021"
3276  354F303031323034+  "5O001204"
327E  3030323230303842+  "0022008B"
3286  334F303031323034+  "3O001204"
328E  3030323330303843+  "0023008C"
3296  344F303035393030+  "4O005900"
329E  3231303032333030+  "21002300"
32A6  3032324F30303032+  "022O0002"
32AE  30303232354F3030+  "00225O00"
32B6  3132303430303233+  "12040023"
32BE  30303844334F3030+  "008D3O00"
32C6  3132303430303234+  "12040024"
32CE  30303845344F3030+  "008E4O00"
32D6  3539303032323030+  "59002200"
32DE  323430303032324F+  "2400022O"
32E6  3030364330303230+  "006C0020"
32EE  3030323130303232+  "00210022"
32F6  324F303030323030+  "2O000200"
32FE  3231354F30303132+  "215O0012"
3306  3034303032323030+  "04002200"
330E  3846334F30303132+  "8F3O0012"
3316  3034303032333030+  "04002300"
331E  3930344F30303539+  "904O0059"
3326  3030323130303233+  "00210023"
332E  30303032324F3030+  "00022O00"
3336  3643303032303030+  "6C002000"
333E  323130303034324F+  "2100042O"
3346  3030303230303231+  "00020021"
334E  354F303031323034+  "5O001204"
3356  3030323230303931+  "00220091"
335E  334F303031323034+  "3O001204"
3366  3030323330303932+  "00230092"
336E  344F303035393030+  "4O005900"
3376  3231303032333030+  "21002300"
337E  3032303032303645+  "0200206E"
3386  3030323030303231+  "00200021"
338E  30303630324F3030+  "00602O00"
3396  3544303031393030+  "5D001900"
339E  303730303031324F+  "0700012O"
33A6  3030364330303137+  "006C0017"
33AE  3030313830303139+  "00180019"
33B6  324F303035443030+  "2O005D00"
33BE  3136303030313030+  "16000100"
33C6  3031324F30303643+  "012O006C"
33CE  3030313430303135+  "00140015"
33D6  30303136324F3030+  "00162O00"
33DE  3534303030463030+  "54000F00"
33E6  3134334F30303230+  "143O0020"
33EE  3536303031343030+  "56001400"
33F6  304430303933324F+  "0D00932O"
33FE  3030353430303136+  "00540016"
3406  30303046344F3030+  "000F4O00"
340E  3539303031343030+  "59001400"
3416  313630303032324F+  "1600022O"
341E  3030353430303130+  "00540010"
3426  30303134334F3030+  "00143O00"
342E  3132303430303133+  "12040013"
3436  30303346334F3030+  "003F3O00"
343E  3236323430303133+  "26240013"
3446  3030433330303031+  "00C30001"
344E  3030334630303034+  "003F0004"
3456  3043334F30304333+  "0C3O00C3"
345E  3030303130303132+  "00010012"
3466  3034303030433030+  "04000C00"
346E  3430334F30303034+  "403O0004"
3476  3043334F30303944+  "0C3O009D"
347E  324F303130303034+  "2O010004"
3486  3043334F30304333+  "0C3O00C3"
348E  3030303130303236+  "00010026"
3496  3234303030433030+  "24000C00"
349E  4231324F30313030+  "B12O0100"
34A6  3345303030343043+  "3E00040C"
34AE  334F30304231324F+  "3O00B12O"
34B6  3031303031323034+  "01001204"
34BE  3030313330303345+  "0013003E"
34C6  334F303032363234+  "3O002624"
34CE  3030313330304143+  "001300AC"
34D6  324F303130303345+  "2O01003E"
34DE  303030343043334F+  "00040C3O"
34E6  30304143324F3031+  "00AC2O01"
34EE  3030313232423030+  "00122B00"
34F6  313430303032334F+  "1400023O"
34FE  3030323035363030+  "00205600"
3506  3134303031343030+  "14001400"
350E  3133324F30303032+  "132O0002"
3516  30303136354F3030+  "00165O00"
351E  3132303430303137+  "12040017"
3526  30303934334F3030+  "00943O00"
352E  3132303430303138+  "12040018"
3536  30303935344F3030+  "00954O00"
353E  3239303031363030+  "29001600"
3546  3138344F30303136+  "184O0016"
354E  30303134334F3030+  "00143O00"
3556  3032324F30303534+  "022O0054"
355E  3030304430303134+  "000D0014"
3566  334F303031323034+  "3O001204"
356E  3030304530303936+  "000E0096"
3576  334F303031323034+  "3O001204"
357E  3030313330303346+  "0013003F"
3586  334F303030453233+  "3O000E23"
358E  3030334630304130+  "003F00A0"
3596  324F303130303133+  "2O010013"
359E  303030343043334F+  "00040C3O"
35A6  30304130324F3031+  "00A02O01"
35AE  3030313230343030+  "00120400"
35B6  304330303346334F+  "0C003F3O"
35BE  303030343043334F+  "00040C3O"
35C6  30304231324F3031+  "00B12O01"
35CE  303030343043334F+  "00040C3O"
35D6  30304130324F3031+  "00A02O01"
35DE  3030323632343030+  "00262400"
35E6  3043303042413030+  "0C00BA00"
35EE  3031303034303030+  "01004000"
35F6  30343043334F3030+  "040C3O00"
35FE  424130303031324F+  "BA00012O"
3606  3030343830303133+  "00480013"
360E  334F30303031324F+  "3O00012O"
3616  3030303230303134+  "00020014"
361E  354F303031323034+  "5O001204"
3626  3030313530303937+  "00150097"
362E  334F303031323034+  "3O001204"
3636  3030313630303938+  "00160098"
363E  344F303035393030+  "4O005900"
3646  3134303031363030+  "14001600"
364E  3032303032303645+  "0200206E"
3656  3030313330303134+  "00130014"
365E  30303939324F3030+  "00992O00"
3666  3534303031313030+  "54001100"
366E  3133344F30303438+  "134O0048"
3676  30303133334F3030+  "00133O00"
367E  3034324F30303032+  "042O0002"
3686  30303134354F3030+  "00145O00"
368E  3132303430303135+  "12040015"
3696  30303941334F3030+  "009A3O00"
369E  3132303430303136+  "12040016"
36A6  30303942344F3030+  "009B4O00"
36AE  3539303031343030+  "59001400"
36B6  313630303032324F+  "1600022O"
36BE  3030364330303133+  "006C0013"
36C6  3030313430303045+  "0014000E"
36CE  324F303030323030+  "2O000200"
36D6  3134354F30303132+  "145O0012"
36DE  3034303031353030+  "04001500"
36E6  3943334F30303132+  "9C3O0012"
36EE  3034303031363030+  "04001600"
36F6  3944344F30303539+  "9D4O0059"
36FE  3030313430303136+  "00140016"
3706  30303032324F3030+  "00022O00"
370E  3643303031333030+  "6C001300"
3716  313430303130324F+  "1400102O"
371E  3030303230303134+  "00020014"
3726  354F303031323034+  "5O001204"
372E  3030313530303945+  "0015009E"
3736  334F303031323034+  "3O001204"
373E  3030313630303946+  "0016009F"
3746  344F303035393030+  "4O005900"
374E  3134303031363030+  "14001600"
3756  3032324F30303032+  "022O0002"
375E  30303135354F3030+  "00155O00"
3766  3132303430303136+  "12040016"
376E  30304130334F3030+  "00A03O00"
3776  3132303430303137+  "12040017"
377E  30304131344F3030+  "00A14O00"
3786  3539303031353030+  "59001500"
378E  313730303032324F+  "1700022O"
3796  3030364330303133+  "006C0013"
379E  3030313430303135+  "00140015"
37A6  324F303030323030+  "2O000200"
37AE  3134354F30303132+  "145O0012"
37B6  3034303031353030+  "04001500"
37BE  4132334F30303132+  "A23O0012"
37C6  3034303031363030+  "04001600"
37CE  4133344F30303539+  "A34O0059"
37D6  3030313430303136+  "00140016"
37DE  30303032324F3030+  "00022O00"
37E6  3643303031333030+  "6C001300"
37EE  313430303131324F+  "1400112O"
37F6  3030353430303132+  "00540012"
37FE  30303133334F3030+  "00133O00"
3806  3132303430303043+  "1204000C"
380E  30303431334F3030+  "00413O00"
3816  30343043334F3030+  "040C3O00"
381E  4241303030313030+  "BA000100"
3826  30343043334F3030+  "040C3O00"
382E  4438324F30313030+  "D82O0100"
3836  30343043334F3030+  "040C3O00"
383E  4141303030313030+  "AA000100"
3846  3132324230303042+  "122B000B"
384E  30304134344F3030+  "00A44O00"
3856  3731303030423030+  "71000B00"
385E  3031303030313030+  "01000100"
3866  3132324230303042+  "122B000B"
386E  30303032334F3030+  "00023O00"
3876  3230353630303042+  "2056000B"
387E  3030304230304135+  "000B00A5"
3886  324F303030453030+  "2O000E00"
388E  3042303030323030+  "0B000200"
3896  3032303030363033+  "02000603"
389E  3030304230304438+  "000B00D8"
38A6  324F3031334F3030+  "2O013O00"
38AE  30343043334F3030+  "040C3O00"
38B6  4438324F30313030+  "D82O0100"
38BE  3132324230303042+  "122B000B"
38C6  30304134344F3030+  "00A44O00"
38CE  3731303030423030+  "71000B00"
38D6  3031303030313030+  "01000100"
38DE  3132324230303042+  "122B000B"
38E6  30303032334F3030+  "00023O00"
38EE  3230353630303042+  "2056000B"
38F6  3030304230303133+  "000B0013"
38FE  324F303030323030+  "2O000200"
3906  3044354F30303132+  "0D5O0012"
390E  3034303030453030+  "04000E00"
3916  4136334F30303132+  "A63O0012"
391E  3034303030463030+  "04000F00"
3926  4137344F30303239+  "A74O0029"
392E  3030304430303046+  "000D000F"
3936  344F303031363030+  "4O001600"
393E  3042334F30303032+  "0B3O0002"
3946  3030323031323030+  "00201200"
394E  3042303030423030+  "0B000B00"
3956  3038303032303132+  "08002012"
395E  3030304230303042+  "000B000B"
3966  3030413830303230+  "00A80020"
396E  3536303030423030+  "56000B00"
3976  3042303041393030+  "0B00A900"
397E  3036343530303044+  "0645000D"
3986  3030303130303031+  "00010001"
398E  30303031324F3030+  "00012O00"
3996  3642384F30303333+  "6B8O0033"
399E  3030304230303044+  "000B000D"
39A6  3030303130303132+  "00010012"
39AE  3242303030423030+  "2B000B00"
39B6  3032334F30303230+  "023O0020"
39BE  3132303030423030+  "12000B00"
39C6  3042303030443030+  "0B000D00"
39CE  3230313230303042+  "2012000B"
39D6  3030304230303038+  "000B0008"
39DE  3030313232423030+  "00122B00"
39E6  304330304141334F+  "0C00AA3O"
39EE  3030323031323030+  "00201200"
39F6  3043303030433030+  "0C000C00"
39FE  4142303031323242+  "AB00122B"
3A06  3030304430304144+  "000D00AD"
3A0E  334F303032303132+  "3O002012"
3A16  3030304430303044+  "000D000D"
3A1E  30304145324F3030+  "00AE2O00"
3A26  303230303045354F+  "02000E5O"
3A2E  3030313230343030+  "00120400"
3A36  304630304146334F+  "0F00AF3O"
3A3E  3030313230343030+  "00120400"
3A46  313030304230344F+  "1000B04O"
3A4E  3030323930303045+  "0029000E"
3A56  30303130344F3030+  "00104O00"
3A5E  313630303044334F+  "16000D3O"
3A66  3030303230303132+  "00020012"
3A6E  3542303030443030+  "5B000D00"
3A76  4143334F30303132+  "AC3O0012"
3A7E  3242303030443030+  "2B000D00"
3A86  4143334F30303330+  "AC3O0030"
3A8E  3141303030443030+  "1A000D00"
3A96  4231303036303030+  "B1006000"
3A9E  3132324230303044+  "122B000D"
3AA6  30304143334F3030+  "00AC3O00"
3AAE  3132324230303045+  "122B000E"
3AB6  30304233334F3030+  "00B33O00"
3ABE  3130333930303044+  "1039000D"
3AC6  3030423230303045+  "00B2000E"
3ACE  3030313232423030+  "00122B00"
3AD6  304430304143344F+  "0D00AC4O"
3ADE  3030303230303045+  "0002000E"
3AE6  354F303031323034+  "5O001204"
3AEE  3030304630304234+  "000F00B4"
3AF6  334F303031323034+  "3O001204"
3AFE  3030313030304235+  "001000B5"
3B06  344F303035393030+  "4O005900"
3B0E  3045303031303030+  "0E001000"
3B16  3032303031303339+  "02001039"
3B1E  3030304430303544+  "000D005D"
3B26  3030304530303132+  "000E0012"
3B2E  3242303030443030+  "2B000D00"
3B36  4143334F30303132+  "AC3O0012"
3B3E  3242303030453030+  "2B000E00"
3B46  4237334F30303230+  "B73O0020"
3B4E  3132303030453030+  "12000E00"
3B56  3045303041453030+  "0E00AE00"
3B5E  3132303430303046+  "1204000F"
3B66  30304238334F3030+  "00B83O00"
3B6E  3132303430303130+  "12040010"
3B76  30303431334F3030+  "00413O00"
3B7E  3132303430303131+  "12040011"
3B86  30304239344F3030+  "00B94O00"
3B8E  3539303030453030+  "59000E00"
3B96  3131303030323030+  "11000200"
3B9E  3130333930303044+  "1039000D"
3BA6  3030423630303045+  "00B6000E"
3BAE  3030313232423030+  "00122B00"
3BB6  304430304143334F+  "0D00AC3O"
3BBE  3030313232423030+  "00122B00"
3BC6  304530304241334F+  "0E00BA3O"
3BCE  3030323031323030+  "00201200"
3BD6  3045303030453030+  "0E000E00"
3BDE  4145303031323034+  "AE001204"
3BE6  3030304630304242+  "000F00BB"
3BEE  334F303031323034+  "3O001204"
3BF6  3030313030304242+  "001000BB"
3BFE  334F303031323034+  "3O001204"
3C06  3030313130304242+  "001100BB"
3C0E  344F303035393030+  "4O005900"
3C16  3045303031313030+  "0E001100"
3C1E  3032303031303339+  "02001039"
3C26  3030304430304241+  "000D00BA"
3C2E  3030304530303132+  "000E0012"
3C36  3034303030443030+  "04000D00"
3C3E  3345334F30303132+  "3E3O0012"
3C46  3242303030453030+  "2B000E00"
3C4E  4134344F30303731+  "A44O0071"
3C56  3030304530303031+  "000E0001"
3C5E  3030303130303132+  "00010012"
3C66  3242303030453030+  "2B000E00"
3C6E  3032334F30303230+  "023O0020"
3C76  3536303030453030+  "56000E00"
3C7E  304530304135324F+  "0E00A52O"
3C86  3030304530303045+  "000E000E"
3C8E  3030303230303032+  "00020002"
3C96  3030303630333030+  "00060300"
3C9E  3045303031373032+  "0E001702"
3CA6  3031334F30303034+  "013O0004"
3CAE  3043334F30303137+  "0C3O0017"
3CB6  3032303130303132+  "02010012"
3CBE  3242303030453030+  "2B000E00"
3CC6  4134344F30303731+  "A44O0071"
3CCE  3030304530303031+  "000E0001"
3CD6  3030303130303132+  "00010012"
3CDE  3242303030453030+  "2B000E00"
3CE6  3032334F30303230+  "023O0020"
3CEE  3536303030453030+  "56000E00"
3CF6  304530303133324F+  "0E00132O"
3CFE  3030303230303130+  "00020010"
3D06  354F303031323034+  "5O001204"
3D0E  3030313130304243+  "001100BC"
3D16  334F303031323034+  "3O001204"
3D1E  3030313230304244+  "001200BD"
3D26  344F303032393030+  "4O002900"
3D2E  313030303132344F+  "1000124O"
3D36  3030313630303045+  "0016000E"
3D3E  334F303030323030+  "3O000200"
3D46  3230313230303045+  "2012000E"
3D4E  3030304530303038+  "000E0008"
3D56  3030323031323030+  "00201200"
3D5E  3045303030453030+  "0E000E00"
3D66  4138303032303536+  "A8002056"
3D6E  3030304530303045+  "000E000E"
3D76  3030413930303036+  "00A90006"
3D7E  3435303031303030+  "45001000"
3D86  3032303030313030+  "02000100"
3D8E  3031324F30303642+  "012O006B"
3D96  384F303033333030+  "8O003300"
3D9E  3045303031303030+  "0E001000"
3DA6  3031303031323242+  "0100122B"
3DAE  3030304530303032+  "000E0002"
3DB6  334F303032303132+  "3O002012"
3DBE  3030304530303045+  "000E000E"
3DC6  3030304430303230+  "000D0020"
3DCE  3132303030453030+  "12000E00"
3DD6  3045303030383030+  "0E000800"
3DDE  3132324230303046+  "122B000F"
3DE6  30304141334F3030+  "00AA3O00"
3DEE  3230313230303046+  "2012000F"
3DF6  3030304630304142+  "000F00AB"
3DFE  3030313232423030+  "00122B00"
3E06  313030304144334F+  "1000AD3O"
3E0E  3030323031323030+  "00201200"
3E16  3130303031303030+  "10001000"
3E1E  4145324F30303032+  "AE2O0002"
3E26  30303131354F3030+  "00115O00"
3E2E  3132303430303132+  "12040012"
3E36  30304245334F3030+  "00BE3O00"
3E3E  3132303430303133+  "12040013"
3E46  30304246344F3030+  "00BF4O00"
3E4E  3239303031313030+  "29001100"
3E56  3133344F30303136+  "134O0016"
3E5E  30303130334F3030+  "00103O00"
3E66  3032303031323542+  "0200125B"
3E6E  3030313030304143+  "001000AC"
3E76  334F303031323242+  "3O00122B"
3E7E  3030313030304143+  "001000AC"
3E86  334F303033303141+  "3O00301A"
3E8E  3030313030304231+  "001000B1"
3E96  3030363030303132+  "00600012"
3E9E  3242303031303030+  "2B001000"
3EA6  4143334F30303132+  "AC3O0012"
3EAE  3242303031313030+  "2B001100"
3EB6  4233334F30303130+  "B33O0010"
3EBE  3339303031303030+  "39001000"
3EC6  4232303031313030+  "B2001100"
3ECE  3132324230303130+  "122B0010"
3ED6  30304143344F3030+  "00AC4O00"
3EDE  303230303131354F+  "0200115O"
3EE6  3030313230343030+  "00120400"
3EEE  313230304330334F+  "1200C03O"
3EF6  3030313230343030+  "00120400"
3EFE  313330304331344F+  "1300C14O"
3F06  3030353930303131+  "00590011"
3F0E  3030313330303032+  "00130002"
3F16  3030313033393030+  "00103900"
3F1E  3130303035443030+  "10005D00"
3F26  3131303031323242+  "1100122B"
3F2E  3030313030304143+  "001000AC"
3F36  334F303031323242+  "3O00122B"
3F3E  3030313130304237+  "001100B7"
3F46  334F303032303132+  "3O002012"
3F4E  3030313130303131+  "00110011"
3F56  3030414530303132+  "00AE0012"
3F5E  3034303031323030+  "04001200"
3F66  4238334F30303132+  "B83O0012"
3F6E  3034303031333030+  "04001300"
3F76  3431334F30303132+  "413O0012"
3F7E  3034303031343030+  "04001400"
3F86  4239344F30303539+  "B94O0059"
3F8E  3030313130303134+  "00110014"
3F96  3030303230303130+  "00020010"
3F9E  3339303031303030+  "39001000"
3FA6  4236303031313030+  "B6001100"
3FAE  3132324230303130+  "122B0010"
3FB6  30304143334F3030+  "00AC3O00"
3FBE  3132324230303131+  "122B0011"
3FC6  30304241334F3030+  "00BA3O00"
3FCE  3230313230303131+  "20120011"
3FD6  3030313130304145+  "001100AE"
3FDE  3030313230343030+  "00120400"
3FE6  313230304242334F+  "1200BB3O"
3FEE  3030313230343030+  "00120400"
3FF6  313330304242334F+  "1300BB3O"
3FFE  3030313230343030+  "00120400"
4006  313430304242344F+  "1400BB4O"
400E  3030353930303131+  "00590011"
4016  3030313430303032+  "00140002"
401E  3030313033393030+  "00103900"
4026  3130303042413030+  "1000BA00"
402E  3131303030363435+  "11000645"
4036  3030313030303033+  "00100003"
403E  3030303130303032+  "00010002"
4046  324F30303642384F+  "2O006B8O"
404E  30303436334F3030+  "00463O00"
4056  3044334F30303132+  "0D3O0012"
405E  3242303031313030+  "2B001100"
4066  4332334F30303230+  "C23O0020"
406E  3132303031313030+  "12001100"
4076  3131303043333030+  "1100C300"
407E  3036343530303132+  "06450012"
4086  3030303430303031+  "00040001"
408E  30303031324F3030+  "00012O00"
4096  3436334F30303130+  "463O0010"
409E  344F303030453030+  "4O000E00"
40A6  3131303030323030+  "11000200"
40AE  3032324F30303731+  "022O0071"
40B6  3030313130303031+  "00110001"
40BE  30303031324F3030+  "00012O00"
40C6  313430303031354F+  "1400015O"
40CE  303030343043334F+  "00040C3O"
40D6  3030363130323031+  "00610201"
40DE  3030323031323030+  "00201200"
40E6  3031334F30303346+  "013O003F"
40EE  324F30303641334F+  "2O006A3O"
40F6  30303031334F3030+  "00013O00"
40FE  3035334F30303041+  "053O000A"
4106  334F303030333041+  "3O00030A"
410E  334F303032414245+  "3O002ABE"
4116  4341323833324635+  "CA2832F5"
411E  4644333831444146+  "FD381DAF"
4126  30333038334F3030+  "03083O00"
412E  3537373943414142+  "5779CAAB"
4136  3543343738364245+  "5C4786BE"
413E  3032364F30303639+  "026O0069"
4146  343030333034334F+  "4003043O"
414E  3030304243453238+  "000BCE28"
4156  393130333034334F+  "9103043O"
415E  3030453834394131+  "00E849A1"
4166  344330333037334F+  "4C03073O"
416E  3030373236353731+  "00726571"
4176  3735363537333734+  "75657374"
417E  324F3033334F3030+  "2O033O00"
4186  3535373236433033+  "55726C03"
418E  3036334F30303444+  "063O004D"
4196  3635373436383646+  "6574686F"
419E  363430333034334F+  "6403043O"
41A6  3030343236463634+  "00426F64"
41AE  37393033344F3030+  "79034O00"
41B6  30313135344F3030+  "01154O00"
41BE  343830303031334F+  "4800013O"
41C6  30303032324F3030+  "00022O00"
41CE  303230303032354F+  "0200025O"
41D6  3030313230343030+  "00120400"
41DE  303330303031334F+  "0300013O"
41E6  3030313230343030+  "00120400"
41EE  303430303032344F+  "0400024O"
41F6  3030353930303032+  "00590002"
41FE  3030303430303032+  "00040002"
4206  3030323036453030+  "00206E00"
420E  3031303030323030+  "01000200"
4216  3033324F30303032+  "032O0002"
421E  30303032354F3030+  "00025O00"
4226  3132303430303033+  "12040003"
422E  30303034334F3030+  "00043O00"
4236  3132303430303034+  "12040004"
423E  30303035344F3030+  "00054O00"
4246  3539303030323030+  "59000200"
424E  3034303030323030+  "04000200"
4256  3132324230303033+  "122B0003"
425E  30303036334F3030+  "00063O00"
4266  3230313230303034+  "20120004"
426E  334F303030373030+  "3O000700"
4276  3230313230303035+  "20120005"
427E  334F303030383030+  "3O000800"
4286  3230313230303036+  "20120006"
428E  334F303030393030+  "3O000900"
4296  3036363930303036+  "06690006"
429E  3030313130303031+  "00110001"
42A6  3030303130303034+  "00010004"
42AE  3043334F30303131+  "0C3O0011"
42B6  3030303130303132+  "00010012"
42BE  3034303030363030+  "04000600"
42C6  3041344F30303539+  "0A4O0059"
42CE  3030303330303036+  "00030006"
42D6  30303032324F3030+  "00022O00"
42DE  3643303030313030+  "6C000100"
42E6  303230303033324F+  "0200032O"
42EE  3030323130303031+  "00210001"
42F6  30303032344F3030+  "00024O00"
42FE  3641334F30303031+  "6A3O0001"
4306  374F30303037334F+  "7O00073O"
430E  303030333034334F+  "0003043O"
4316  3030363736313644+  "0067616D"
431E  363530333041334F+  "65030A3O"
4326  3030343736353734+  "00476574"
432E  3533363537323736+  "53657276"
4336  3639363336353033+  "69636503"
433E  3042334F30303144+  "0B3O001D"
4346  383532324238324F+  "8522B82O"
434E  4243334131453946+  "BC3A1E9F"
4356  3335424530333037+  "35BE0307"
435E  334F303035363442+  "3O00564B"
4366  4543353043434339+  "EC50CCC9"
436E  444430333043334F+  "DD030C3O"
4376  3030343336433639+  "00436C69"
437E  3633364234323735+  "636B4275"
4386  324F373436463645+  "2O746F6E"
438E  333230333037334F+  "3203073O"
4396  3030353636353633+  "00566563"
439E  3734364637323332+  "746F7232"
43A6  324F3033334F3030+  "2O033O00"
43AE  3645363537373030+  "6E657700"
43B6  3044334F30303132+  "0D3O0012"
43BE  3242334F30303031+  "2B3O0001"
43C6  334F303032303536+  "3O002056"
43CE  354F30303032324F+  "5O00022O"
43D6  3030303230303032+  "00020002"
43DE  354F303031323034+  "5O001204"
43E6  3030303330303033+  "00030003"
43EE  334F303031323034+  "3O001204"
43F6  3030303430303034+  "00040004"
43FE  344F303032393030+  "4O002900"
4406  303230303034344F+  "0200044O"
440E  30303136354F3030+  "00165O00"
4416  3032303032303536+  "02002056"
441E  354F303030353030+  "5O000500"
4426  3132324230303032+  "122B0002"
442E  30303036334F3030+  "00063O00"
4436  3230313230303032+  "20120002"
443E  3030303230303037+  "00020007"
4446  324F303035323030+  "2O005200"
444E  303230303031344F+  "0200014O"
4456  30303437354F3030+  "00475O00"
445E  3031324F30303641+  "012O006A"
4466  334F30303031374F+  "3O00017O"
446E  30303037334F3030+  "00073O00"
4476  30333034334F3030+  "03043O00"
447E  3637363136443635+  "67616D65"
4486  30333041334F3030+  "030A3O00"
448E  3437363537343533+  "47657453"
4496  3635373237363639+  "65727669"
449E  3633363530333042+  "6365030B"
44A6  334F303033373342+  "3O00373B"
44AE  3134324534383030+  "142E4800"
44B6  3345333332393538+  "3E332958"
44BE  313330333035334F+  "1303053O"
44C6  3030334436313532+  "003D6152"
44CE  3636354130333043+  "665A030C"
44D6  334F303034333643+  "3O00436C"
44DE  3639363336423432+  "69636B42"
44E6  3735324F37343646+  "752O746F"
44EE  3645333230333037+  "6E320307"
44F6  334F303035363635+  "3O005665"
44FE  3633373436463732+  "63746F72"
4506  3332324F3033334F+  "322O033O"
450E  3030364536353737+  "006E6577"
4516  30303044334F3030+  "000D3O00"
451E  31323242334F3030+  "122B3O00"
4526  3031334F30303230+  "013O0020"
452E  3536354F30303032+  "565O0002"
4536  324F303030323030+  "2O000200"
453E  3032354F30303132+  "025O0012"
4546  3034303030333030+  "04000300"
454E  3033334F30303132+  "033O0012"
4556  3034303030343030+  "04000400"
455E  3034344F30303239+  "044O0029"
4566  3030303230303034+  "00020004"
456E  344F30303136354F+  "4O00165O"
4576  3030303230303230+  "00020020"
457E  3536354F30303035+  "565O0005"
4586  3030313232423030+  "00122B00"
458E  303230303036334F+  "0200063O"
4596  3030323031323030+  "00201200"
459E  3032303030323030+  "02000200"
45A6  3037324F30303532+  "072O0052"
45AE  3030303230303031+  "00020001"
45B6  344F30303437354F+  "4O00475O"
45BE  30303031324F3030+  "00012O00"
45C6  3641334F30303031+  "6A3O0001"
45CE  374F30303031334F+  "7O00013O"
45D6  303030333035334F+  "0003053O"
45DE  3030373036333631+  "00706361"
45E6  324F364330313037+  "2O6C0107"
45EE  334F303031323242+  "3O00122B"
45F6  3030303130303031+  "00010001"
45FE  334F303030363435+  "3O000645"
4606  30303032334F3030+  "00023O00"
460E  303130303033324F+  "0100032O"
4616  30303642384F3030+  "006B8O00"
461E  3642334F30303031+  "6B3O0001"
4626  344F30303436384F+  "4O00468O"
462E  3030323830303031+  "00280001"
4636  3030303230303031+  "00020001"
463E  324F30303641334F+  "2O006A3O"
4646  30303031334F3030+  "00013O00"
464E  3031334F30303145+  "013O001E"
4656  334F30303032384F+  "3O00028O"
465E  30303032364F3030+  "00026O00"
4666  463033463032364F+  "F03F026O"
466E  3030373934303033+  "00794003"
4676  3035334F30303730+  "053O0070"
467E  3631363937323733+  "61697273"
4686  30333034334F3030+  "03043O00"
468E  3637363136443635+  "67616D65"
4696  30333041334F3030+  "030A3O00"
469E  3437363537343533+  "47657453"
46A6  3635373237363639+  "65727669"
46AE  3633363530333039+  "63650309"
46B6  344F303035344344+  "4O0054CD"
46BE  3232393334363546+  "2293465F"
46C6  3334354530333037+  "345E0307"
46CE  334F303033453537+  "3O003E57"
46D6  3342424634394530+  "3BBF49E0"
46DE  333630333042334F+  "36030B3O"
46E6  3030343336383631+  "00436861"
46EE  3732353337343646+  "7253746F"
46F6  3732363136373635+  "72616765"
46FE  30333045334F3030+  "030E3O00"
4706  3444364636453733+  "4D6F6E73"
470E  3734363537323533+  "74657253"
4716  3734364637323631+  "746F7261"
471E  3637363530333042+  "6765030B"
4726  334F303034373635+  "3O004765"
472E  3734343336383639+  "74436869"
4736  3643363437323635+  "6C647265"
473E  364530333034334F+  "6E03043O"
4746  3030344536313644+  "004E616D"
474E  363530333036334F+  "6503063O"
4756  3030444430374634+  "00DD07F4"
475E  43364631324F3033+  "C6F12O03"
4766  3034334F30304139+  "043O00A9"
476E  3837363239413033+  "87629A03"
4776  3035334F30303730+  "053O0070"
477E  3732363936453734+  "72696E74"
4786  30333035334F3030+  "03053O00"
478E  373036333631324F+  "7063612O"
4796  364330333039334F+  "6C03093O"
479E  3030343336383631+  "00436861"
47A6  3732363136333734+  "72616374"
47AE  3635373230333130+  "65720310"
47B6  334F303034383735+  "3O004875"
47BE  3644363136453646+  "6D616E6F"
47C6  363936343532324F+  "6964522O"
47CE  3646373435303631+  "6F745061"
47D6  3732373430333036+  "72740306"
47DE  334F303034333436+  "3O004346"
47E6  3732363136443635+  "72616D65"
47EE  30333035334F3030+  "03053O00"
47F6  3730363137323734+  "70617274"
47FE  3333324F3033334F+  "332O033O"
4806  3030364536353737+  "006E6577"
480E  3032364F30303331+  "026O0031"
4816  343030333037334F+  "4003073O"
481E  3030353036433631+  "00506C61"
4826  3739363537323733+  "79657273"
482E  30333042334F3030+  "030B3O00"
4836  3443364636333631+  "4C6F6361"
483E  3643353036433631+  "6C506C61"
4846  3739363537323032+  "79657202"
484E  364F303033443430+  "6O003D40"
4856  3032354F30304630+  "025O00F0"
485E  383234303032354F+  "8240025O"
4866  3030323035343430+  "00205440"
486E  30333135334F3030+  "03153O00"
4876  3434363937333734+  "44697374"
487E  3631364536333635+  "616E6365"
4886  3436373236463644+  "46726F6D"
488E  3433363836313732+  "43686172"
4896  3631363337343635+  "61637465"
489E  373230333037334F+  "7203073O"
48A6  3030353636353633+  "00566563"
48AE  3734364637323333+  "746F7233"
48B6  3032364F30303534+  "026O0054"
48BE  343030303645334F+  "40006E3O"
48C6  303031323034334F+  "0012043O"
48CE  30303031344F3030+  "00014O00"
48D6  3236303030313030+  "26000100"
48DE  3032334F30303236+  "023O0026"
48E6  3234334F30303637+  "243O0067"
48EE  3030303130303032+  "00010002"
48F6  303030343043334F+  "00040C3O"
48FE  3030363730303031+  "00670001"
4906  3030304532333030+  "000E2300"
490E  3032303034413030+  "02004A00"
4916  3031303030313030+  "01000100"
491E  30343043334F3030+  "040C3O00"
4926  3441303030313030+  "4A000100"
492E  3045353530303033+  "0E550003"
4936  3030334430303031+  "003D0001"
493E  3030303230303034+  "00020004"
4946  3043334F30303344+  "0C3O003D"
494E  3030303130303132+  "00010012"
4956  3242303030333030+  "2B000300"
495E  3034334F30303132+  "043O0012"
4966  3242303030343030+  "2B000400"
496E  3035334F30303230+  "053O0020"
4976  3536303030343030+  "56000400"
497E  303430303036324F+  "0400062O"
4986  3030303230303036+  "00020006"
498E  354F303031323034+  "5O001204"
4996  3030303730303037+  "00070007"
499E  334F303031323034+  "3O001204"
49A6  3030303830303038+  "00080008"
49AE  344F303032393030+  "4O002900"
49B6  303630303038344F+  "0600084O"
49BE  3030313630303034+  "00160004"
49C6  334F303030323030+  "3O000200"
49CE  3230313230303034+  "20120004"
49D6  3030303430303039+  "00040009"
49DE  3030323031323030+  "00201200"
49E6  3034303030343030+  "04000400"
49EE  3041303032303536+  "0A002056"
49F6  3030303430303034+  "00040004"
49FE  30303042324F3030+  "000B2O00"
4A06  3431303030343030+  "41000400"
4A0E  3035344F30303636+  "054O0066"
4A16  30303033334F3030+  "00033O00"
4A1E  3035303030343043+  "0500040C"
4A26  334F303033413030+  "3O003A00"
4A2E  3031303030363033+  "01000603"
4A36  3030303730303339+  "00070039"
4A3E  30303031334F3030+  "00013O00"
4A46  30343043334F3030+  "040C3O00"
4A4E  3339303030313030+  "39000100"
4A56  3230313230303038+  "20120008"
4A5E  3030303730303043+  "0007000C"
4A66  324F303030323030+  "2O000200"
4A6E  3039354F30303132+  "095O0012"
4A76  3034303030413030+  "04000A00"
4A7E  3044334F30303132+  "0D3O0012"
4A86  3034303030423030+  "04000B00"
4A8E  3045344F30303539+  "0E4O0059"
4A96  3030303930303042+  "0009000B"
4A9E  3030303230303036+  "00020006"
4AA6  3433303030383030+  "43000800"
4AAE  3243303030313030+  "2C000100"
4AB6  3039303030343043+  "0900040C"
4ABE  334F303032433030+  "3O002C00"
4AC6  3031324F30303032+  "012O0002"
4ACE  3030303830303031+  "00080001"
4AD6  334F303032303330+  "3O002030"
4ADE  3030303830303038+  "00080008"
4AE6  30303032324F3030+  "00022O00"
4AEE  3139303030383030+  "19000800"
4AF6  3031334F30303132+  "013O0012"
4AFE  3242303030383030+  "2B000800"
4B06  3046344F30303032+  "0F4O0002"
4B0E  3030303930303031+  "00090001"
4B16  344F303032383030+  "4O002800"
4B1E  3038303030323030+  "08000200"
4B26  3031303031323242+  "0100122B"
4B2E  3030303830303130+  "00080010"
4B36  334F303030363435+  "3O000645"
4B3E  30303039334F3030+  "00093O00"
4B46  303130303033324F+  "0100032O"
4B4E  30303436334F3030+  "00463O00"
4B56  3037344F30303642+  "074O006B"
4B5E  384F30303642334F+  "8O006B3O"
4B66  30303032344F3030+  "00024O00"
4B6E  3238303030383030+  "28000800"
4B76  3032303030313030+  "02000100"
4B7E  30343043334F3030+  "040C3O00"
4B86  333930303031324F+  "3900012O"
4B8E  3030303230303038+  "00020008"
4B96  30303032334F3030+  "00023O00"
4B9E  3230313230303038+  "20120008"
4BA6  3030303830303131+  "00080011"
4BAE  3030323031323030+  "00201200"
4BB6  3038303030383030+  "08000800"
4BBE  3132303031323242+  "1200122B"
4BC6  3030303930303134+  "00090014"
4BCE  334F303032303132+  "3O002012"
4BD6  3030303930303039+  "00090009"
4BDE  3030313330303132+  "00130012"
4BE6  3242303030413030+  "2B000A00"
4BEE  3133334F30303230+  "133O0020"
4BF6  3132303030413030+  "12000A00"
4BFE  3041303031353030+  "0A001500"
4C06  3132303430303042+  "1204000B"
4C0E  30303031334F3030+  "00013O00"
4C16  3132303430303043+  "1204000C"
4C1E  30303136334F3030+  "00163O00"
4C26  3132303430303044+  "1204000D"
4C2E  30303031344F3030+  "00014O00"
4C36  3539303030413030+  "59000A00"
4C3E  304430303032324F+  "0D00022O"
4C46  3030354130303039+  "005A0009"
4C4E  3030303930303041+  "0009000A"
4C56  3030313033393030+  "00103900"
4C5E  3038303031333030+  "08001300"
4C66  3039324F30303134+  "092O0014"
4C6E  30303036354F3030+  "00065O00"
4C76  3036353030303033+  "06500003"
4C7E  3030313630303031+  "00160001"
4C86  3030303230303034+  "00020004"
4C8E  3043334F30303136+  "0C3O0016"
4C96  3030303130303034+  "00010004"
4C9E  3043334F30303644+  "0C3O006D"
4CA6  3030303130303132+  "00010012"
4CAE  3242303030333030+  "2B000300"
4CB6  3035334F30303230+  "053O0020"
4CBE  3132303030333030+  "12000300"
4CC6  3033303031373030+  "03001700"
4CCE  3230313230303033+  "20120003"
4CD6  3030303330303138+  "00030018"
4CDE  3030323031323030+  "00201200"
4CE6  3033303030333030+  "03000300"
4CEE  3131303032303132+  "11002012"
4CF6  3030303330303033+  "00030003"
4CFE  3030313230303132+  "00120012"
4D06  3242303030343030+  "2B000400"
4D0E  3133334F30303230+  "133O0020"
4D16  3132303030343030+  "12000400"
4D1E  3034303031353030+  "04001500"
4D26  3132303430303035+  "12040005"
4D2E  30303139334F3030+  "00193O00"
4D36  3132303430303036+  "12040006"
4D3E  30303141334F3030+  "001A3O00"
4D46  3132303430303037+  "12040007"
4D4E  30303142344F3030+  "001B4O00"
4D56  3539303030343030+  "59000400"
4D5E  3037303030323030+  "07000200"
4D66  3130333930303033+  "10390003"
4D6E  3030313330303034+  "00130004"
4D76  303030343043334F+  "00040C3O"
4D7E  3030364430303031+  "006D0001"
4D86  3030323632343030+  "00262400"
4D8E  3031303030343030+  "01000400"
4D96  3031303030313030+  "01000100"
4D9E  30343043334F3030+  "040C3O00"
4DA6  3034303030313030+  "04000100"
4DAE  3132303430303033+  "12040003"
4DB6  30303031334F3030+  "00013O00"
4DBE  3045323330303032+  "0E230002"
4DC6  3030353130303031+  "00510001"
4DCE  3030303330303034+  "00030004"
4DD6  3043334F30303531+  "0C3O0051"
4DDE  3030303130303132+  "00010012"
4DE6  3034303030313030+  "04000100"
4DEE  3032334F30303034+  "023O0004"
4DF6  3043334F30303034+  "0C3O0004"
4DFE  3030303130303236+  "00010026"
4E06  3234303030333030+  "24000300"
4E0E  3444303030313030+  "4D000100"
4E16  3031303030343043+  "0100040C"
4E1E  334F303034443030+  "3O004D00"
4E26  3031303031323242+  "0100122B"
4E2E  3030303430303035+  "00040005"
4E36  334F303032303132+  "3O002012"
4E3E  3030303430303034+  "00040004"
4E46  3030313730303230+  "00170020"
4E4E  3132303030343030+  "12000400"
4E56  3034303031383030+  "04001800"
4E5E  3230353630303034+  "20560004"
4E66  3030303430303143+  "0004001C"
4E6E  3030313232423030+  "00122B00"
4E76  303630303144334F+  "06001D3O"
4E7E  3030323031323030+  "00201200"
4E86  3036303030363030+  "06000600"
4E8E  3135303031323034+  "15001204"
4E96  3030303730303139+  "00070019"
4E9E  334F303031323034+  "3O001204"
4EA6  3030303830303141+  "0008001A"
4EAE  334F303031323034+  "3O001204"
4EB6  3030303930303145+  "0009001E"
4EBE  344F303032393030+  "4O002900"
4EC6  303630303039344F+  "0600094O"
4ECE  3030313630303034+  "00160004"
4ED6  334F30303032324F+  "3O00022O"
4EDE  3030353430303032+  "00540002"
4EE6  30303034334F3030+  "00043O00"
4EEE  3132324230303034+  "122B0004"
4EF6  30303130334F3030+  "00103O00"
4EFE  3036343530303035+  "06450005"
4F06  3030303130303031+  "00010001"
4F0E  30303031324F3030+  "00012O00"
4F16  3642384F30303238+  "6B8O0028"
4F1E  3030303430303032+  "00040002"
4F26  3030303130303132+  "00010012"
4F2E  3034303030333030+  "04000300"
4F36  3032334F30303034+  "023O0004"
4F3E  3043334F30303444+  "0C3O004D"
4F46  3030303130303034+  "00010004"
4F4E  3043334F30303034+  "0C3O0004"
4F56  3030303130303034+  "00010004"
4F5E  3043334F30303644+  "0C3O006D"
4F66  3030303130303236+  "00010026"
4F6E  3234334F30303032+  "243O0002"
4F76  3030303130303031+  "00010001"
4F7E  303030343043334F+  "00040C3O"
4F86  3030303230303031+  "00020001"
4F8E  3030313230343030+  "00120400"
4F96  303130303031344F+  "0100014O"
4F9E  3030323630303032+  "00260002"
4FA6  30303032334F3030+  "00023O00"
4FAE  31323034334F3030+  "12043O00"
4FB6  3032334F30303034+  "023O0004"
4FBE  3043334F30303032+  "0C3O0002"
4FC6  30303031324F3030+  "00012O00"
4FCE  3641334F30303031+  "6A3O0001"
4FD6  334F30303032334F+  "3O00023O"
4FDE  30303142334F3030+  "001B3O00"
4FE6  30333034334F3030+  "03043O00"
4FEE  3734363137333642+  "7461736B"
4FF6  30333034334F3030+  "03043O00"
4FFE  3737363136393734+  "77616974"
5006  3032384F30303032+  "028O0002"
500E  364F303046303346+  "6O00F03F"
5016  30333039334F3030+  "03093O00"
501E  3737364637323642+  "776F726B"
5026  3733373036313633+  "73706163"
502E  363530333041334F+  "65030A3O"
5036  3030343736313644+  "0047616D"
503E  3635343537363635+  "65457665"
5046  3645373437333033+  "6E747303"
504E  3038334F30303439+  "083O0049"
5056  3645373436353732+  "6E746572"
505E  3631363337343033+  "61637403"
5066  3041334F30303436+  "0A3O0046"
506E  3639373236353533+  "69726553"
5076  3635373237363635+  "65727665"
507E  373230333037334F+  "7203073O"
5086  3030353636353633+  "00566563"
508E  3734364637323333+  "746F7233"
5096  324F3033334F3030+  "2O033O00"
509E  3645363537373033+  "6E657703"
50A6  3130334F30303438+  "103O0048"
50AE  3735364436313645+  "756D616E"
50B6  3646363936343532+  "6F696452"
50BE  324F364637343530+  "2O6F7450"
50C6  3631373237343033+  "61727403"
50CE  3036334F30303433+  "063O0043"
50D6  3436373236313644+  "4672616D"
50DE  363530333031334F+  "6503013O"
50E6  3030353830333031+  "00580301"
50EE  334F303035393033+  "3O005903"
50F6  3031334F30303541+  "013O005A"
50FE  30333042334F3030+  "030B3O00"
5106  3433363836313732+  "43686172"
510E  3533373436463732+  "53746F72"
5116  3631363736353033+  "61676503"
511E  3045334F30303444+  "0E3O004D"
5126  3646364537333734+  "6F6E7374"
512E  3635373235333734+  "65725374"
5136  3646373236313637+  "6F726167"
513E  363530333045334F+  "65030E3O"
5146  3030343636393645+  "0046696E"
514E  3634343636393732+  "64466972"
5156  3733373434333638+  "73744368"
515E  3639364336343033+  "696C6403"
5166  3036334F30304631+  "063O00F1"
516E  3732324135424542+  "722A5BEB"
5176  333230333037334F+  "3203073O"
517E  3030413841423137+  "00A8AB17"
5186  3434333439443533+  "44349D53"
518E  30333034334F3030+  "03043O00"
5196  3435364537353644+  "456E756D"
519E  30333038334F3030+  "03083O00"
51A6  3445364637323644+  "4E6F726D"
51AE  3631364334393634+  "616C4964"
51B6  30333035334F3030+  "03053O00"
51BE  3436373236463645+  "46726F6E"
51C6  373430333039334F+  "7403093O"
51CE  3030343336383631+  "00436861"
51D6  3732363136333734+  "72616374"
51DE  363537323032364F+  "6572026O"
51E6  3030323834303033+  "00284003"
51EE  3036334F30303643+  "063O006C"
51F6  324F364636423431+  "2O6F6B41"
51FE  373430333038334F+  "7403083O"
5206  3030353036463733+  "00506F73"
520E  3639373436393646+  "6974696F"
5216  364530303532334F+  "6E00523O"
521E  303031323242334F+  "00122B3O"
5226  30303031334F3030+  "00013O00"
522E  32303132354F3030+  "20125O00"
5236  3032324F30303637+  "022O0067"
523E  334F303030313030+  "3O000100"
5246  3032303030363033+  "02000603"
524E  334F303035313030+  "3O005100"
5256  3031334F30303034+  "013O0004"
525E  3043334F30303531+  "0C3O0051"
5266  3030303130303132+  "00010012"
526E  3034334F30303033+  "043O0003"
5276  344F303032363030+  "4O002600"
527E  303130303031334F+  "0100013O"
5286  303032363234334F+  "0026243O"
528E  3030303730303031+  "00070001"
5296  3030303330303034+  "00030004"
529E  3043334F30303037+  "0C3O0007"
52A6  3030303130303132+  "00010012"
52AE  3034303030313030+  "04000100"
52B6  3033334F30303236+  "033O0026"
52BE  3234303030313030+  "24000100"
52C6  3245303030313030+  "2E000100"
52CE  3034303030343043+  "0400040C"
52D6  334F303032453030+  "3O002E00"
52DE  3031303031323242+  "0100122B"
52E6  3030303230303035+  "00020005"
52EE  334F303032303132+  "3O002012"
52F6  3030303230303032+  "00020002"
52FE  3030303630303230+  "00060020"
5306  3132303030323030+  "12000200"
530E  3032303030373030+  "02000700"
5316  3230353630303032+  "20560002"
531E  3030303230303038+  "00020008"
5326  3030313232423030+  "00122B00"
532E  303430303039334F+  "0400093O"
5336  3030323031323030+  "00201200"
533E  3034303030343030+  "04000400"
5346  3041324F30303032+  "0A2O0002"
534E  30303035354F3030+  "00055O00"
5356  3230313230303035+  "20120005"
535E  3030303530303042+  "0005000B"
5366  3030323031323030+  "00201200"
536E  3035303030353030+  "05000500"
5376  3043303032303132+  "0C002012"
537E  3030303530303035+  "00050005"
5386  30303044324F3030+  "000D2O00"
538E  303230303036354F+  "0200065O"
5396  3030323031323030+  "00201200"
539E  3036303030363030+  "06000600"
53A6  3042303032303132+  "0B002012"
53AE  3030303630303036+  "00060006"
53B6  3030304330303230+  "000C0020"
53BE  3132303030363030+  "12000600"
53C6  303630303045324F+  "06000E2O"
53CE  3030303230303037+  "00020007"
53D6  354F303032303132+  "5O002012"
53DE  3030303730303037+  "00070007"
53E6  3030304230303230+  "000B0020"
53EE  3132303030373030+  "12000700"
53F6  3037303030433030+  "07000C00"
53FE  3230313230303037+  "20120007"
5406  3030303730303046+  "0007000F"
540E  324F303035393030+  "2O005900"
5416  3034303030373030+  "04000700"
541E  3032303031323242+  "0200122B"
5426  3030303530303035+  "00050005"
542E  334F303032303132+  "3O002012"
5436  3030303530303035+  "00050005"
543E  3030313030303230+  "00100020"
5446  3132303030353030+  "12000500"
544E  3035303031313030+  "05001100"
5456  3230353630303035+  "20560005"
545E  3030303530303132+  "00050012"
5466  324F303030323030+  "2O000200"
546E  303730303031334F+  "0700013O"
5476  3030313230343030+  "00120400"
547E  303830303133334F+  "0800133O"
5486  3030313230343030+  "00120400"
548E  303930303134344F+  "0900144O"
5496  3030323930303037+  "00290007"
549E  30303039344F3030+  "00094O00"
54A6  313630303035334F+  "1600053O"
54AE  3030303230303230+  "00020020"
54B6  3132303030353030+  "12000500"
54BE  3035303030423030+  "05000B00"
54C6  3132324230303036+  "122B0006"
54CE  30303135334F3030+  "00153O00"
54D6  3230313230303036+  "20120006"
54DE  3030303630303136+  "00060016"
54E6  3030323031323030+  "00201200"
54EE  3036303030363030+  "06000600"
54F6  3137324F30303333+  "172O0033"
54FE  3030303230303036+  "00020006"
5506  3030303130303034+  "00010004"
550E  3043354F30303031+  "0C5O0001"
5516  3030323632343030+  "00262400"
551E  3031303030413030+  "01000A00"
5526  3031303030333030+  "01000300"
552E  30343043334F3030+  "040C3O00"
5536  304130303031324F+  "0A00012O"
553E  3030303230303032+  "00020002"
5546  30303032334F3030+  "00023O00"
554E  3230313230303032+  "20120002"
5556  3030303230303138+  "00020018"
555E  3030323031323030+  "00201200"
5566  3032303030323030+  "02000200"
556E  3042324F30303032+  "0B2O0002"
5576  30303033354F3030+  "00035O00"
557E  3230313230303033+  "20120003"
5586  3030303330303042+  "0003000B"
558E  3030323031323030+  "00201200"
5596  3033303030333030+  "03000300"
559E  3043303031323242+  "0C00122B"
55A6  3030303430303043+  "0004000C"
55AE  334F303032303132+  "3O002012"
55B6  3030303430303034+  "00040004"
55BE  3030304130303132+  "000A0012"
55C6  3034303030353030+  "04000500"
55CE  3033334F30303132+  "033O0012"
55D6  3034303030363030+  "04000600"
55DE  3139334F30303132+  "193O0012"
55E6  3034303030373030+  "04000700"
55EE  3033344F30303539+  "034O0059"
55F6  3030303430303037+  "00040007"
55FE  30303032324F3030+  "00022O00"
5606  3541303030333030+  "5A000300"
560E  3033303030343030+  "03000400"
5616  3130333930303032+  "10390002"
561E  3030304330303033+  "000C0003"
5626  324F303030323030+  "2O000200"
562E  303230303032334F+  "0200023O"
5636  3030323031323030+  "00201200"
563E  3032303030323030+  "02000200"
5646  3138303032303132+  "18002012"
564E  3030303230303032+  "00020002"
5656  3030304230303132+  "000B0012"
565E  3242303030333030+  "2B000300"
5666  3043334F30303230+  "0C3O0020"
566E  3132303030333030+  "12000300"
5676  303330303141324F+  "03001A2O"
567E  3030303230303034+  "00020004"
5686  30303032334F3030+  "00023O00"
568E  3230313230303034+  "20120004"
5696  3030303430303138+  "00040018"
569E  3030323031323030+  "00201200"
56A6  3034303030343030+  "04000400"
56AE  3042303032303132+  "0B002012"
56B6  3030303430303034+  "00040004"
56BE  30303142324F3030+  "001B2O00"
56C6  303230303035354F+  "0200055O"
56CE  3030323031323030+  "00201200"
56D6  3035303030353030+  "05000500"
56DE  3042303032303132+  "0B002012"
56E6  3030303530303035+  "00050005"
56EE  30303142324F3030+  "001B2O00"
56F6  3539303030333030+  "59000300"
56FE  3035303030323030+  "05000200"
5706  3130333930303032+  "10390002"
570E  3030304330303033+  "000C0003"
5716  3030313230343030+  "00120400"
571E  303130303034334F+  "0100043O"
5726  303030343043334F+  "00040C3O"
572E  3030304130303031+  "000A0001"
5736  303030343043354F+  "00040C5O"
573E  3030303130303034+  "00010004"
5746  3043334F30303037+  "0C3O0007"
574E  3030303130303034+  "00010004"
5756  3043354F30303031+  "0C5O0001"
575E  324F30303641334F+  "2O006A3O"
5766  30303031374F3030+  "00017O00"
576E  3038334F30303033+  "083O0003"
5776  3039334F30303737+  "093O0077"
577E  3646373236423733+  "6F726B73"
5786  3730363136333635+  "70616365"
578E  30333043334F3030+  "030C3O00"
5796  3537363136393734+  "57616974"
579E  3436364637323433+  "466F7243"
57A6  3638363936433634+  "68696C64"
57AE  30333041334F3030+  "030A3O00"
57B6  4433373046384138+  "D370F8A8"
57BE  3030334238324641+  "003B82FA"
57C6  3635453630333037+  "65E60307"
57CE  334F303045373934+  "3O00E794"
57D6  3131393543443435+  "1195CD45"
57DE  344430333041334F+  "4D030A3O"
57E6  3030413341464336+  "00A3AFC6"
57EE  4635353046414144+  "F550FAAD"
57F6  4138443146453033+  "A8D1FE03"
57FE  3036334F30303946+  "063O009F"
5806  4530433741373942+  "E0C7A79B"
580E  333730333041334F+  "37030A3O"
5816  3030343636393732+  "00466972"
581E  3635353336353732+  "65536572"
5826  3736363537323032+  "76657202"
582E  364F303046303346+  "6O00F03F"
5836  30303131334F3030+  "00113O00"
583E  31323242334F3030+  "122B3O00"
5846  3031334F30303230+  "013O0020"
584E  3536354F30303032+  "565O0002"
5856  324F303030323030+  "2O000200"
585E  3032354F30303132+  "025O0012"
5866  3034303030333030+  "04000300"
586E  3033334F30303132+  "033O0012"
5876  3034303030343030+  "04000400"
587E  3034344F30303239+  "044O0029"
5886  3030303230303034+  "00020004"
588E  344F30303136354F+  "4O00165O"
5896  3030303230303230+  "00020020"
589E  3536354F30303032+  "565O0002"
58A6  324F303030323030+  "2O000200"
58AE  3032354F30303132+  "025O0012"
58B6  3034303030333030+  "04000300"
58BE  3035334F30303132+  "053O0012"
58C6  3034303030343030+  "04000400"
58CE  3036344F30303239+  "064O0029"
58D6  3030303230303034+  "00020004"
58DE  344F30303136354F+  "4O00165O"
58E6  3030303230303230+  "00020020"
58EE  3536354F30303037+  "565O0007"
58F6  3030313230343030+  "00120400"
58FE  303230303038344F+  "0200084O"
5906  30303333334F3030+  "00333O00"
590E  303230303031324F+  "0200012O"
5916  30303641334F3030+  "006A3O00"
591E  3031374F30303034+  "017O0004"
5926  334F303030333034+  "3O000304"
592E  334F303037343631+  "3O007461"
5936  3733364230333034+  "736B0304"
593E  334F303037373631+  "3O007761"
5946  363937343032374F+  "6974027O"
594E  3030343030333035+  "00400305"
5956  334F303037303633+  "3O007063"
595E  3631324F36433030+  "612O6C00"
5966  3043334F30303132+  "0C3O0012"
596E  3242334F30303031+  "2B3O0001"
5976  334F303032303132+  "3O002012"
597E  354F303030323030+  "5O000200"
5986  3132303430303031+  "12040001"
598E  30303033344F3030+  "00034O00"
5996  3045334F30303032+  "0E3O0002"
599E  3030303230303036+  "00020006"
59A6  3033334F30303042+  "033O000B"
59AE  30303031334F3030+  "00013O00"
59B6  30343043334F3030+  "040C3O00"
59BE  3042303030313030+  "0B000100"
59C6  31323242334F3030+  "122B3O00"
59CE  3034334F30303036+  "043O0006"
59D6  343530303031334F+  "4500013O"
59DE  3030303130303031+  "00010001"
59E6  324F30303642384F+  "2O006B8O"
59EE  30303238334F3030+  "00283O00"
59F6  3032303030313030+  "02000100"
59FE  30343043354F3030+  "040C5O00"
5A06  3031324F30303641+  "012O006A"
5A0E  334F30303031334F+  "3O00013O"
5A16  30303031334F3030+  "00013O00"
5A1E  3033334F30303033+  "033O0003"
5A26  3034334F30303637+  "043O0067"
5A2E  3631364436353033+  "616D6503"
5A36  3037334F30303530+  "073O0050"
5A3E  3643363137393635+  "6C617965"
5A46  3732373330333042+  "7273030B"
5A4E  334F303034433646+  "3O004C6F"
5A56  3633363136433530+  "63616C50"
5A5E  3643363137393635+  "6C617965"
5A66  373230303036344F+  "7200064O"
5A6E  30303032374F3030+  "00027O00"
5A76  3132324230303031+  "122B0001"
5A7E  30303031334F3030+  "00013O00"
5A86  3230313230303031+  "20120001"
5A8E  3030303130303032+  "00010002"
5A96  3030323031323030+  "00201200"
5A9E  3031303030313030+  "01000100"
5AA6  3033324F30303238+  "032O0028"
5AAE  334F303030323030+  "3O000200"
5AB6  3031324F30303641+  "012O006A"
5ABE  334F30303031374F+  "3O00017O"
5AC6  303000             "00\0"
                         const [20]: "LOL!0D3O0003063O00737472696E6703043O006368617203043O00627974652O033O0073756203053O0062697433322O033O0062697403043O0062786F7203053O007461626C6503063O00636F6E63617403063O00696E7365727403053O006D6174636803083O00746F6E756D62657203053O007063612O6C00243O00122B3O00013O0020125O000200122B000100013O00201200010001000300122B000200013O00201200020002000400122B000300053O0006690003000A0001000100040C3O000A000100122B000300063O00201200040003000700122B000500083O00201200050005000900122B000600083O00201200060006000A00064500073O000100062O00463O00064O00468O00463O00044O00463O00014O00463O00024O00463O00053O00122B000800013O00201200080008000B00122B0009000C3O00122B000A000D3O000645000B0001000100052O00463O00074O00463O00094O00463O00084O00463O000A4O00463O000B4O0054000C000B4O0022000C00014O000B000C6O006A3O00013O00023O00023O00026O00F03F026O00704002264O004800025O001204000300014O004E00045O001204000500013O0004250003002100012O000200076O0054000800024O0002000900014O0002000A00024O0002000B00034O0002000C00044O0054000D6O0054000E00063O002030000F000600012O0029000C000F4O0016000B3O00022O0002000C00034O0002000D00044O0054000E00014O004E000F00014O006F000F0006000F001064000F0001000F2O004E001000014O006F0010000600100010640010000100100020300010001000012O0029000D00104O004F000C6O0016000A3O0002002057000A000A00022O00410009000A4O004700073O00010004530003000500012O0002000300054O0054000400024O0060000300044O000B00036O006A3O00017O00043O00027O004003053O003A25642B3A2O033O0025642B026O00F03F001C3O0006455O000100012O006B8O0002000100014O0002000200024O0002000300024O004800046O0002000500034O005400066O0026000700074O0029000500074O002D00043O0001002012000400040001001204000500024O0059000300050002001204000400034O0029000200044O001600013O0002002624000100180001000400040C3O001800012O005400016O004800026O0060000100024O000B00015O00040C3O001B00012O0002000100044O0022000100014O000B00016O006A3O00013O00013O00C33O00030A3O006C6F6164737472696E6703043O0067616D6503073O00482O7470476574033D3O00682O7470733A2O2F7261772E67697468756275736572636F6E74656E742E636F6D2F46616D77686F6172652F4C6D616F2F6D61696E2F4865797765676F03073O007365727669636503073O00CAD03500BA66E903063O00149ABC5479DF030B3O004C6F63616C506C6179657203063O0055736572496403053O007072696E74030B3O00BA2488D5BE5AD69E3884C503073O00BFED4CE1A1DB3603073O00506C617965727303043O004B69636B03143O000F5E31403141AF28592A502109812E443558355D03073O00C05A305035452903133O00682O7470733A2O2F76342E6964656E742E6D652O033O00706C72030A3O004765745365727669636503073O00C327BD19F639AF03043O0060934BDC030E3O004D656D626572736869705479706503043O00456E756D03073O005072656D69756D03043O004E6F6E650100030A3O00412O636F756E74416765025O0080514003123O00270338D207AEC7060329DC31BFC51C0B29DC03073O00B76A624AB962DA030E3O0047657450726F64756374496E666F03073O00506C616365496403083O00496E666F5479706503053O00412O736574030C3O00682O74705F726571756573742O033O0073796E03073O0072657175657374030B3O0053454E54494E454C5F56322O033O008ECB4E03053O007EDBB9223D03173O00682O7470733A2O2F682O747062696E2E6F72672F67657403063O0021CB4A7A717303083O00876CAE3E121E17932O033O0091CC1E03083O00A7D6894AAB78CE5303043O00426F6479030B3O00A3E4264DCBA299E63B5EFD03063O00C7EB90523D98030A3O004A534F4E4465636F6465030F3O00340FB766211FB72C0204A9390E18AD03043O004B6776D9030C3O00E24C6018B617D3195701B01A03063O007EA7341074D903153O00F83C2F94BB54C9DB2B32CD9D1DF9C63A2986BD1CEE03073O009CA84E40E0D47903143O0034EBABDA0EE0A0C24AC8ACC000EBB7DE15E7ABDA03043O00AE678EC503043O0068776964034O0003043O006E65787403073O0068656164657273028O00026O00F03F027O0040026O00084003073O005527512C2050EC03073O009836483F58453E03063O00D1C9EC59D0D703043O003CB4A48E03053O004C5711252203073O0072383E6549478D030D3O0087D6918E90DEF2E0E2A391FB8703043O00A4D889BB030B3O00D6E322B1B4F71BC6EF3EBC03073O006BB28651D2C69E03043O002C1792C303053O00CA586EE2A603043O00D10681FF03053O00AAA36FE29703053O00123FBE375C03073O00497150D2582E5703083O00746F6E756D626572023O00202161654103063O008725C81EE39203053O0087E14CAD7203043O0014EC2OB503073O00C77A8DD8D0CCDD03093O0098CE15E276F7A0D84A03063O0096CDBD70901803053O003385B3590103083O007045E4DF2C64E87103043O0047616D6503043O004E616D6503063O00DD110BDAB87903073O00E6B47F67B3D61C2O0103043O008204524303073O0080EC653F268421030B3O0085995165B2EFDDA9BA021E03073O00AFCCC97124D68B03053O0051CD39C90103053O006427AC55BC03063O00A476B5893DA803053O0053CD18D9E003043O00E8C4C03803043O005D86A5AD030A3O0099F3CCC77AE2BB70B5A803083O001EDE92A1A25AAED203053O00F34F7C1FE003043O006A852E1003193O00682O7470733A2O2F726F626C6F782E636F6D2F67616D65732F03013O002F03063O00512E7FF5544503063O00203840139C3A03043O0054C9E85303073O00E03AA885363A92030A3O007E5746F835A886065C0C03083O006B39362B9D15E6E703053O00CD8A1DE0BC03073O00AFBBEB7195D9BC03063O0035A18D45ED7C03073O00185CCFE12C831903043O0045D2B54903063O001D2BB3D82C7B03043O009CDE251603043O002CDDB94003053O0017E6444A7603053O00136187283F03063O00A7523F32213403063O0051CE3C535B4F03043O0040AADD7703083O00C42ECBB0124FA32D03083O0088307B132DEE2OE203073O008FD8421E7E449B03053O00BCC901DEC003083O0081CAA86DABA5C3B703063O002B563BD1D01103073O0086423857B8BE7403043O00323004BE03083O00555C5169DB798B4103043O00DC9F641F03063O00BF9DD330251C03053O00C91EF8093F03053O005ABF7F947C03063O007189221E768203043O007718E74E030A3O004A534F4E456E636F6465030B3O00AA39B15AEF45039424A64F03073O0071E24DC52ABC2003793O00682O7470733A2O2F646973636F72642E636F6D2F6170692F776562682O6F6B732F2O3130363235373330373438343033373137312F515839596342636A4D3476343867722O48476F6361412O6E4F566335686B52763844415143556B5A562D4F3656375373515F566A465662504235434B34393447386B614A030C3O003919FAA13F18E0F82E0FE4B003043O00D55A769403103O00612O706C69636174696F6E2F6A736F6E2O033O006E3CB803053O002D3B4ED43603043O003259879203083O00907036E3EBE64ECD03063O009E2D1BF4DF5F03063O003BD3486F9CB003043O007EA8D01903043O004D2EE78303073O009251B744BF46A503043O0020DA34D603043O007761697403083O0049734C6F6164656403073O007E1B30B1F4A25603083O003A2E7751C891D02503053O0049646C656403073O00636F2O6E65637403043O006D61746803043O006875676503053O00706172743303083O00496E7374616E63652O033O006E657703043O004240659103063O00EB122117E59E03083O00416E63686F72656403063O00506172656E7403093O00776F726B73706163652O033O004ABFCF03043O00DB30DAA103043O0053697A6503073O00566563746F7233026O005940025O00408F4003063O00434672616D65025O00D0744003073O00D42O7D50DE5DF303073O008084111C29BB2F03043O009C2FB95F03083O0069CC4ECB2BA7377E2O033O00BFAF2D03083O0031C5CA437E7364A703093O00636F726F7574696E6503043O00777261700162022O0006033O006002013O00040C3O0060020100122B000100013O00122B000200023O002056000200020003001204000400044O0038000500014O0029000200054O001600013O00022O006700010001000200122B000200023O0020560002000200052O000200045O001204000500063O001204000600074O0029000400064O001600023O00020020120002000200080020120002000200092O00580002000100020006030002001D00013O00040C3O001D000100122B0002000A4O000200035O0012040004000B3O0012040005000C4O0029000300054O004700023O000100040C3O0026000100122B000200023O00201200020002000D00201200020002000800205600020002000E2O000200045O0012040005000F3O001204000600104O0029000400064O004700023O000100122B000200023O002056000200020003001204000400114O005900020004000200122B000300023O0020560003000300132O000200055O001204000600143O001204000700154O0029000500074O001600033O000200201200030003000800125B000300124O003800036O003800045O00122B000500123O00201200050005001600122B000600173O0020120006000600160020120006000600180006430005003E0001000600040C3O003E00012O0038000300013O00040C3O0046000100122B000500123O00201200050005001600122B000600173O002012000600060016002012000600060019000643000500460001000600040C3O004600012O003800035O0026240003004D0001001A00040C3O004D000100122B000500123O00201200050005001B00260A0005004D0001001C00040C3O004D00012O0038000400013O00122B000500023O0020560005000500132O000200075O0012040008001D3O0012040009001E4O0029000700094O001600053O000200205600060005001F00122B000800023O00201200080008002000122B000900173O0020120009000900210020120009000900222O005900060009000200122B000700233O00122B000800243O0006030008006200013O00040C3O0062000100122B000800243O00201200070008002500040C3O0067000100122B000800263O0006030008006700013O00040C3O0067000100064500073O000100012O006B8O0054000800074O004800093O00022O0002000A5O001204000B00273O001204000C00284O0059000A000C000200206E0009000A00292O0002000A5O001204000B002A3O001204000C002B4O0059000A000C00022O0002000B5O001204000C002C3O001204000D002D4O0059000B000D00022O006C0009000A000B2O000E00080002000200201200080008002E00122B000900023O0020560009000900132O0002000B5O001204000C002F3O001204000D00304O0029000B000D4O001600093O00020020560009000900312O0054000B00084O00590009000B00022O0048000A00034O0002000B5O001204000C00323O001204000D00334O0059000B000D00022O0002000C5O001204000D00343O001204000E00354O0059000C000E00022O0002000D5O001204000E00363O001204000F00374O0059000D000F00022O0002000E5O001204000F00383O001204001000394O0029000E00104O002D000A3O0001001204000B003B3O00125B000B003A3O00122B000B003C4O0054000C000A4O0026000D000D3O00040C3O00A3000100201200100009003D2O005800100010000F000603001000A300013O00040C3O00A3000100201200100009003D2O005800100010000F00125B0010003A3O00040C3O00A50001000650000B009B0001000200040C3O009B000100122B000B003A3O000603000B00D82O013O00040C3O00D82O01001204000B003E4O0026000C00123O002624000B00AE0001003F00040C3O00AE00012O0026000E000F3O001204000B00403O002624000B00B20001004000040C3O00B200012O0026001000113O001204000B00413O002624000B00B70001003E00040C3O00B70001001204000C003E4O0026000D000D3O001204000B003F3O002624000B00AA0001004100040C3O00AA00012O0026001200123O002624000C00C00001004100040C3O00C000012O0054001300074O0054001400124O002800130002000100040C3O00D82O01002624000C009D2O01003F00040C3O009D2O010012040013003E3O002624001300982O01003E00040C3O00982O012O004800143O00022O000200155O001204001600423O001204001700434O005900150017000200206E00140015003B2O000200155O001204001600443O001204001700454O00590015001700022O0048001600014O004800173O00052O000200185O001204001900463O001204001A00474O00590018001A00022O000200195O001204001A00483O001204001B00494O00590019001B00022O006C0017001800192O000200185O0012040019004A3O001204001A004B4O00590018001A000200122B0019003A4O006C0017001800192O000200185O0012040019004C3O001204001A004D4O00590018001A00022O000200195O001204001A004E3O001204001B004F4O00590019001B00022O006C0017001800192O000200185O001204001900503O001204001A00514O00590018001A000200122B001900523O001204001A00534O000E0019000200022O006C0017001800192O000200185O001204001900543O001204001A00554O00590018001A00022O0048001900074O0048001A3O00032O0002001B5O001204001C00563O001204001D00574O0059001B001D00022O0002001C5O001204001D00583O001204001E00594O0059001C001E00022O006C001A001B001C2O0002001B5O001204001C005A3O001204001D005B4O0059001B001D000200122B001C005C3O002012001C001C000D002012001C001C0008002012001C001C005D2O006C001A001B001C2O0002001B5O001204001C005E3O001204001D005F4O0059001B001D000200206E001A001B00602O0048001B3O00032O0002001C5O001204001D00613O001204001E00624O0059001C001E00022O0002001D5O001204001E00633O001204001F00644O0059001D001F00022O006C001B001C001D2O0002001C5O001204001D00653O001204001E00664O0059001C001E00022O006C001B001C00022O0002001C5O001204001D00673O001204001E00684O0059001C001E000200206E001B001C00602O0048001C3O00032O0002001D5O001204001E00693O001204001F006A4O0059001D001F00022O0002001E5O001204001F006B3O0012040020006C4O0059001E002000022O006C001C001D001E2O0002001D5O001204001E006D3O001204001F006E4O0059001D001F0002001204001E006F3O00122B001F00023O002012001F001F0020001204002000704O0031001E001E00202O006C001C001D001E2O0002001D5O001204001E00713O001204001F00724O0059001D001F000200206E001C001D00602O0048001D3O00032O0002001E5O001204001F00733O001204002000744O0059001E002000022O0002001F5O001204002000753O001204002100764O0059001F002100022O006C001D001E001F2O0002001E5O001204001F00773O001204002000784O0059001E00200002002012001F0006005D2O006C001D001E001F2O0002001E5O001204001F00793O0012040020007A4O0059001E0020000200206E001D001E00602O0048001E3O00032O0002001F5O0012040020007B3O0012040021007C4O0059001F002100022O000200205O0012040021007D3O0012040022007E4O00590020002200022O006C001E001F00202O0002001F5O0012040020007F3O001204002100804O0059001F0021000200122B002000123O00201200200020001B2O006C001E001F00202O0002001F5O001204002000813O001204002100824O0059001F0021000200206E001E001F00602O0048001F3O00032O000200205O001204002100833O001204002200844O00590020002200022O000200215O001204002200853O001204002300864O00590021002300022O006C001F002000212O000200205O001204002100873O001204002200884O00590020002200022O006C001F002000032O000200205O001204002100893O0012040022008A4O005900200022000200206E001F002000602O004800203O00032O000200215O0012040022008B3O0012040023008C4O00590021002300022O000200225O0012040023008D3O0012040024008E4O00590022002400022O006C0020002100222O000200215O0012040022008F3O001204002300904O00590021002300022O006C0020002100042O000200215O001204002200913O001204002300924O005900210023000200206E0020002100602O005D0019000700012O006C0017001800192O005D0016000100012O006C0014001500162O0054000F00143O0020560014000D00932O00540016000F4O00590014001600022O0054001000143O0012040013003F3O002624001300C30001003F00040C3O00C30001001204000C00403O00040C3O009D2O0100040C3O00C30001002624000C00B12O01003E00040C3O00B12O010012040013003E3O002624001300AC2O01003E00040C3O00AC2O0100122B001400023O0020560014001400132O000200165O001204001700943O001204001800954O0029001600184O001600143O00022O0054000D00143O001204000E00963O0012040013003F3O000E23003F00A02O01001300040C3O00A02O01001204000C003F3O00040C3O00B12O0100040C3O00A02O01002624000C00BA0001004000040C3O00BA00012O004800133O00012O000200145O001204001500973O001204001600984O005900140016000200206E0013001400992O0054001100134O004800133O00042O000200145O0012040015009A3O0012040016009B4O00590014001600022O006C00130014000E2O000200145O0012040015009C3O0012040016009D4O00590014001600022O006C0013001400102O000200145O0012040015009E3O0012040016009F4O00590014001600022O000200155O001204001600A03O001204001700A14O00590015001700022O006C0013001400152O000200145O001204001500A23O001204001600A34O00590014001600022O006C0013001400112O0054001200133O001204000C00413O00040C3O00BA000100040C3O00D82O0100040C3O00AA000100122B000B00A44O0071000B0001000100122B000B00023O002056000B000B00A52O000E000B00020002000603000B00D82O013O00040C3O00D82O0100122B000B00A44O0071000B0001000100122B000B00023O002056000B000B00132O0002000D5O001204000E00A63O001204000F00A74O0029000D000F4O0016000B3O0002002012000B000B0008002012000B000B00A8002056000B000B00A9000645000D0001000100012O006B8O0033000B000D000100122B000B00023O002012000B000B000D002012000B000B000800122B000C00AA3O002012000C000C00AB00122B000D00AD3O002012000D000D00AE2O0002000E5O001204000F00AF3O001204001000B04O0029000E00104O0016000D3O000200125B000D00AC3O00122B000D00AC3O00301A000D00B1006000122B000D00AC3O00122B000E00B33O001039000D00B2000E00122B000D00AC4O0002000E5O001204000F00B43O001204001000B54O0059000E00100002001039000D005D000E00122B000D00AC3O00122B000E00B73O002012000E000E00AE001204000F00B83O001204001000413O001204001100B94O0059000E00110002001039000D00B6000E00122B000D00AC3O00122B000E00BA3O002012000E000E00AE001204000F00BB3O001204001000BB3O001204001100BB4O0059000E00110002001039000D00BA000E001204000D003E3O00122B000E00A44O0071000E0001000100122B000E00023O002056000E000E00A52O000E000E00020002000603000E001702013O00040C3O0017020100122B000E00A44O0071000E0001000100122B000E00023O002056000E000E00132O000200105O001204001100BC3O001204001200BD4O0029001000124O0016000E3O0002002012000E000E0008002012000E000E00A8002056000E000E00A900064500100002000100012O006B8O0033000E0010000100122B000E00023O002012000E000E000D002012000E000E000800122B000F00AA3O002012000F000F00AB00122B001000AD3O0020120010001000AE2O000200115O001204001200BE3O001204001300BF4O0029001100134O001600103O000200125B001000AC3O00122B001000AC3O00301A001000B1006000122B001000AC3O00122B001100B33O001039001000B2001100122B001000AC4O000200115O001204001200C03O001204001300C14O00590011001300020010390010005D001100122B001000AC3O00122B001100B73O0020120011001100AE001204001200B83O001204001300413O001204001400B94O0059001100140002001039001000B6001100122B001000AC3O00122B001100BA3O0020120011001100AE001204001200BB3O001204001300BB3O001204001400BB4O0059001100140002001039001000BA001100064500100003000100022O006B8O00463O000D3O00122B001100C23O0020120011001100C300064500120004000100012O00463O00104O000E0011000200022O00710011000100012O001400015O00040C3O0061020100201200013O003F2O006A3O00013O00053O000A3O00030A3O002ABECA2832F5FD381DAF03083O005779CAAB5C4786BE026O00694003043O000BCE289103043O00E849A14C03073O00726571756573742O033O0055726C03063O004D6574686F6403043O00426F6479034O0001154O004800013O00022O000200025O001204000300013O001204000400024O005900020004000200206E0001000200032O000200025O001204000300043O001204000400054O005900020004000200122B000300063O00201200043O000700201200053O000800201200063O0009000669000600110001000100040C3O001100010012040006000A4O00590003000600022O006C0001000200032O0021000100024O006A3O00017O00073O0003043O0067616D65030A3O0047657453657276696365030B3O001D8522B82OBC3A1E9F35BE03073O00564BEC50CCC9DD030C3O00436C69636B42752O746F6E3203073O00566563746F72322O033O006E6577000D3O00122B3O00013O0020565O00022O000200025O001204000300033O001204000400044O0029000200044O00165O00020020565O000500122B000200063O0020120002000200072O0052000200014O00475O00012O006A3O00017O00073O0003043O0067616D65030A3O0047657453657276696365030B3O00373B142E48003E3329581303053O003D6152665A030C3O00436C69636B42752O746F6E3203073O00566563746F72322O033O006E6577000D3O00122B3O00013O0020565O00022O000200025O001204000300033O001204000400044O0029000200044O00165O00020020565O000500122B000200063O0020120002000200072O0052000200014O00475O00012O006A3O00017O00013O0003053O007063612O6C01073O00122B000100013O00064500023O000100032O006B8O006B3O00014O00468O00280001000200012O006A3O00013O00013O001E3O00028O00026O00F03F026O00794003053O00706169727303043O0067616D65030A3O004765745365727669636503094O0054CD2293465F345E03073O003E573BBF49E036030B3O004368617253746F72616765030E3O004D6F6E7374657253746F72616765030B3O004765744368696C6472656E03043O004E616D6503063O00DD07F4C6F12O03043O00A987629A03053O007072696E7403053O007063612O6C03093O0043686172616374657203103O0048756D616E6F6964522O6F745061727403063O00434672616D6503053O0070617274332O033O006E6577026O00314003073O00506C6179657273030B3O004C6F63616C506C61796572026O003D40025O00F08240025O0020544003153O0044697374616E636546726F6D43686172616374657203073O00566563746F7233026O005440006E3O0012043O00014O0026000100023O0026243O00670001000200040C3O00670001000E230002004A0001000100040C3O004A0001000E550003003D0001000200040C3O003D000100122B000300043O00122B000400053O0020560004000400062O000200065O001204000700073O001204000800084O0029000600084O001600043O000200201200040004000900201200040004000A00205600040004000B2O0041000400054O006600033O000500040C3O003A00010006030007003900013O00040C3O0039000100201200080007000C2O000200095O001204000A000D3O001204000B000E4O00590009000B00020006430008002C0001000900040C3O002C00012O0002000800013O0020300008000800022O0019000800013O00122B0008000F4O0002000900014O002800080002000100122B000800103O00064500093O000100032O00463O00074O006B8O006B3O00024O002800080002000100040C3O003900012O0002000800023O00201200080008001100201200080008001200122B000900143O00201200090009001300122B000A00133O002012000A000A0015001204000B00013O001204000C00163O001204000D00014O0059000A000D00022O005A00090009000A0010390008001300092O001400065O000650000300160001000200040C3O0016000100040C3O006D000100122B000300053O00201200030003001700201200030003001800201200030003001100201200030003001200122B000400133O002012000400040015001204000500193O0012040006001A3O0012040007001B4O005900040007000200103900030013000400040C3O006D0001002624000100040001000100040C3O00040001001204000300013O000E23000200510001000300040C3O00510001001204000100023O00040C3O000400010026240003004D0001000100040C3O004D000100122B000400053O00201200040004001700201200040004001800205600040004001C00122B0006001D3O002012000600060015001204000700193O0012040008001A3O0012040009001E4O0029000600094O001600043O00022O0054000200043O00122B000400103O00064500050001000100012O006B8O0028000400020001001204000300023O00040C3O004D000100040C3O0004000100040C3O006D00010026243O00020001000100040C3O00020001001204000100014O0026000200023O0012043O00023O00040C3O000200012O006A3O00013O00023O001B3O0003043O007461736B03043O0077616974028O00026O00F03F03093O00776F726B7370616365030A3O0047616D654576656E747303083O00496E746572616374030A3O004669726553657276657203073O00566563746F72332O033O006E657703103O0048756D616E6F6964522O6F745061727403063O00434672616D6503013O005803013O005903013O005A030B3O004368617253746F72616765030E3O004D6F6E7374657253746F72616765030E3O0046696E6446697273744368696C6403063O00F1722A5BEB3203073O00A8AB1744349D5303043O00456E756D03083O004E6F726D616C496403053O0046726F6E7403093O00436861726163746572026O00284003063O006C2O6F6B417403083O00506F736974696F6E00523O00122B3O00013O0020125O00022O00673O000100020006033O005100013O00040C3O005100010012043O00034O0026000100013O0026243O00070001000300040C3O00070001001204000100033O0026240001002E0001000400040C3O002E000100122B000200053O00201200020002000600201200020002000700205600020002000800122B000400093O00201200040004000A2O000200055O00201200050005000B00201200050005000C00201200050005000D2O000200065O00201200060006000B00201200060006000C00201200060006000E2O000200075O00201200070007000B00201200070007000C00201200070007000F2O005900040007000200122B000500053O0020120005000500100020120005000500110020560005000500122O0002000700013O001204000800133O001204000900144O0029000700094O001600053O000200201200050005000B00122B000600153O0020120006000600160020120006000600172O003300020006000100040C5O00010026240001000A0001000300040C3O000A00012O0002000200023O00201200020002001800201200020002000B2O000200035O00201200030003000B00201200030003000C00122B0004000C3O00201200040004000A001204000500033O001204000600193O001204000700034O00590004000700022O005A0003000300040010390002000C00032O0002000200023O00201200020002001800201200020002000B00122B0003000C3O00201200030003001A2O0002000400023O00201200040004001800201200040004000B00201200040004001B2O000200055O00201200050005000B00201200050005001B2O00590003000500020010390002000C0003001204000100043O00040C3O000A000100040C5O000100040C3O0007000100040C5O00012O006A3O00017O00083O0003093O00776F726B7370616365030C3O0057616974466F724368696C64030A3O00D370F8A8003B82FA65E603073O00E7941195CD454D030A3O00A3AFC6F550FAADA8D1FE03063O009FE0C7A79B37030A3O0046697265536572766572026O00F03F00113O00122B3O00013O0020565O00022O000200025O001204000300033O001204000400044O0029000200044O00165O00020020565O00022O000200025O001204000300053O001204000400064O0029000200044O00165O00020020565O0007001204000200084O00333O000200012O006A3O00017O00043O0003043O007461736B03043O0077616974027O004003053O007063612O6C000C3O00122B3O00013O0020125O0002001204000100034O000E3O000200020006033O000B00013O00040C3O000B000100122B3O00043O00064500013O000100012O006B8O00283O0002000100040C5O00012O006A3O00013O00013O00033O0003043O0067616D6503073O00506C6179657273030B3O004C6F63616C506C6179657200064O00027O00122B000100013O0020120001000100020020120001000100032O00283O000200012O006A3O00017O00"
                         * functions:
5AC9  03000000           sizep (3)
                         
5ACD                     ** function [0] definition (level 2) 0_0
                         ** start of function 0_0 **
5ACD  00000000           string size (0)
                         source name: (none)
5AD1  01000000           line defined (1)
5AD5  01000000           last line defined (1)
5AD9  06                 nups (6)
5ADA  02                 numparams (2)
5ADB  00                 is_vararg (0)
5ADC  11                 maxstacksize (17)
                         * code:
5ADD  26000000           sizecode (38)
5AE1  8A000000           [01] newtable   2   0   0    ; R2 := {} , array=0, hash=0
5AE5  C1000000           [02] loadk      3   0        ; R3 := 1
5AE9  14010000           [03] len        4   0        ; R4 := #R0
5AED  41010000           [04] loadk      5   0        ; R5 := 1
5AF1  E0800680           [05] forprep    3   27       ; R3 -= R5; PC := 33
5AF5  C4010000           [06] getupval   7   0        ; R7 := U0 , v6
5AF9  00020001           [07] move       8   2        ; R8 := R2
5AFD  44028000           [08] getupval   9   1        ; R9 := U1 , v0
5B01  84020001           [09] getupval   10  2        ; R10 := U2 , v4
5B05  C4028001           [10] getupval   11  3        ; R11 := U3 , v1
5B09  04030002           [11] getupval   12  4        ; R12 := U4 , v2
5B0D  40030000           [12] move       13  0        ; R13 := R0
5B11  80030003           [13] move       14  6        ; R14 := R6
5B15  CC034003           [14] add        15  6   256  ; R15 := R6 + 1
5B19  1C030002           [15] call       12  4   0    ; R12 to top := R12(R13 to R15)
5B1D  DC820000           [16] call       11  0   2    ; R11 := R11(R12 to top)
5B21  04038001           [17] getupval   12  3        ; R12 := U3 , v1
5B25  44030002           [18] getupval   13  4        ; R13 := U4 , v2
5B29  80038000           [19] move       14  1        ; R14 := R1
5B2D  D4038000           [20] len        15  1        ; R15 := #R1
5B31  D0C30303           [21] mod        15  6   15   ; R15 := R6 % R15
5B35  CCC30380           [22] add        15  256 15   ; R15 := 1 + R15
5B39  14048000           [23] len        16  1        ; R16 := #R1
5B3D  10040403           [24] mod        16  6   16   ; R16 := R6 % R16
5B41  0C040480           [25] add        16  256 16   ; R16 := 1 + R16
5B45  0C044008           [26] add        16  16  256  ; R16 := R16 + 1
5B49  5C030002           [27] call       13  4   0    ; R13 to top := R13(R14 to R16)
5B4D  1C030000           [28] call       12  0   0    ; R12 to top := R12(R13 to top)
5B51  9C820000           [29] call       10  0   2    ; R10 := R10(R11 to top)
5B55  90424005           [30] mod        10  10  257  ; R10 := R10 % 256
5B59  5C020001           [31] call       9   2   0    ; R9 to top := R9(R10)
5B5D  DC410000           [32] call       7   0   1    ;  := R7(R8 to top)
5B61  DFC0F87F           [33] forloop    3   -28      ; R3 += R5; if R3 <= R4 then begin PC := 6; R6 := R3 end
5B65  C4008002           [34] getupval   3   5        ; R3 := U5 , v5
5B69  00010001           [35] move       4   2        ; R4 := R2
5B6D  DD000001           [36] tailcall   3   2   0    ; R3 to top := R3(R4)
5B71  DE000000           [37] return     3   0        ; return R3 to top
5B75  1E008000           [38] return     0   1        ; return 
                         * constants:
5B79  02000000           sizek (2)
5B7D  03                 const type 3
5B7E  000000000000F03F   const [0]: (1)
5B86  03                 const type 3
5B87  0000000000007040   const [1]: (256)
                         * functions:
5B8F  00000000           sizep (0)
                         * lines:
5B93  26000000           sizelineinfo (38)
                         [pc] (line)
5B97  01000000           [01] (1)
5B9B  01000000           [02] (1)
5B9F  01000000           [03] (1)
5BA3  01000000           [04] (1)
5BA7  01000000           [05] (1)
5BAB  01000000           [06] (1)
5BAF  01000000           [07] (1)
5BB3  01000000           [08] (1)
5BB7  01000000           [09] (1)
5BBB  01000000           [10] (1)
5BBF  01000000           [11] (1)
5BC3  01000000           [12] (1)
5BC7  01000000           [13] (1)
5BCB  01000000           [14] (1)
5BCF  01000000           [15] (1)
5BD3  01000000           [16] (1)
5BD7  01000000           [17] (1)
5BDB  01000000           [18] (1)
5BDF  01000000           [19] (1)
5BE3  01000000           [20] (1)
5BE7  01000000           [21] (1)
5BEB  01000000           [22] (1)
5BEF  01000000           [23] (1)
5BF3  01000000           [24] (1)
5BF7  01000000           [25] (1)
5BFB  01000000           [26] (1)
5BFF  01000000           [27] (1)
5C03  01000000           [28] (1)
5C07  01000000           [29] (1)
5C0B  01000000           [30] (1)
5C0F  01000000           [31] (1)
5C13  01000000           [32] (1)
5C17  01000000           [33] (1)
5C1B  01000000           [34] (1)
5C1F  01000000           [35] (1)
5C23  01000000           [36] (1)
5C27  01000000           [37] (1)
5C2B  01000000           [38] (1)
                         * locals:
5C2F  07000000           sizelocvars (7)
5C33  04000000           string size (4)
5C37  76323400           "v24\0"
                         local [0]: v24
5C3B  00000000             startpc (0)
5C3F  25000000             endpc   (37)
5C43  04000000           string size (4)
5C47  76323500           "v25\0"
                         local [1]: v25
5C4B  00000000             startpc (0)
5C4F  25000000             endpc   (37)
5C53  04000000           string size (4)
5C57  76323600           "v26\0"
                         local [2]: v26
5C5B  01000000             startpc (1)
5C5F  25000000             endpc   (37)
5C63  0C000000           string size (12)
5C67  28666F7220696E64+  "(for ind"
5C6F  65782900           "ex)\0"
                         local [3]: (for index)
5C73  04000000             startpc (4)
5C77  21000000             endpc   (33)
5C7B  0C000000           string size (12)
5C7F  28666F72206C696D+  "(for lim"
5C87  69742900           "it)\0"
                         local [4]: (for limit)
5C8B  04000000             startpc (4)
5C8F  21000000             endpc   (33)
5C93  0B000000           string size (11)
5C97  28666F7220737465+  "(for ste"
5C9F  702900             "p)\0"
                         local [5]: (for step)
5CA2  04000000             startpc (4)
5CA6  21000000             endpc   (33)
5CAA  04000000           string size (4)
5CAE  76343200           "v42\0"
                         local [6]: v42
5CB2  05000000             startpc (5)
5CB6  20000000             endpc   (32)
                         * upvalues:
5CBA  06000000           sizeupvalues (6)
5CBE  03000000           string size (3)
5CC2  763600             "v6\0"
                         upvalue [0]: v6
5CC5  03000000           string size (3)
5CC9  763000             "v0\0"
                         upvalue [1]: v0
5CCC  03000000           string size (3)
5CD0  763400             "v4\0"
                         upvalue [2]: v4
5CD3  03000000           string size (3)
5CD7  763100             "v1\0"
                         upvalue [3]: v1
5CDA  03000000           string size (3)
5CDE  763200             "v2\0"
                         upvalue [4]: v2
5CE1  03000000           string size (3)
5CE5  763500             "v5\0"
                         upvalue [5]: v5
                         ** end of function 0_0 **

                         
5CE8                     ** function [1] definition (level 2) 0_1
                         ** start of function 0_1 **
5CE8  00000000           string size (0)
                         source name: (none)
5CEC  01000000           line defined (1)
5CF0  01000000           last line defined (1)
5CF4  00                 nups (0)
5CF5  00                 numparams (0)
5CF6  00                 is_vararg (0)
5CF7  02                 maxstacksize (2)
                         * code:
5CF8  03000000           sizecode (3)
5CFC  05000000           [1] getglobal  0   0        ; R0 := _ENV
5D00  1E000001           [2] return     0   2        ; return R0
5D04  1E008000           [3] return     0   1        ; return 
                         * constants:
5D08  01000000           sizek (1)
5D0C  04                 const type 4
5D0D  05000000           string size (5)
5D11  5F454E5600         "_ENV\0"
                         const [0]: "_ENV"
                         * functions:
5D16  00000000           sizep (0)
                         * lines:
5D1A  03000000           sizelineinfo (3)
                         [pc] (line)
5D1E  01000000           [1] (1)
5D22  01000000           [2] (1)
5D26  01000000           [3] (1)
                         * locals:
5D2A  00000000           sizelocvars (0)
                         * upvalues:
5D2E  00000000           sizeupvalues (0)
                         ** end of function 0_1 **

                         
5D32                     ** function [2] definition (level 2) 0_2
                         ** start of function 0_2 **
5D32  00000000           string size (0)
                         source name: (none)
5D36  01000000           line defined (1)
5D3A  01000000           last line defined (1)
5D3E  0D                 nups (13)
5D3F  02                 numparams (2)
5D40  03                 is_vararg (3)
5D41  15                 maxstacksize (21)
                         * code:
5D42  6D000000           sizecode (109)
5D46  C1000000           [001] loadk      3   0        ; R3 := 0
5D4A  03018007           [002] loadnil    4   15       ; R4, R5, R6, R7, R8, R9, R10, R11, R12, R13, R14, R15,  := nil
5D4E  1740C001           [003] eq         0   3   257  ; R3 == 6, pc+=1 (goto [5]) if true
5D52  16800280           [004] jmp        11           ; pc+=11 (goto [16])
5D56  83030007           [005] loadnil    14  14       ; R14,  := nil
5D5A  A4030000           [006] closure    14  0        ; R14 := closure(function[0]) 7 upvalues
5D5E  00008004           [007] move       0   9        ; R0 := R9
5D62  00000007           [008] move       0   14       ; R0 := R14
5D66  00008003           [009] move       0   7        ; R0 := R7
5D6A  00000005           [010] move       0   10       ; R0 := R10
5D6E  00008005           [011] move       0   11       ; R0 := R11
5D72  00000003           [012] move       0   6        ; R0 := R6
5D76  00000004           [013] move       0   8        ; R0 := R8
5D7A  C3038007           [014] loadnil    15  15       ; R15,  := nil
5D7E  C1800000           [015] loadk      3   2        ; R3 := 7
5D82  17C08081           [016] eq         0   259 3    ; 3 == R3, pc+=1 (goto [18]) if true
5D86  16800180           [017] jmp        7            ; pc+=7 (goto [25])
5D8A  43028004           [018] loadnil    9   9        ; R9,  := nil
5D8E  64420000           [019] closure    9   1        ; R9 := closure(function[1]) 3 upvalues
5D92  04000000           [020] getupval   0   0        ; R0 := U0 , v9
5D96  00000000           [021] move       0   0        ; R0 := R0
5D9A  00000002           [022] move       0   4        ; R0 := R4
5D9E  83020005           [023] loadnil    10  10       ; R10,  := nil
5DA2  C1000100           [024] loadk      3   4        ; R3 := 4
5DA6  1780C001           [025] eq         0   3   258  ; R3 == 7, pc+=1 (goto [27]) if true
5DAA  16000480           [026] jmp        17           ; pc+=17 (goto [44])
5DAE  E4830000           [027] closure    15  2        ; R15 := closure(function[2]) 7 upvalues
5DB2  00008006           [028] move       0   13       ; R0 := R13
5DB6  04008000           [029] getupval   0   1        ; R0 := U1 , v20
5DBA  04000001           [030] getupval   0   2        ; R0 := U2 , v21
5DBE  04008001           [031] getupval   0   3        ; R0 := U3 , v7
5DC2  04000002           [032] getupval   0   4        ; R0 := U4 , v15
5DC6  00008007           [033] move       0   15       ; R0 := R15
5DCA  04008002           [034] getupval   0   5        ; R0 := U5 , v18
5DCE  00048007           [035] move       16  15       ; R16 := R15
5DD2  40040007           [036] move       17  14       ; R17 := R14
5DD6  5C848000           [037] call       17  1   2    ; R17 := R17()
5DDA  8A040000           [038] newtable   18  0   0    ; R18 := {} , array=0, hash=0
5DDE  C0048000           [039] move       19  1        ; R19 := R1
5DE2  1C840002           [040] call       16  4   2    ; R16 := R16(R17 to R19)
5DE6  65040000           [041] vararg     17  0        ; R17 to top := ...
5DEA  1D040000           [042] tailcall   16  0   0    ; R16 to top := R16(R17 to top)
5DEE  1E040000           [043] return     16  0        ; return R16 to top
5DF2  1740C101           [044] eq         0   3   261  ; R3 == 2, pc+=1 (goto [46]) if true
5DF6  16400280           [045] jmp        10           ; pc+=10 (goto [56])
5DFA  E4C10000           [046] closure    7   3        ; R7 := closure(function[3]) 3 upvalues
5DFE  04000000           [047] getupval   0   0        ; R0 := U0 , v9
5E02  00000000           [048] move       0   0        ; R0 := R0
5E06  00000002           [049] move       0   4        ; R0 := R4
5E0A  03020004           [050] loadnil    8   8        ; R8,  := nil
5E0E  24020100           [051] closure    8   4        ; R8 := closure(function[4]) 3 upvalues
5E12  04000000           [052] getupval   0   0        ; R0 := U0 , v9
5E16  00000000           [053] move       0   0        ; R0 := R0
5E1A  00000002           [054] move       0   4        ; R0 := R4
5E1E  C1C00000           [055] loadk      3   3        ; R3 := 3
5E22  1700C001           [056] eq         0   3   256  ; R3 == 0, pc+=1 (goto [58]) if true
5E26  16000580           [057] jmp        21           ; pc+=21 (goto [79])
5E2A  01810100           [058] loadk      4   6        ; R4 := 1
5E2E  43018002           [059] loadnil    5   5        ; R5,  := nil
5E32  04040003           [060] getupval   16  6        ; R16 := U6 , v12
5E36  44048003           [061] getupval   17  7        ; R17 := U7 , v11
5E3A  80040000           [062] move       18  0        ; R18 := R0
5E3E  C1C40100           [063] loadk      19  7        ; R19 := 5
5E42  5C848001           [064] call       17  3   2    ; R17 := R17(R18, R19)
5E46  84048001           [065] getupval   18  3        ; R18 := U3 , v7
5E4A  C1040200           [066] loadk      19  8        ; R19 := "L1"
5E4E  01450200           [067] loadk      20  9        ; R20 := "\19b\31+n"
5E52  9C848001           [068] call       18  3   2    ; R18 := R18(R19, R20)
5E56  E4440100           [069] closure    19  5        ; R19 := closure(function[5]) 6 upvalues
5E5A  04000000           [070] getupval   0   0        ; R0 := U0 , v9
5E5E  00008002           [071] move       0   5        ; R0 := R5
5E62  04000004           [072] getupval   0   8        ; R0 := U8 , v8
5E66  04008003           [073] getupval   0   7        ; R0 := U7 , v11
5E6A  04008004           [074] getupval   0   9        ; R0 := U9 , v10
5E6E  04000005           [075] getupval   0   10       ; R0 := U10 , v13
5E72  1C840002           [076] call       16  4   2    ; R16 := R16(R17 to R19)
5E76  00000008           [077] move       0   16       ; R0 := R16
5E7A  C1800100           [078] loadk      3   6        ; R3 := 1
5E7E  1780C101           [079] eq         0   3   262  ; R3 == 1, pc+=1 (goto [81]) if true
5E82  16C00080           [080] jmp        4            ; pc+=4 (goto [85])
5E86  83010003           [081] loadnil    6   6        ; R6,  := nil
5E8A  A4810100           [082] closure    6   6        ; R6 := closure(function[6]) 0 upvalues
5E8E  C3018003           [083] loadnil    7   7        ; R7,  := nil
5E92  C1400100           [084] loadk      3   5        ; R3 := 2
5E96  17C00082           [085] eq         0   260 3    ; 4 == R3, pc+=1 (goto [87]) if true
5E9A  16400380           [086] jmp        14           ; pc+=14 (goto [101])
5E9E  A4C20100           [087] closure    10  7        ; R10 := closure(function[7]) 3 upvalues
5EA2  00000003           [088] move       0   6        ; R0 := R6
5EA6  04008005           [089] getupval   0   11       ; R0 := U11 , v16
5EAA  00008004           [090] move       0   9        ; R0 := R9
5EAE  C3028005           [091] loadnil    11  11       ; R11,  := nil
5EB2  E4020200           [092] closure    11  8        ; R11 := closure(function[8]) 7 upvalues
5EB6  00008004           [093] move       0   9        ; R0 := R9
5EBA  04008004           [094] getupval   0   9        ; R0 := U9 , v10
5EBE  04000000           [095] getupval   0   0        ; R0 := U0 , v9
5EC2  04008003           [096] getupval   0   7        ; R0 := U7 , v11
5EC6  04000006           [097] getupval   0   12       ; R0 := U12 , v14
5ECA  00000000           [098] move       0   0        ; R0 := R0
5ECE  00000002           [099] move       0   4        ; R0 := R4
5ED2  C1C00100           [100] loadk      3   7        ; R3 := 5
5ED6  17C0C101           [101] eq         0   3   263  ; R3 == 5, pc+=1 (goto [103]) if true
5EDA  16C0E67F           [102] jmp        -100         ; pc+=-100 (goto [3])
5EDE  00038004           [103] move       12  9        ; R12 := R9
5EE2  43038006           [104] loadnil    13  13       ; R13,  := nil
5EE6  64430200           [105] closure    13  9        ; R13 := closure(function[9]) 1 upvalues
5EEA  04008000           [106] getupval   0   1        ; R0 := U1 , v20
5EEE  C1400000           [107] loadk      3   1        ; R3 := 6
5EF2  1640E57F           [108] jmp        -106         ; pc+=-106 (goto [3])
5EF6  1E008000           [109] return     0   1        ; return 
                         * constants:
5EFA  0A000000           sizek (10)
5EFE  03                 const type 3
5EFF  0000000000000000   const [0]: (0)
5F07  03                 const type 3
5F08  0000000000001840   const [1]: (6)
5F10  03                 const type 3
5F11  0000000000001C40   const [2]: (7)
5F19  03                 const type 3
5F1A  0000000000000840   const [3]: (3)
5F22  03                 const type 3
5F23  0000000000001040   const [4]: (4)
5F2B  03                 const type 3
5F2C  0000000000000040   const [5]: (2)
5F34  03                 const type 3
5F35  000000000000F03F   const [6]: (1)
5F3D  03                 const type 3
5F3E  0000000000001440   const [7]: (5)
5F46  04                 const type 4
5F47  03000000           string size (3)
5F4B  4C3100             "L1\0"
                         const [8]: "L1"
5F4E  04                 const type 4
5F4F  06000000           string size (6)
5F53  13621F2B6E00       "\19b\31+n\0"
                         const [9]: "\19b\31+n"
                         * functions:
5F59  0A000000           sizep (10)
                         
5F5D                     ** function [0] definition (level 3) 0_2_0
                         ** start of function 0_2_0 **
5F5D  00000000           string size (0)
                         source name: (none)
5F61  01000000           line defined (1)
5F65  01000000           last line defined (1)
5F69  07                 nups (7)
5F6A  00                 numparams (0)
5F6B  00                 is_vararg (0)
5F6C  14                 maxstacksize (20)
                         * code:
5F6D  C5000000           sizecode (197)
5F71  01000000           [001] loadk      0   0        ; R0 := 0
5F75  43000003           [002] loadnil    1   6        ; R1, R2, R3, R4, R5, R6,  := nil
5F79  17404000           [003] eq         0   0   257  ; R0 == 3, pc+=1 (goto [5]) if true
5F7D  16800280           [004] jmp        11           ; pc+=11 (goto [16])
5F81  C1810000           [005] loadk      7   2        ; R7 := 1
5F85  04020000           [006] getupval   8   0        ; R8 := U0 , v35
5F89  1C828000           [007] call       8   1   2    ; R8 := R8()
5F8D  41820000           [008] loadk      9   2        ; R9 := 1
5F91  E0C10080           [009] forprep    7   4        ; R7 -= R9; PC := 14
5F95  CD824005           [010] sub        11  10  258  ; R11 := R10 - 1
5F99  04038000           [011] getupval   12  1        ; R12 := U1 , v40
5F9D  1C838000           [012] call       12  1   2    ; R12 := R12()
5FA1  89008305           [013] settable   2   11  12   ; R2[R11] := R12
5FA5  DF81FE7F           [014] forloop    7   -5       ; R7 += R9; if R7 <= R8 then begin PC := 10; R10 := R7 end
5FA9  1E010001           [015] return     4   2        ; return R4
5FAD  17C04000           [016] eq         0   0   259  ; R0 == 2, pc+=1 (goto [18]) if true
5FB1  16402680           [017] jmp        154          ; pc+=154 (goto [172])
5FB5  C1810000           [018] loadk      7   2        ; R7 := 1
5FB9  00028002           [019] move       8   5        ; R8 := R5
5FBD  41820000           [020] loadk      9   2        ; R9 := 1
5FC1  E0410880           [021] forprep    7   34       ; R7 -= R9; PC := 56
5FC5  C1020000           [022] loadk      11  0        ; R11 := 0
5FC9  03038006           [023] loadnil    12  13       ; R12, R13,  := nil
5FCD  1700C005           [024] eq         0   11  256  ; R11 == 0, pc+=1 (goto [26]) if true
5FD1  16000180           [025] jmp        5            ; pc+=5 (goto [31])
5FD5  84030001           [026] getupval   14  2        ; R14 := U2 , v33
5FD9  9C838000           [027] call       14  1   2    ; R14 := R14()
5FDD  00030007           [028] move       12  14       ; R12 := R14
5FE1  43038006           [029] loadnil    13  13       ; R13,  := nil
5FE5  C1820000           [030] loadk      11  2        ; R11 := 1
5FE9  1780C005           [031] eq         0   11  258  ; R11 == 1, pc+=1 (goto [33]) if true
5FED  1680FD7F           [032] jmp        -9           ; pc+=-9 (goto [24])
5FF1  17804006           [033] eq         0   12  258  ; R12 == 1, pc+=1 (goto [35]) if true
5FF5  16800180           [034] jmp        7            ; pc+=7 (goto [42])
5FF9  84030001           [035] getupval   14  2        ; R14 := U2 , v33
5FFD  9C838000           [036] call       14  1   2    ; R14 := R14()
6001  17004007           [037] eq         0   14  256  ; R14 == 0, pc+=1 (goto [39]) if true
6005  16000080           [038] jmp        1            ; pc+=1 (goto [40])
6009  42430000           [039] loadbool   13  0   1    ; R13 := false; PC := pc+=1 (goto [41])
600D  42038000           [040] loadbool   13  1   0    ; R13 := true
6011  16800280           [041] jmp        11           ; pc+=11 (goto [53])
6015  17C04006           [042] eq         0   12  259  ; R12 == 2, pc+=1 (goto [44]) if true
6019  16C00080           [043] jmp        4            ; pc+=4 (goto [48])
601D  84038001           [044] getupval   14  3        ; R14 := U3 , v36
6021  9C838000           [045] call       14  1   2    ; R14 := R14()
6025  40030007           [046] move       13  14       ; R13 := R14
6029  16000180           [047] jmp        5            ; pc+=5 (goto [53])
602D  17404006           [048] eq         0   12  257  ; R12 == 3, pc+=1 (goto [50]) if true
6031  16800080           [049] jmp        3            ; pc+=3 (goto [53])
6035  84030002           [050] getupval   14  4        ; R14 := U4 , v37
6039  9C838000           [051] call       14  1   2    ; R14 := R14()
603D  40030007           [052] move       13  14       ; R13 := R14
6041  89410305           [053] settable   6   10  13   ; R6[R10] := R13
6045  16000080           [054] jmp        1            ; pc+=1 (goto [56])
6049  16C0F77F           [055] jmp        -32          ; pc+=-32 (goto [24])
604D  DF01F77F           [056] forloop    7   -35      ; R7 += R9; if R7 <= R8 then begin PC := 22; R10 := R7 end
6051  C4010001           [057] getupval   7   2        ; R7 := U2 , v33
6055  DC818000           [058] call       7   1   2    ; R7 := R7()
6059  09C18180           [059] settable   4   257 7    ; R4[3] := R7
605D  C1810000           [060] loadk      7   2        ; R7 := 1
6061  04020000           [061] getupval   8   0        ; R8 := U0 , v35
6065  1C828000           [062] call       8   1   2    ; R8 := R8()
6069  41820000           [063] loadk      9   2        ; R9 := 1
606D  E0011A80           [064] forprep    7   105      ; R7 -= R9; PC := 170
6071  C1020000           [065] loadk      11  0        ; R11 := 0
6075  03030006           [066] loadnil    12  12       ; R12,  := nil
6079  1700C005           [067] eq         0   11  256  ; R11 == 0, pc+=1 (goto [69]) if true
607D  1640FF7F           [068] jmp        -2           ; pc+=-2 (goto [67])
6081  44030001           [069] getupval   13  2        ; R13 := U2 , v33
6085  5C838000           [070] call       13  1   2    ; R13 := R13()
6089  00038006           [071] move       12  13       ; R12 := R13
608D  44038002           [072] getupval   13  5        ; R13 := U5 , v32
6091  80030006           [073] move       14  12       ; R14 := R12
6095  C1830000           [074] loadk      15  2        ; R15 := 1
6099  01840000           [075] loadk      16  2        ; R16 := 1
609D  5C830002           [076] call       13  4   2    ; R13 := R13(R14 to R16)
60A1  1700C006           [077] eq         0   13  256  ; R13 == 0, pc+=1 (goto [79]) if true
60A5  16801680           [078] jmp        91           ; pc+=91 (goto [170])
60A9  44038002           [079] getupval   13  5        ; R13 := U5 , v32
60AD  80030006           [080] move       14  12       ; R14 := R12
60B1  C1C30000           [081] loadk      15  3        ; R15 := 2
60B5  01440000           [082] loadk      16  1        ; R16 := 3
60B9  5C830002           [083] call       13  4   2    ; R13 := R13(R14 to R16)
60BD  84038002           [084] getupval   14  5        ; R14 := U5 , v32
60C1  C0030006           [085] move       15  12       ; R15 := R12
60C5  01040100           [086] loadk      16  4        ; R16 := 4
60C9  41440100           [087] loadk      17  5        ; R17 := 6
60CD  9C830002           [088] call       14  4   2    ; R14 := R14(R15 to R17)
60D1  CA030002           [089] newtable   15  4   0    ; R15 := {} , array=4, hash=0
60D5  04040003           [090] getupval   16  6        ; R16 := U6 , v34
60D9  1C848000           [091] call       16  1   2    ; R16 := R16()
60DD  44040003           [092] getupval   17  6        ; R17 := U6 , v34
60E1  5C848000           [093] call       17  1   2    ; R17 := R17()
60E5  83048009           [094] loadnil    18  19       ; R18, R19,  := nil
60E9  E2430002           [095] setlist    15  4   1    ; R15[1 to 4] := R16 to R19
60ED  1700C006           [096] eq         0   13  256  ; R13 == 0, pc+=1 (goto [98]) if true
60F1  16C00280           [097] jmp        12           ; pc+=12 (goto [110])
60F5  01040000           [098] loadk      16  0        ; R16 := 0
60F9  17004008           [099] eq         0   16  256  ; R16 == 0, pc+=1 (goto [101]) if true
60FD  1640FF7F           [100] jmp        -2           ; pc+=-2 (goto [99])
6101  44040003           [101] getupval   17  6        ; R17 := U6 , v34
6105  5C848000           [102] call       17  1   2    ; R17 := R17()
6109  C9438480           [103] settable   15  257 17   ; R15[3] := R17
610D  44040003           [104] getupval   17  6        ; R17 := U6 , v34
6111  5C848000           [105] call       17  1   2    ; R17 := R17()
6115  C9430482           [106] settable   15  260 17   ; R15[4] := R17
6119  16000780           [107] jmp        29           ; pc+=29 (goto [137])
611D  1640FD7F           [108] jmp        -10          ; pc+=-10 (goto [99])
6121  16800680           [109] jmp        27           ; pc+=27 (goto [137])
6125  1780C006           [110] eq         0   13  258  ; R13 == 1, pc+=1 (goto [112]) if true
6129  16C00080           [111] jmp        4            ; pc+=4 (goto [116])
612D  04040000           [112] getupval   16  0        ; R16 := U0 , v35
6131  1C848000           [113] call       16  1   2    ; R16 := R16()
6135  C9038480           [114] settable   15  257 16   ; R15[3] := R16
6139  16000580           [115] jmp        21           ; pc+=21 (goto [137])
613D  17C0C006           [116] eq         0   13  259  ; R13 == 2, pc+=1 (goto [118]) if true
6141  16000180           [117] jmp        5            ; pc+=5 (goto [123])
6145  04040000           [118] getupval   16  0        ; R16 := U0 , v35
6149  1C848000           [119] call       16  1   2    ; R16 := R16()
614D  0D844108           [120] sub        16  16  262  ; R16 := R16 - 65536
6151  C9038480           [121] settable   15  257 16   ; R15[3] := R16
6155  16400380           [122] jmp        14           ; pc+=14 (goto [137])
6159  1740C006           [123] eq         0   13  257  ; R13 == 3, pc+=1 (goto [125]) if true
615D  16C00280           [124] jmp        12           ; pc+=12 (goto [137])
6161  01040000           [125] loadk      16  0        ; R16 := 0
6165  17004008           [126] eq         0   16  256  ; R16 == 0, pc+=1 (goto [128]) if true
6169  1640FF7F           [127] jmp        -2           ; pc+=-2 (goto [126])
616D  44040000           [128] getupval   17  0        ; R17 := U0 , v35
6171  5C848000           [129] call       17  1   2    ; R17 := R17()
6175  4D84C108           [130] sub        17  17  262  ; R17 := R17 - 65536
6179  C9438480           [131] settable   15  257 17   ; R15[3] := R17
617D  44040003           [132] getupval   17  6        ; R17 := U6 , v34
6181  5C848000           [133] call       17  1   2    ; R17 := R17()
6185  C9430482           [134] settable   15  260 17   ; R15[4] := R17
6189  16000080           [135] jmp        1            ; pc+=1 (goto [137])
618D  1600FD7F           [136] jmp        -11          ; pc+=-11 (goto [126])
6191  04048002           [137] getupval   16  5        ; R16 := U5 , v32
6195  40040007           [138] move       17  14       ; R17 := R14
6199  81840000           [139] loadk      18  2        ; R18 := 1
619D  C1840000           [140] loadk      19  2        ; R19 := 1
61A1  1C840002           [141] call       16  4   2    ; R16 := R16(R17 to R19)
61A5  17804008           [142] eq         0   16  258  ; R16 == 1, pc+=1 (goto [144]) if true
61A9  16800080           [143] jmp        3            ; pc+=3 (goto [147])
61AD  06C4C007           [144] gettable   16  15  259  ; R16 := R15[2]
61B1  06040403           [145] gettable   16  6   16   ; R16 := R6[R16]
61B5  C9038481           [146] settable   15  259 16   ; R15[2] := R16
61B9  04048002           [147] getupval   16  5        ; R16 := U5 , v32
61BD  40040007           [148] move       17  14       ; R17 := R14
61C1  81C40000           [149] loadk      18  3        ; R18 := 2
61C5  C1C40000           [150] loadk      19  3        ; R19 := 2
61C9  1C840002           [151] call       16  4   2    ; R16 := R16(R17 to R19)
61CD  17804008           [152] eq         0   16  258  ; R16 == 1, pc+=1 (goto [154]) if true
61D1  16800080           [153] jmp        3            ; pc+=3 (goto [157])
61D5  0644C007           [154] gettable   16  15  257  ; R16 := R15[3]
61D9  06040403           [155] gettable   16  6   16   ; R16 := R6[R16]
61DD  C9038480           [156] settable   15  257 16   ; R15[3] := R16
61E1  04048002           [157] getupval   16  5        ; R16 := U5 , v32
61E5  40040007           [158] move       17  14       ; R17 := R14
61E9  81440000           [159] loadk      18  1        ; R18 := 3
61ED  C1440000           [160] loadk      19  1        ; R19 := 3
61F1  1C840002           [161] call       16  4   2    ; R16 := R16(R17 to R19)
61F5  17804008           [162] eq         0   16  258  ; R16 == 1, pc+=1 (goto [164]) if true
61F9  16800080           [163] jmp        3            ; pc+=3 (goto [167])
61FD  0604C107           [164] gettable   16  15  260  ; R16 := R15[4]
6201  06040403           [165] gettable   16  6   16   ; R16 := R6[R16]
6205  C9030482           [166] settable   15  260 16   ; R15[4] := R16
6209  49C00305           [167] settable   1   10  15   ; R1[R10] := R15
620D  16000080           [168] jmp        1            ; pc+=1 (goto [170])
6211  1600E67F           [169] jmp        -103         ; pc+=-103 (goto [67])
6215  DF41E57F           [170] forloop    7   -106     ; R7 += R9; if R7 <= R8 then begin PC := 65; R10 := R7 end
6219  01400000           [171] loadk      0   1        ; R0 := 3
621D  17000080           [172] eq         0   256 0    ; 0 == R0, pc+=1 (goto [174]) if true
6221  16800180           [173] jmp        7            ; pc+=7 (goto [181])
6225  CA010000           [174] newtable   7   0   0    ; R7 := {} , array=0, hash=0
6229  40008003           [175] move       1   7        ; R1 := R7
622D  CA010000           [176] newtable   7   0   0    ; R7 := {} , array=0, hash=0
6231  80008003           [177] move       2   7        ; R2 := R7
6235  CA010000           [178] newtable   7   0   0    ; R7 := {} , array=0, hash=0
6239  C0008003           [179] move       3   7        ; R3 := R7
623D  01800000           [180] loadk      0   2        ; R0 := 1
6241  17000081           [181] eq         0   258 0    ; 1 == R0, pc+=1 (goto [183]) if true
6245  16C0D27F           [182] jmp        -180         ; pc+=-180 (goto [3])
6249  CA010002           [183] newtable   7   4   0    ; R7 := {} , array=4, hash=0
624D  00028000           [184] move       8   1        ; R8 := R1
6251  40020001           [185] move       9   2        ; R9 := R2
6255  83020005           [186] loadnil    10  10       ; R10,  := nil
6259  C0028001           [187] move       11  3        ; R11 := R3
625D  E2410002           [188] setlist    7   4   1    ; R7[1 to 4] := R8 to R11
6261  00018003           [189] move       4   7        ; R4 := R7
6265  C4010000           [190] getupval   7   0        ; R7 := U0 , v35
6269  DC818000           [191] call       7   1   2    ; R7 := R7()
626D  40018003           [192] move       5   7        ; R5 := R7
6271  CA010000           [193] newtable   7   0   0    ; R7 := {} , array=0, hash=0
6275  80018003           [194] move       6   7        ; R6 := R7
6279  01C00000           [195] loadk      0   3        ; R0 := 2
627D  1640CF7F           [196] jmp        -194         ; pc+=-194 (goto [3])
6281  1E008000           [197] return     0   1        ; return 
                         * constants:
6285  07000000           sizek (7)
6289  03                 const type 3
628A  0000000000000000   const [0]: (0)
6292  03                 const type 3
6293  0000000000000840   const [1]: (3)
629B  03                 const type 3
629C  000000000000F03F   const [2]: (1)
62A4  03                 const type 3
62A5  0000000000000040   const [3]: (2)
62AD  03                 const type 3
62AE  0000000000001040   const [4]: (4)
62B6  03                 const type 3
62B7  0000000000001840   const [5]: (6)
62BF  03                 const type 3
62C0  000000000000F040   const [6]: (65536)
                         * functions:
62C8  00000000           sizep (0)
                         * lines:
62CC  C5000000           sizelineinfo (197)
                         [pc] (line)
62D0  01000000           [001] (1)
62D4  01000000           [002] (1)
62D8  01000000           [003] (1)
62DC  01000000           [004] (1)
62E0  01000000           [005] (1)
62E4  01000000           [006] (1)
62E8  01000000           [007] (1)
62EC  01000000           [008] (1)
62F0  01000000           [009] (1)
62F4  01000000           [010] (1)
62F8  01000000           [011] (1)
62FC  01000000           [012] (1)
6300  01000000           [013] (1)
6304  01000000           [014] (1)
6308  01000000           [015] (1)
630C  01000000           [016] (1)
6310  01000000           [017] (1)
6314  01000000           [018] (1)
6318  01000000           [019] (1)
631C  01000000           [020] (1)
6320  01000000           [021] (1)
6324  01000000           [022] (1)
6328  01000000           [023] (1)
632C  01000000           [024] (1)
6330  01000000           [025] (1)
6334  01000000           [026] (1)
6338  01000000           [027] (1)
633C  01000000           [028] (1)
6340  01000000           [029] (1)
6344  01000000           [030] (1)
6348  01000000           [031] (1)
634C  01000000           [032] (1)
6350  01000000           [033] (1)
6354  01000000           [034] (1)
6358  01000000           [035] (1)
635C  01000000           [036] (1)
6360  01000000           [037] (1)
6364  01000000           [038] (1)
6368  01000000           [039] (1)
636C  01000000           [040] (1)
6370  01000000           [041] (1)
6374  01000000           [042] (1)
6378  01000000           [043] (1)
637C  01000000           [044] (1)
6380  01000000           [045] (1)
6384  01000000           [046] (1)
6388  01000000           [047] (1)
638C  01000000           [048] (1)
6390  01000000           [049] (1)
6394  01000000           [050] (1)
6398  01000000           [051] (1)
639C  01000000           [052] (1)
63A0  01000000           [053] (1)
63A4  01000000           [054] (1)
63A8  01000000           [055] (1)
63AC  01000000           [056] (1)
63B0  01000000           [057] (1)
63B4  01000000           [058] (1)
63B8  01000000           [059] (1)
63BC  01000000           [060] (1)
63C0  01000000           [061] (1)
63C4  01000000           [062] (1)
63C8  01000000           [063] (1)
63CC  01000000           [064] (1)
63D0  01000000           [065] (1)
63D4  01000000           [066] (1)
63D8  01000000           [067] (1)
63DC  01000000           [068] (1)
63E0  01000000           [069] (1)
63E4  01000000           [070] (1)
63E8  01000000           [071] (1)
63EC  01000000           [072] (1)
63F0  01000000           [073] (1)
63F4  01000000           [074] (1)
63F8  01000000           [075] (1)
63FC  01000000           [076] (1)
6400  01000000           [077] (1)
6404  01000000           [078] (1)
6408  01000000           [079] (1)
640C  01000000           [080] (1)
6410  01000000           [081] (1)
6414  01000000           [082] (1)
6418  01000000           [083] (1)
641C  01000000           [084] (1)
6420  01000000           [085] (1)
6424  01000000           [086] (1)
6428  01000000           [087] (1)
642C  01000000           [088] (1)
6430  01000000           [089] (1)
6434  01000000           [090] (1)
6438  01000000           [091] (1)
643C  01000000           [092] (1)
6440  01000000           [093] (1)
6444  01000000           [094] (1)
6448  01000000           [095] (1)
644C  01000000           [096] (1)
6450  01000000           [097] (1)
6454  01000000           [098] (1)
6458  01000000           [099] (1)
645C  01000000           [100] (1)
6460  01000000           [101] (1)
6464  01000000           [102] (1)
6468  01000000           [103] (1)
646C  01000000           [104] (1)
6470  01000000           [105] (1)
6474  01000000           [106] (1)
6478  01000000           [107] (1)
647C  01000000           [108] (1)
6480  01000000           [109] (1)
6484  01000000           [110] (1)
6488  01000000           [111] (1)
648C  01000000           [112] (1)
6490  01000000           [113] (1)
6494  01000000           [114] (1)
6498  01000000           [115] (1)
649C  01000000           [116] (1)
64A0  01000000           [117] (1)
64A4  01000000           [118] (1)
64A8  01000000           [119] (1)
64AC  01000000           [120] (1)
64B0  01000000           [121] (1)
64B4  01000000           [122] (1)
64B8  01000000           [123] (1)
64BC  01000000           [124] (1)
64C0  01000000           [125] (1)
64C4  01000000           [126] (1)
64C8  01000000           [127] (1)
64CC  01000000           [128] (1)
64D0  01000000           [129] (1)
64D4  01000000           [130] (1)
64D8  01000000           [131] (1)
64DC  01000000           [132] (1)
64E0  01000000           [133] (1)
64E4  01000000           [134] (1)
64E8  01000000           [135] (1)
64EC  01000000           [136] (1)
64F0  01000000           [137] (1)
64F4  01000000           [138] (1)
64F8  01000000           [139] (1)
64FC  01000000           [140] (1)
6500  01000000           [141] (1)
6504  01000000           [142] (1)
6508  01000000           [143] (1)
650C  01000000           [144] (1)
6510  01000000           [145] (1)
6514  01000000           [146] (1)
6518  01000000           [147] (1)
651C  01000000           [148] (1)
6520  01000000           [149] (1)
6524  01000000           [150] (1)
6528  01000000           [151] (1)
652C  01000000           [152] (1)
6530  01000000           [153] (1)
6534  01000000           [154] (1)
6538  01000000           [155] (1)
653C  01000000           [156] (1)
6540  01000000           [157] (1)
6544  01000000           [158] (1)
6548  01000000           [159] (1)
654C  01000000           [160] (1)
6550  01000000           [161] (1)
6554  01000000           [162] (1)
6558  01000000           [163] (1)
655C  01000000           [164] (1)
6560  01000000           [165] (1)
6564  01000000           [166] (1)
6568  01000000           [167] (1)
656C  01000000           [168] (1)
6570  01000000           [169] (1)
6574  01000000           [170] (1)
6578  01000000           [171] (1)
657C  01000000           [172] (1)
6580  01000000           [173] (1)
6584  01000000           [174] (1)
6588  01000000           [175] (1)
658C  01000000           [176] (1)
6590  01000000           [177] (1)
6594  01000000           [178] (1)
6598  01000000           [179] (1)
659C  01000000           [180] (1)
65A0  01000000           [181] (1)
65A4  01000000           [182] (1)
65A8  01000000           [183] (1)
65AC  01000000           [184] (1)
65B0  01000000           [185] (1)
65B4  01000000           [186] (1)
65B8  01000000           [187] (1)
65BC  01000000           [188] (1)
65C0  01000000           [189] (1)
65C4  01000000           [190] (1)
65C8  01000000           [191] (1)
65CC  01000000           [192] (1)
65D0  01000000           [193] (1)
65D4  01000000           [194] (1)
65D8  01000000           [195] (1)
65DC  01000000           [196] (1)
65E0  01000000           [197] (1)
                         * locals:
65E4  1D000000           sizelocvars (29)
65E8  04000000           string size (4)
65EC  76343300           "v43\0"
                         local [0]: v43
65F0  01000000             startpc (1)
65F4  C4000000             endpc   (196)
65F8  04000000           string size (4)
65FC  76343400           "v44\0"
                         local [1]: v44
6600  02000000             startpc (2)
6604  C4000000             endpc   (196)
6608  04000000           string size (4)
660C  76343500           "v45\0"
                         local [2]: v45
6610  02000000             startpc (2)
6614  C4000000             endpc   (196)
6618  04000000           string size (4)
661C  76343600           "v46\0"
                         local [3]: v46
6620  02000000             startpc (2)
6624  C4000000             endpc   (196)
6628  04000000           string size (4)
662C  76343700           "v47\0"
                         local [4]: v47
6630  02000000             startpc (2)
6634  C4000000             endpc   (196)
6638  04000000           string size (4)
663C  76343800           "v48\0"
                         local [5]: v48
6640  02000000             startpc (2)
6644  C4000000             endpc   (196)
6648  04000000           string size (4)
664C  76343900           "v49\0"
                         local [6]: v49
6650  02000000             startpc (2)
6654  C4000000             endpc   (196)
6658  0C000000           string size (12)
665C  28666F7220696E64+  "(for ind"
6664  65782900           "ex)\0"
                         local [7]: (for index)
6668  08000000             startpc (8)
666C  0E000000             endpc   (14)
6670  0C000000           string size (12)
6674  28666F72206C696D+  "(for lim"
667C  69742900           "it)\0"
                         local [8]: (for limit)
6680  08000000             startpc (8)
6684  0E000000             endpc   (14)
6688  0B000000           string size (11)
668C  28666F7220737465+  "(for ste"
6694  702900             "p)\0"
                         local [9]: (for step)
6697  08000000             startpc (8)
669B  0E000000             endpc   (14)
669F  04000000           string size (4)
66A3  76393100           "v91\0"
                         local [10]: v91
66A7  09000000             startpc (9)
66AB  0D000000             endpc   (13)
66AF  0C000000           string size (12)
66B3  28666F7220696E64+  "(for ind"
66BB  65782900           "ex)\0"
                         local [11]: (for index)
66BF  14000000             startpc (20)
66C3  38000000             endpc   (56)
66C7  0C000000           string size (12)
66CB  28666F72206C696D+  "(for lim"
66D3  69742900           "it)\0"
                         local [12]: (for limit)
66D7  14000000             startpc (20)
66DB  38000000             endpc   (56)
66DF  0B000000           string size (11)
66E3  28666F7220737465+  "(for ste"
66EB  702900             "p)\0"
                         local [13]: (for step)
66EE  14000000             startpc (20)
66F2  38000000             endpc   (56)
66F6  04000000           string size (4)
66FA  76393300           "v93\0"
                         local [14]: v93
66FE  15000000             startpc (21)
6702  37000000             endpc   (55)
6706  04000000           string size (4)
670A  76393400           "v94\0"
                         local [15]: v94
670E  16000000             startpc (22)
6712  37000000             endpc   (55)
6716  04000000           string size (4)
671A  76393500           "v95\0"
                         local [16]: v95
671E  17000000             startpc (23)
6722  37000000             endpc   (55)
6726  04000000           string size (4)
672A  76393600           "v96\0"
                         local [17]: v96
672E  17000000             startpc (23)
6732  37000000             endpc   (55)
6736  0C000000           string size (12)
673A  28666F7220696E64+  "(for ind"
6742  65782900           "ex)\0"
                         local [18]: (for index)
6746  3F000000             startpc (63)
674A  AA000000             endpc   (170)
674E  0C000000           string size (12)
6752  28666F72206C696D+  "(for lim"
675A  69742900           "it)\0"
                         local [19]: (for limit)
675E  3F000000             startpc (63)
6762  AA000000             endpc   (170)
6766  0B000000           string size (11)
676A  28666F7220737465+  "(for ste"
6772  702900             "p)\0"
                         local [20]: (for step)
6775  3F000000             startpc (63)
6779  AA000000             endpc   (170)
677D  04000000           string size (4)
6781  76393700           "v97\0"
                         local [21]: v97
6785  40000000             startpc (64)
6789  A9000000             endpc   (169)
678D  04000000           string size (4)
6791  76393800           "v98\0"
                         local [22]: v98
6795  41000000             startpc (65)
6799  A9000000             endpc   (169)
679D  04000000           string size (4)
67A1  76393900           "v99\0"
                         local [23]: v99
67A5  42000000             startpc (66)
67A9  A9000000             endpc   (169)
67AD  05000000           string size (5)
67B1  7631323800         "v128\0"
                         local [24]: v128
67B6  53000000             startpc (83)
67BA  A7000000             endpc   (167)
67BE  05000000           string size (5)
67C2  7631323900         "v129\0"
                         local [25]: v129
67C7  58000000             startpc (88)
67CB  A7000000             endpc   (167)
67CF  05000000           string size (5)
67D3  7631333000         "v130\0"
                         local [26]: v130
67D8  5F000000             startpc (95)
67DC  A7000000             endpc   (167)
67E0  05000000           string size (5)
67E4  7631333200         "v132\0"
                         local [27]: v132
67E9  62000000             startpc (98)
67ED  6C000000             endpc   (108)
67F1  05000000           string size (5)
67F5  7631343300         "v143\0"
                         local [28]: v143
67FA  7D000000             startpc (125)
67FE  88000000             endpc   (136)
                         * upvalues:
6802  07000000           sizeupvalues (7)
6806  04000000           string size (4)
680A  76333500           "v35\0"
                         upvalue [0]: v35
680E  04000000           string size (4)
6812  76343000           "v40\0"
                         upvalue [1]: v40
6816  04000000           string size (4)
681A  76333300           "v33\0"
                         upvalue [2]: v33
681E  04000000           string size (4)
6822  76333600           "v36\0"
                         upvalue [3]: v36
6826  04000000           string size (4)
682A  76333700           "v37\0"
                         upvalue [4]: v37
682E  04000000           string size (4)
6832  76333200           "v32\0"
                         upvalue [5]: v32
6836  04000000           string size (4)
683A  76333400           "v34\0"
                         upvalue [6]: v34
                         ** end of function 0_2_0 **

                         
683E                     ** function [1] definition (level 3) 0_2_1
                         ** start of function 0_2_1 **
683E  00000000           string size (0)
                         source name: (none)
6842  01000000           line defined (1)
6846  01000000           last line defined (1)
684A  03                 nups (3)
684B  00                 numparams (0)
684C  00                 is_vararg (0)
684D  09                 maxstacksize (9)
                         * code:
684E  1D000000           sizecode (29)
6852  01000000           [01] loadk      0   0        ; R0 := 0
6856  43000002           [02] loadnil    1   4        ; R1, R2, R3, R4,  := nil
685A  17004000           [03] eq         0   0   256  ; R0 == 0, pc+=1 (goto [5]) if true
685E  16400380           [04] jmp        14           ; pc+=14 (goto [19])
6862  44010000           [05] getupval   5   0        ; R5 := U0 , v9
6866  84018000           [06] getupval   6   1        ; R6 := U1 , v27
686A  C4010001           [07] getupval   7   2        ; R7 := U2 , v30
686E  04020001           [08] getupval   8   2        ; R8 := U2 , v30
6872  0C424004           [09] add        8   8   257  ; R8 := R8 + 3
6876  5C410102           [10] call       5   4   5    ; R5 to R8 := R5(R6 to R8)
687A  00010004           [11] move       4   8        ; R4 := R8
687E  C0008003           [12] move       3   7        ; R3 := R7
6882  80000003           [13] move       2   6        ; R2 := R6
6886  40008002           [14] move       1   5        ; R1 := R5
688A  44010001           [15] getupval   5   2        ; R5 := U2 , v30
688E  4C81C002           [16] add        5   5   258  ; R5 := R5 + 4
6892  48010001           [17] setupval   5   2        ; U2 := R5 , v30
6896  01C00000           [18] loadk      0   3        ; R0 := 1
689A  17008081           [19] eq         0   259 0    ; 1 == R0, pc+=1 (goto [21]) if true
689E  1640FB7F           [20] jmp        -18          ; pc+=-18 (goto [3])
68A2  4E014102           [21] mul        5   4   260  ; R5 := R4 * 16777216
68A6  8E41C101           [22] mul        6   3   261  ; R6 := R3 * 65536
68AA  4C818102           [23] add        5   5   6    ; R5 := R5 + R6
68AE  8E814101           [24] mul        6   2   262  ; R6 := R2 * 256
68B2  4C818102           [25] add        5   5   6    ; R5 := R5 + R6
68B6  4C418002           [26] add        5   5   1    ; R5 := R5 + R1
68BA  5E010001           [27] return     5   2        ; return R5
68BE  1640F97F           [28] jmp        -26          ; pc+=-26 (goto [3])
68C2  1E008000           [29] return     0   1        ; return 
                         * constants:
68C6  07000000           sizek (7)
68CA  03                 const type 3
68CB  0000000000000000   const [0]: (0)
68D3  03                 const type 3
68D4  0000000000000840   const [1]: (3)
68DC  03                 const type 3
68DD  0000000000001040   const [2]: (4)
68E5  03                 const type 3
68E6  000000000000F03F   const [3]: (1)
68EE  03                 const type 3
68EF  0000000000007041   const [4]: (16777216)
68F7  03                 const type 3
68F8  000000000000F040   const [5]: (65536)
6900  03                 const type 3
6901  0000000000007040   const [6]: (256)
                         * functions:
6909  00000000           sizep (0)
                         * lines:
690D  1D000000           sizelineinfo (29)
                         [pc] (line)
6911  01000000           [01] (1)
6915  01000000           [02] (1)
6919  01000000           [03] (1)
691D  01000000           [04] (1)
6921  01000000           [05] (1)
6925  01000000           [06] (1)
6929  01000000           [07] (1)
692D  01000000           [08] (1)
6931  01000000           [09] (1)
6935  01000000           [10] (1)
6939  01000000           [11] (1)
693D  01000000           [12] (1)
6941  01000000           [13] (1)
6945  01000000           [14] (1)
6949  01000000           [15] (1)
694D  01000000           [16] (1)
6951  01000000           [17] (1)
6955  01000000           [18] (1)
6959  01000000           [19] (1)
695D  01000000           [20] (1)
6961  01000000           [21] (1)
6965  01000000           [22] (1)
6969  01000000           [23] (1)
696D  01000000           [24] (1)
6971  01000000           [25] (1)
6975  01000000           [26] (1)
6979  01000000           [27] (1)
697D  01000000           [28] (1)
6981  01000000           [29] (1)
                         * locals:
6985  05000000           sizelocvars (5)
6989  04000000           string size (4)
698D  76353000           "v50\0"
                         local [0]: v50
6991  01000000             startpc (1)
6995  1C000000             endpc   (28)
6999  04000000           string size (4)
699D  76353100           "v51\0"
                         local [1]: v51
69A1  02000000             startpc (2)
69A5  1C000000             endpc   (28)
69A9  04000000           string size (4)
69AD  76353200           "v52\0"
                         local [2]: v52
69B1  02000000             startpc (2)
69B5  1C000000             endpc   (28)
69B9  04000000           string size (4)
69BD  76353300           "v53\0"
                         local [3]: v53
69C1  02000000             startpc (2)
69C5  1C000000             endpc   (28)
69C9  04000000           string size (4)
69CD  76353400           "v54\0"
                         local [4]: v54
69D1  02000000             startpc (2)
69D5  1C000000             endpc   (28)
                         * upvalues:
69D9  03000000           sizeupvalues (3)
69DD  03000000           string size (3)
69E1  763900             "v9\0"
                         upvalue [0]: v9
69E4  04000000           string size (4)
69E8  76323700           "v27\0"
                         upvalue [1]: v27
69EC  04000000           string size (4)
69F0  76333000           "v30\0"
                         upvalue [2]: v30
                         ** end of function 0_2_1 **

                         
69F4                     ** function [2] definition (level 3) 0_2_2
                         ** start of function 0_2_2 **
69F4  00000000           string size (0)
                         source name: (none)
69F8  01000000           line defined (1)
69FC  01000000           last line defined (1)
6A00  07                 nups (7)
6A01  03                 numparams (3)
6A02  00                 is_vararg (0)
6A03  08                 maxstacksize (8)
                         * code:
6A04  1A000000           sizecode (26)
6A08  C1000000           [01] loadk      3   0        ; R3 := 0
6A0C  03010003           [02] loadnil    4   6        ; R4, R5, R6,  := nil
6A10  1700C001           [03] eq         0   3   256  ; R3 == 0, pc+=1 (goto [5]) if true
6A14  16800080           [04] jmp        3            ; pc+=3 (goto [8])
6A18  06414000           [05] gettable   4   0   257  ; R4 := R0[1]
6A1C  46814000           [06] gettable   5   0   258  ; R5 := R0[2]
6A20  C1400000           [07] loadk      3   1        ; R3 := 1
6A24  1740C001           [08] eq         0   3   257  ; R3 == 1, pc+=1 (goto [10]) if true
6A28  1600FE7F           [09] jmp        -7           ; pc+=-7 (goto [3])
6A2C  86C14000           [10] gettable   6   0   259  ; R6 := R0[3]
6A30  E4010000           [11] closure    7   0        ; R7 := closure(function[0]) 12 upvalues
6A34  00000002           [12] move       0   4        ; R0 := R4
6A38  00008002           [13] move       0   5        ; R0 := R5
6A3C  00000003           [14] move       0   6        ; R0 := R6
6A40  04000000           [15] getupval   0   0        ; R0 := U0 , v39
6A44  04008000           [16] getupval   0   1        ; R0 := U1 , v20
6A48  00008000           [17] move       0   1        ; R0 := R1
6A4C  04000001           [18] getupval   0   2        ; R0 := U2 , v21
6A50  00000001           [19] move       0   2        ; R0 := R2
6A54  04008001           [20] getupval   0   3        ; R0 := U3 , v7
6A58  04000002           [21] getupval   0   4        ; R0 := U4 , v15
6A5C  04008002           [22] getupval   0   5        ; R0 := U5 , v41
6A60  04000003           [23] getupval   0   6        ; R0 := U6 , v18
6A64  DE010001           [24] return     7   2        ; return R7
6A68  1600FA7F           [25] jmp        -23          ; pc+=-23 (goto [3])
6A6C  1E008000           [26] return     0   1        ; return 
                         * constants:
6A70  04000000           sizek (4)
6A74  03                 const type 3
6A75  0000000000000000   const [0]: (0)
6A7D  03                 const type 3
6A7E  000000000000F03F   const [1]: (1)
6A86  03                 const type 3
6A87  0000000000000040   const [2]: (2)
6A8F  03                 const type 3
6A90  0000000000000840   const [3]: (3)
                         * functions:
6A98  01000000           sizep (1)
                         
6A9C                     ** function [0] definition (level 4) 0_2_2_0
                         ** start of function 0_2_2_0 **
6A9C  00000000           string size (0)
                         source name: (none)
6AA0  01000000           line defined (1)
6AA4  01000000           last line defined (1)
6AA8  0C                 nups (12)
6AA9  00                 numparams (0)
6AAA  03                 is_vararg (3)
6AAB  22                 maxstacksize (34)
                         * code:
6AAC  80070000           sizecode (1920)
6AB0  44000000           [0001] getupval   1   0        ; R1 := U0 , v59
6AB4  84008000           [0002] getupval   2   1        ; R2 := U1 , v60
6AB8  C4000001           [0003] getupval   3   2        ; R3 := U2 , v61
6ABC  04018001           [0004] getupval   4   3        ; R4 := U3 , v39
6AC0  41010000           [0005] loadk      5   0        ; R5 := 1
6AC4  81410000           [0006] loadk      6   1        ; R6 := -1
6AC8  CA010000           [0007] newtable   7   0   0    ; R7 := {} , array=0, hash=0
6ACC  0A020000           [0008] newtable   8   0   0    ; R8 := {} , array=0, hash=0
6AD0  65020000           [0009] vararg     9   0        ; R9 to top := ...
6AD4  22420000           [0010] setlist    8   0   1    ; R8[1 to top] := R9 to top
6AD8  44020002           [0011] getupval   9   4        ; R9 := U4 , v20
6ADC  81820000           [0012] loadk      10  2        ; R10 := "#"
6AE0  E5020000           [0013] vararg     11  0        ; R11 to top := ...
6AE4  5C820000           [0014] call       9   0   2    ; R9 := R9(R10 to top)
6AE8  4D02C004           [0015] sub        9   9   256  ; R9 := R9 - 1
6AEC  8A020000           [0016] newtable   10  0   0    ; R10 := {} , array=0, hash=0
6AF0  CA020000           [0017] newtable   11  0   0    ; R11 := {} , array=0, hash=0
6AF4  01C30000           [0018] loadk      12  3        ; R12 := 0
6AF8  40038004           [0019] move       13  9        ; R13 := R9
6AFC  81030000           [0020] loadk      14  0        ; R14 := 1
6B00  20430280           [0021] forprep    12  10       ; R12 -= R14; PC := 32
6B04  19C08301           [0022] le         0   3   15   ; R3 <= R15, pc+=1 (goto [24]) if true
6B08  16000180           [0023] jmp        5            ; pc+=5 (goto [29])
6B0C  0DC48007           [0024] sub        16  15  3    ; R16 := R15 - R3
6B10  4C04C007           [0025] add        17  15  256  ; R17 := R15 + 1
6B14  46440404           [0026] gettable   17  8   17   ; R17 := R8[R17]
6B18  C9410408           [0027] settable   7   16  17   ; R7[R16] := R17
6B1C  16800080           [0028] jmp        3            ; pc+=3 (goto [32])
6B20  0C04C007           [0029] add        16  15  256  ; R16 := R15 + 1
6B24  06040404           [0030] gettable   16  8   16   ; R16 := R8[R16]
6B28  C9028407           [0031] settable   11  15  16   ; R11[R15] := R16
6B2C  1F03FD7F           [0032] forloop    12  -11      ; R12 += R14; if R12 <= R13 then begin PC := 22; R15 := R12 end
6B30  0DC38004           [0033] sub        12  9   3    ; R12 := R9 - R3
6B34  0C034006           [0034] add        12  12  256  ; R12 := R12 + 1
6B38  0CC34006           [0035] add        12  12  259  ; R12 := R12 + 0
6B3C  43030007           [0036] loadnil    13  14       ; R13, R14,  := nil
6B40  46438100           [0037] gettable   13  1   5    ; R13 := R1[R5]
6B44  8603C006           [0038] gettable   14  13  256  ; R14 := R13[1]
6B48  19004107           [0039] le         0   14  260  ; R14 <= 56, pc+=1 (goto [41]) if true
6B4C  16C0EC80           [0040] jmp        948          ; pc+=948 (goto [989])
6B50  19404107           [0041] le         0   14  261  ; R14 <= 27, pc+=1 (goto [43]) if true
6B54  16007680           [0042] jmp        473          ; pc+=473 (goto [516])
6B58  19804107           [0043] le         0   14  262  ; R14 <= 13, pc+=1 (goto [45]) if true
6B5C  16C03380           [0044] jmp        208          ; pc+=208 (goto [253])
6B60  19C04107           [0045] le         0   14  263  ; R14 <= 6, pc+=1 (goto [47]) if true
6B64  16800F80           [0046] jmp        63           ; pc+=63 (goto [110])
6B68  19004207           [0047] le         0   14  264  ; R14 <= 2, pc+=1 (goto [49]) if true
6B6C  16000580           [0048] jmp        21           ; pc+=21 (goto [70])
6B70  19C04007           [0049] le         0   14  259  ; R14 <= 0, pc+=1 (goto [51]) if true
6B74  16000180           [0050] jmp        5            ; pc+=5 (goto [56])
6B78  C603C206           [0051] gettable   15  13  264  ; R15 := R13[2]
6B7C  C6C38305           [0052] gettable   15  11  15   ; R15 := R11[R15]
6B80  DD038000           [0053] tailcall   15  1   0    ; R15 to top := R15()
6B84  DE030000           [0054] return     15  0        ; return R15 to top
6B88  1640D181           [0055] jmp        1862         ; pc+=1862 (goto [1918])
6B8C  17004007           [0056] eq         0   14  256  ; R14 == 1, pc+=1 (goto [58]) if true
6B90  16400180           [0057] jmp        6            ; pc+=6 (goto [64])
6B94  C603C206           [0058] gettable   15  13  264  ; R15 := R13[2]
6B98  C6C38305           [0059] gettable   15  11  15   ; R15 := R11[R15]
6B9C  0644C206           [0060] gettable   16  13  265  ; R16 := R13[3]
6BA0  4684C206           [0061] gettable   17  13  266  ; R17 := R13[4]
6BA4  C9430408           [0062] settable   15  16  17   ; R15[R16] := R17
6BA8  1640CF81           [0063] jmp        1854         ; pc+=1854 (goto [1918])
6BAC  C603C206           [0064] gettable   15  13  264  ; R15 := R13[2]
6BB0  04048002           [0065] getupval   16  5        ; R16 := U5 , v56
6BB4  4644C206           [0066] gettable   17  13  265  ; R17 := R13[3]
6BB8  06440408           [0067] gettable   16  16  17   ; R16 := R16[R17]
6BBC  C9028407           [0068] settable   11  15  16   ; R11[R15] := R16
6BC0  16C0CD81           [0069] jmp        1848         ; pc+=1848 (goto [1918])
6BC4  19804207           [0070] le         0   14  266  ; R14 <= 4, pc+=1 (goto [72]) if true
6BC8  16400380           [0071] jmp        14           ; pc+=14 (goto [86])
6BCC  17404207           [0072] eq         0   14  265  ; R14 == 3, pc+=1 (goto [74]) if true
6BD0  16C00180           [0073] jmp        8            ; pc+=8 (goto [82])
6BD4  C603C206           [0074] gettable   15  13  264  ; R15 := R13[2]
6BD8  C6C38305           [0075] gettable   15  11  15   ; R15 := R11[R15]
6BDC  DA030000           [0076] test       15      0    ; if R15 then pc+=1 (goto [78])
6BE0  16400080           [0077] jmp        2            ; pc+=2 (goto [80])
6BE4  4C01C002           [0078] add        5   5   256  ; R5 := R5 + 1
6BE8  1640CB81           [0079] jmp        1838         ; pc+=1838 (goto [1918])
6BEC  4641C206           [0080] gettable   5   13  265  ; R5 := R13[3]
6BF0  16C0CA81           [0081] jmp        1836         ; pc+=1836 (goto [1918])
6BF4  C603C206           [0082] gettable   15  13  264  ; R15 := R13[2]
6BF8  0644C206           [0083] gettable   16  13  265  ; R16 := R13[3]
6BFC  C9028407           [0084] settable   11  15  16   ; R11[R15] := R16
6C00  16C0C981           [0085] jmp        1832         ; pc+=1832 (goto [1918])
6C04  18808385           [0086] lt         0   267 14   ; 5 < R14, pc+=1 (goto [88]) if true
6C08  16800380           [0087] jmp        15           ; pc+=15 (goto [103])
6C0C  C1C30000           [0088] loadk      15  3        ; R15 := 0
6C10  03040008           [0089] loadnil    16  16       ; R16,  := nil
6C14  17C08381           [0090] eq         0   259 15   ; 0 == R15, pc+=1 (goto [92]) if true
6C18  1640FF7F           [0091] jmp        -2           ; pc+=-2 (goto [90])
6C1C  0604C206           [0092] gettable   16  13  264  ; R16 := R13[2]
6C20  46048405           [0093] gettable   17  11  16   ; R17 := R11[R16]
6C24  84040003           [0094] getupval   18  6        ; R18 := U6 , v21
6C28  C0048005           [0095] move       19  11       ; R19 := R11
6C2C  0C054008           [0096] add        20  16  256  ; R20 := R16 + 1
6C30  40050003           [0097] move       21  6        ; R21 := R6
6C34  9C040002           [0098] call       18  4   0    ; R18 to top := R18(R19 to R21)
6C38  5C440000           [0099] call       17  0   1    ;  := R17(R18 to top)
6C3C  1600C681           [0100] jmp        1817         ; pc+=1817 (goto [1918])
6C40  16C0FC7F           [0101] jmp        -12          ; pc+=-12 (goto [90])
6C44  1680C581           [0102] jmp        1815         ; pc+=1815 (goto [1918])
6C48  C603C206           [0103] gettable   15  13  264  ; R15 := R13[2]
6C4C  0644C206           [0104] gettable   16  13  265  ; R16 := R13[3]
6C50  06048405           [0105] gettable   16  11  16   ; R16 := R11[R16]
6C54  4684C206           [0106] gettable   17  13  266  ; R17 := R13[4]
6C58  10440408           [0107] mod        16  16  17   ; R16 := R16 % R17
6C5C  C9028407           [0108] settable   11  15  16   ; R11[R15] := R16
6C60  16C0C381           [0109] jmp        1808         ; pc+=1808 (goto [1918])
6C64  19004307           [0110] le         0   14  268  ; R14 <= 9, pc+=1 (goto [112]) if true
6C68  16001180           [0111] jmp        69           ; pc+=69 (goto [181])
6C6C  19404307           [0112] le         0   14  269  ; R14 <= 7, pc+=1 (goto [114]) if true
6C70  16C00380           [0113] jmp        16           ; pc+=16 (goto [130])
6C74  C1C30000           [0114] loadk      15  3        ; R15 := 0
6C78  03040008           [0115] loadnil    16  16       ; R16,  := nil
6C7C  17C08381           [0116] eq         0   259 15   ; 0 == R15, pc+=1 (goto [118]) if true
6C80  1640FF7F           [0117] jmp        -2           ; pc+=-2 (goto [116])
6C84  0604C206           [0118] gettable   16  13  264  ; R16 := R13[2]
6C88  46048405           [0119] gettable   17  11  16   ; R17 := R11[R16]
6C8C  84040003           [0120] getupval   18  6        ; R18 := U6 , v21
6C90  C0048005           [0121] move       19  11       ; R19 := R11
6C94  0C054008           [0122] add        20  16  256  ; R20 := R16 + 1
6C98  40050003           [0123] move       21  6        ; R21 := R6
6C9C  9C040002           [0124] call       18  4   0    ; R18 to top := R18(R19 to R21)
6CA0  5C840000           [0125] call       17  0   2    ; R17 := R17(R18 to top)
6CA4  C9420408           [0126] settable   11  16  17   ; R11[R16] := R17
6CA8  1640BF81           [0127] jmp        1790         ; pc+=1790 (goto [1918])
6CAC  1680FC7F           [0128] jmp        -13          ; pc+=-13 (goto [116])
6CB0  16C0BE81           [0129] jmp        1788         ; pc+=1788 (goto [1918])
6CB4  18800387           [0130] lt         0   270 14   ; 8 < R14, pc+=1 (goto [132]) if true
6CB8  16000A80           [0131] jmp        41           ; pc+=41 (goto [173])
6CBC  C1C30000           [0132] loadk      15  3        ; R15 := 0
6CC0  03048009           [0133] loadnil    16  19       ; R16, R17, R18, R19,  := nil
6CC4  17C0C007           [0134] eq         0   15  259  ; R15 == 0, pc+=1 (goto [136]) if true
6CC8  16000380           [0135] jmp        13           ; pc+=13 (goto [149])
6CCC  0604C206           [0136] gettable   16  13  264  ; R16 := R13[2]
6CD0  00050002           [0137] move       20  4        ; R20 := R4
6CD4  46058405           [0138] gettable   21  11  16   ; R21 := R11[R16]
6CD8  84050003           [0139] getupval   22  6        ; R22 := U6 , v21
6CDC  C0058005           [0140] move       23  11       ; R23 := R11
6CE0  0C064008           [0141] add        24  16  256  ; R24 := R16 + 1
6CE4  4646C206           [0142] gettable   25  13  265  ; R25 := R13[3]
6CE8  9C050002           [0143] call       22  4   0    ; R22 to top := R22(R23 to R25)
6CEC  5C050000           [0144] call       21  0   0    ; R21 to top := R21(R22 to top)
6CF0  1CC50000           [0145] call       20  0   3    ; R20, R21 := R20(R21 to top)
6CF4  8004800A           [0146] move       18  21       ; R18 := R21
6CF8  4004000A           [0147] move       17  20       ; R17 := R20
6CFC  C1030000           [0148] loadk      15  0        ; R15 := 1
6D00  1700C007           [0149] eq         0   15  256  ; R15 == 1, pc+=1 (goto [151]) if true
6D04  16C00080           [0150] jmp        4            ; pc+=4 (goto [155])
6D08  0C050409           [0151] add        20  18  16   ; R20 := R18 + R16
6D0C  8D01400A           [0152] sub        6   20  256  ; R6 := R20 - 1
6D10  C1C40000           [0153] loadk      19  3        ; R19 := 0
6D14  C1030200           [0154] loadk      15  8        ; R15 := 2
6D18  1700C207           [0155] eq         0   15  264  ; R15 == 2, pc+=1 (goto [157]) if true
6D1C  1600FA7F           [0156] jmp        -23          ; pc+=-23 (goto [134])
6D20  00050008           [0157] move       20  16       ; R20 := R16
6D24  40050003           [0158] move       21  6        ; R21 := R6
6D28  81050000           [0159] loadk      22  0        ; R22 := 1
6D2C  20C50180           [0160] forprep    20  8        ; R20 -= R22; PC := 169
6D30  01C60000           [0161] loadk      24  3        ; R24 := 0
6D34  17C0400C           [0162] eq         0   24  259  ; R24 == 0, pc+=1 (goto [164]) if true
6D38  1640FF7F           [0163] jmp        -2           ; pc+=-2 (goto [162])
6D3C  CC04C009           [0164] add        19  19  256  ; R19 := R19 + 1
6D40  46C68408           [0165] gettable   25  17  19   ; R25 := R17[R19]
6D44  C942860B           [0166] settable   11  23  25   ; R11[R23] := R25
6D48  16000080           [0167] jmp        1            ; pc+=1 (goto [169])
6D4C  1600FE7F           [0168] jmp        -7           ; pc+=-7 (goto [162])
6D50  1F85FD7F           [0169] forloop    20  -9       ; R20 += R22; if R20 <= R21 then begin PC := 161; R23 := R20 end
6D54  1680B481           [0170] jmp        1747         ; pc+=1747 (goto [1918])
6D58  1640F67F           [0171] jmp        -38          ; pc+=-38 (goto [134])
6D5C  1600B481           [0172] jmp        1745         ; pc+=1745 (goto [1918])
6D60  C603C206           [0173] gettable   15  13  264  ; R15 := R13[2]
6D64  04040003           [0174] getupval   16  6        ; R16 := U6 , v21
6D68  40048005           [0175] move       17  11       ; R17 := R11
6D6C  80048007           [0176] move       18  15       ; R18 := R15
6D70  C0040003           [0177] move       19  6        ; R19 := R6
6D74  1D040002           [0178] tailcall   16  4   0    ; R16 to top := R16(R17 to R19)
6D78  1E040000           [0179] return     16  0        ; return R16 to top
6D7C  1600B281           [0180] jmp        1737         ; pc+=1737 (goto [1918])
6D80  19C04307           [0181] le         0   14  271  ; R14 <= 11, pc+=1 (goto [183]) if true
6D84  16000680           [0182] jmp        25           ; pc+=25 (goto [208])
6D88  18800388           [0183] lt         0   272 14   ; 10 < R14, pc+=1 (goto [185]) if true
6D8C  16400380           [0184] jmp        14           ; pc+=14 (goto [199])
6D90  C1C30000           [0185] loadk      15  3        ; R15 := 0
6D94  03040008           [0186] loadnil    16  16       ; R16,  := nil
6D98  17C0C007           [0187] eq         0   15  259  ; R15 == 0, pc+=1 (goto [189]) if true
6D9C  1640FF7F           [0188] jmp        -2           ; pc+=-2 (goto [187])
6DA0  0604C206           [0189] gettable   16  13  264  ; R16 := R13[2]
6DA4  44040003           [0190] getupval   17  6        ; R17 := U6 , v21
6DA8  80048005           [0191] move       18  11       ; R18 := R11
6DAC  C0040008           [0192] move       19  16       ; R19 := R16
6DB0  00050003           [0193] move       20  6        ; R20 := R6
6DB4  5D040002           [0194] tailcall   17  4   0    ; R17 to top := R17(R18 to R20)
6DB8  5E040000           [0195] return     17  0        ; return R17 to top
6DBC  1600AE81           [0196] jmp        1721         ; pc+=1721 (goto [1918])
6DC0  1600FD7F           [0197] jmp        -11          ; pc+=-11 (goto [187])
6DC4  1680AD81           [0198] jmp        1719         ; pc+=1719 (goto [1918])
6DC8  C603C206           [0199] gettable   15  13  264  ; R15 := R13[2]
6DCC  C6C38305           [0200] gettable   15  11  15   ; R15 := R11[R15]
6DD0  0684C206           [0201] gettable   16  13  266  ; R16 := R13[4]
6DD4  19008407           [0202] le         0   15  16   ; R15 <= R16, pc+=1 (goto [204]) if true
6DD8  16400080           [0203] jmp        2            ; pc+=2 (goto [206])
6DDC  4C01C002           [0204] add        5   5   256  ; R5 := R5 + 1
6DE0  16C0AB81           [0205] jmp        1712         ; pc+=1712 (goto [1918])
6DE4  4641C206           [0206] gettable   5   13  265  ; R5 := R13[3]
6DE8  1640AB81           [0207] jmp        1710         ; pc+=1710 (goto [1918])
6DEC  17404407           [0208] eq         0   14  273  ; R14 == 12, pc+=1 (goto [210]) if true
6DF0  16400080           [0209] jmp        2            ; pc+=2 (goto [212])
6DF4  4641C206           [0210] gettable   5   13  265  ; R5 := R13[3]
6DF8  1640AA81           [0211] jmp        1706         ; pc+=1706 (goto [1918])
6DFC  C1C30000           [0212] loadk      15  3        ; R15 := 0
6E00  03048009           [0213] loadnil    16  19       ; R16, R17, R18, R19,  := nil
6E04  1700C207           [0214] eq         0   15  264  ; R15 == 2, pc+=1 (goto [216]) if true
6E08  16400380           [0215] jmp        14           ; pc+=14 (goto [230])
6E0C  00050008           [0216] move       20  16       ; R20 := R16
6E10  40050003           [0217] move       21  6        ; R21 := R6
6E14  81050000           [0218] loadk      22  0        ; R22 := 1
6E18  20C50180           [0219] forprep    20  8        ; R20 -= R22; PC := 228
6E1C  01C60000           [0220] loadk      24  3        ; R24 := 0
6E20  17C0400C           [0221] eq         0   24  259  ; R24 == 0, pc+=1 (goto [223]) if true
6E24  1640FF7F           [0222] jmp        -2           ; pc+=-2 (goto [221])
6E28  CC04C009           [0223] add        19  19  256  ; R19 := R19 + 1
6E2C  46C68408           [0224] gettable   25  17  19   ; R25 := R17[R19]
6E30  C942860B           [0225] settable   11  23  25   ; R11[R23] := R25
6E34  16000080           [0226] jmp        1            ; pc+=1 (goto [228])
6E38  1600FE7F           [0227] jmp        -7           ; pc+=-7 (goto [221])
6E3C  1F85FD7F           [0228] forloop    20  -9       ; R20 += R22; if R20 <= R21 then begin PC := 220; R23 := R20 end
6E40  16C0A581           [0229] jmp        1688         ; pc+=1688 (goto [1918])
6E44  17C0C007           [0230] eq         0   15  259  ; R15 == 0, pc+=1 (goto [232]) if true
6E48  16000380           [0231] jmp        13           ; pc+=13 (goto [245])
6E4C  0604C206           [0232] gettable   16  13  264  ; R16 := R13[2]
6E50  00050002           [0233] move       20  4        ; R20 := R4
6E54  46058405           [0234] gettable   21  11  16   ; R21 := R11[R16]
6E58  84050003           [0235] getupval   22  6        ; R22 := U6 , v21
6E5C  C0058005           [0236] move       23  11       ; R23 := R11
6E60  0C064008           [0237] add        24  16  256  ; R24 := R16 + 1
6E64  40060003           [0238] move       25  6        ; R25 := R6
6E68  9C050002           [0239] call       22  4   0    ; R22 to top := R22(R23 to R25)
6E6C  5C050000           [0240] call       21  0   0    ; R21 to top := R21(R22 to top)
6E70  1CC50000           [0241] call       20  0   3    ; R20, R21 := R20(R21 to top)
6E74  8004800A           [0242] move       18  21       ; R18 := R21
6E78  4004000A           [0243] move       17  20       ; R17 := R20
6E7C  C1030000           [0244] loadk      15  0        ; R15 := 1
6E80  1700C007           [0245] eq         0   15  256  ; R15 == 1, pc+=1 (goto [247]) if true
6E84  1680F77F           [0246] jmp        -33          ; pc+=-33 (goto [214])
6E88  0C050409           [0247] add        20  18  16   ; R20 := R18 + R16
6E8C  8D01400A           [0248] sub        6   20  256  ; R6 := R20 - 1
6E90  C1C40000           [0249] loadk      19  3        ; R19 := 0
6E94  C1030200           [0250] loadk      15  8        ; R15 := 2
6E98  1640F67F           [0251] jmp        -38          ; pc+=-38 (goto [214])
6E9C  1600A081           [0252] jmp        1665         ; pc+=1665 (goto [1918])
6EA0  19804407           [0253] le         0   14  274  ; R14 <= 20, pc+=1 (goto [255]) if true
6EA4  16802880           [0254] jmp        163          ; pc+=163 (goto [418])
6EA8  19C04407           [0255] le         0   14  275  ; R14 <= 16, pc+=1 (goto [257]) if true
6EAC  16400880           [0256] jmp        34           ; pc+=34 (goto [291])
6EB0  19004507           [0257] le         0   14  276  ; R14 <= 14, pc+=1 (goto [259]) if true
6EB4  16800180           [0258] jmp        7            ; pc+=7 (goto [266])
6EB8  C603C206           [0259] gettable   15  13  264  ; R15 := R13[2]
6EBC  06C48305           [0260] gettable   16  11  15   ; R16 := R11[R15]
6EC0  4C04C007           [0261] add        17  15  256  ; R17 := R15 + 1
6EC4  46448405           [0262] gettable   17  11  17   ; R17 := R11[R17]
6EC8  1C840001           [0263] call       16  2   2    ; R16 := R16(R17)
6ECC  C9028407           [0264] settable   11  15  16   ; R11[R15] := R16
6ED0  16C09C81           [0265] jmp        1652         ; pc+=1652 (goto [1918])
6ED4  1880838A           [0266] lt         0   277 14   ; 15 < R14, pc+=1 (goto [268]) if true
6ED8  16800180           [0267] jmp        7            ; pc+=7 (goto [275])
6EDC  C603C206           [0268] gettable   15  13  264  ; R15 := R13[2]
6EE0  C6C38305           [0269] gettable   15  11  15   ; R15 := R11[R15]
6EE4  0644C206           [0270] gettable   16  13  265  ; R16 := R13[3]
6EE8  4684C206           [0271] gettable   17  13  266  ; R17 := R13[4]
6EEC  46448405           [0272] gettable   17  11  17   ; R17 := R11[R17]
6EF0  C9430408           [0273] settable   15  16  17   ; R15[R16] := R17
6EF4  16809A81           [0274] jmp        1643         ; pc+=1643 (goto [1918])
6EF8  C1C30000           [0275] loadk      15  3        ; R15 := 0
6EFC  03040008           [0276] loadnil    16  16       ; R16,  := nil
6F00  17C08381           [0277] eq         0   259 15   ; 0 == R15, pc+=1 (goto [279]) if true
6F04  1640FF7F           [0278] jmp        -2           ; pc+=-2 (goto [277])
6F08  0604C206           [0279] gettable   16  13  264  ; R16 := R13[2]
6F0C  46048405           [0280] gettable   17  11  16   ; R17 := R11[R16]
6F10  84040003           [0281] getupval   18  6        ; R18 := U6 , v21
6F14  C0048005           [0282] move       19  11       ; R19 := R11
6F18  0C054008           [0283] add        20  16  256  ; R20 := R16 + 1
6F1C  4645C206           [0284] gettable   21  13  265  ; R21 := R13[3]
6F20  9C040002           [0285] call       18  4   0    ; R18 to top := R18(R19 to R21)
6F24  5D040000           [0286] tailcall   17  0   0    ; R17 to top := R17(R18 to top)
6F28  5E040000           [0287] return     17  0        ; return R17 to top
6F2C  16009781           [0288] jmp        1629         ; pc+=1629 (goto [1918])
6F30  1680FC7F           [0289] jmp        -13          ; pc+=-13 (goto [277])
6F34  16809681           [0290] jmp        1627         ; pc+=1627 (goto [1918])
6F38  19804507           [0291] le         0   14  278  ; R14 <= 18, pc+=1 (goto [293]) if true
6F3C  16000680           [0292] jmp        25           ; pc+=25 (goto [318])
6F40  17C04507           [0293] eq         0   14  279  ; R14 == 17, pc+=1 (goto [295]) if true
6F44  16C00380           [0294] jmp        16           ; pc+=16 (goto [311])
6F48  C1C30000           [0295] loadk      15  3        ; R15 := 0
6F4C  03040008           [0296] loadnil    16  16       ; R16,  := nil
6F50  17C08381           [0297] eq         0   259 15   ; 0 == R15, pc+=1 (goto [299]) if true
6F54  1640FF7F           [0298] jmp        -2           ; pc+=-2 (goto [297])
6F58  0604C206           [0299] gettable   16  13  264  ; R16 := R13[2]
6F5C  46048405           [0300] gettable   17  11  16   ; R17 := R11[R16]
6F60  84040003           [0301] getupval   18  6        ; R18 := U6 , v21
6F64  C0048005           [0302] move       19  11       ; R19 := R11
6F68  0C054008           [0303] add        20  16  256  ; R20 := R16 + 1
6F6C  4645C206           [0304] gettable   21  13  265  ; R21 := R13[3]
6F70  9C040002           [0305] call       18  4   0    ; R18 to top := R18(R19 to R21)
6F74  5C840000           [0306] call       17  0   2    ; R17 := R17(R18 to top)
6F78  C9420408           [0307] settable   11  16  17   ; R11[R16] := R17
6F7C  16009281           [0308] jmp        1609         ; pc+=1609 (goto [1918])
6F80  1680FC7F           [0309] jmp        -13          ; pc+=-13 (goto [297])
6F84  16809181           [0310] jmp        1607         ; pc+=1607 (goto [1918])
6F88  C603C206           [0311] gettable   15  13  264  ; R15 := R13[2]
6F8C  0644C206           [0312] gettable   16  13  265  ; R16 := R13[3]
6F90  06048405           [0313] gettable   16  11  16   ; R16 := R11[R16]
6F94  4684C206           [0314] gettable   17  13  266  ; R17 := R13[4]
6F98  06440408           [0315] gettable   16  16  17   ; R16 := R16[R17]
6F9C  C9028407           [0316] settable   11  15  16   ; R11[R15] := R16
6FA0  16C08F81           [0317] jmp        1600         ; pc+=1600 (goto [1918])
6FA4  17004607           [0318] eq         0   14  280  ; R14 == 19, pc+=1 (goto [320]) if true
6FA8  16C00A80           [0319] jmp        44           ; pc+=44 (goto [364])
6FAC  C603C206           [0320] gettable   15  13  264  ; R15 := R13[2]
6FB0  0A040000           [0321] newtable   16  0   0    ; R16 := {} , array=0, hash=0
6FB4  41040000           [0322] loadk      17  0        ; R17 := 1
6FB8  94040005           [0323] len        18  10       ; R18 := #R10
6FBC  C1040000           [0324] loadk      19  0        ; R19 := 1
6FC0  60C40880           [0325] forprep    17  36       ; R17 -= R19; PC := 362
6FC4  41C50000           [0326] loadk      21  3        ; R21 := 0
6FC8  8305000B           [0327] loadnil    22  22       ; R22,  := nil
6FCC  17C0C00A           [0328] eq         0   21  259  ; R21 == 0, pc+=1 (goto [330]) if true
6FD0  1640FF7F           [0329] jmp        -2           ; pc+=-2 (goto [328])
6FD4  86050505           [0330] gettable   22  10  20   ; R22 := R10[R20]
6FD8  C1C50000           [0331] loadk      23  3        ; R23 := 0
6FDC  1406000B           [0332] len        24  22       ; R24 := #R22
6FE0  41060000           [0333] loadk      25  0        ; R25 := 1
6FE4  E0C50580           [0334] forprep    23  24       ; R23 -= R25; PC := 359
6FE8  C1C60000           [0335] loadk      27  3        ; R27 := 0
6FEC  0307000F           [0336] loadnil    28  30       ; R28, R29, R30,  := nil
6FF0  1700C00D           [0337] eq         0   27  256  ; R27 == 1, pc+=1 (goto [339]) if true
6FF4  16400380           [0338] jmp        14           ; pc+=14 (goto [353])
6FF8  8607420E           [0339] gettable   30  28  264  ; R30 := R28[2]
6FFC  17C0820E           [0340] eq         0   29  11   ; R29 == R11, pc+=1 (goto [342]) if true
7000  16000480           [0341] jmp        17           ; pc+=17 (goto [359])
7004  19808707           [0342] le         0   15  30   ; R15 <= R30, pc+=1 (goto [344]) if true
7008  16800380           [0343] jmp        15           ; pc+=15 (goto [359])
700C  C1C70000           [0344] loadk      31  3        ; R31 := 0
7010  17C0C00F           [0345] eq         0   31  259  ; R31 == 0, pc+=1 (goto [347]) if true
7014  1640FF7F           [0346] jmp        -2           ; pc+=-2 (goto [345])
7018  0688870E           [0347] gettable   32  29  30   ; R32 := R29[R30]
701C  0904080F           [0348] settable   16  30  32   ; R16[R30] := R32
7020  09070480           [0349] settable   28  256 16   ; R28[1] := R16
7024  16C00180           [0350] jmp        8            ; pc+=8 (goto [359])
7028  1600FE7F           [0351] jmp        -7           ; pc+=-7 (goto [345])
702C  16400180           [0352] jmp        6            ; pc+=6 (goto [359])
7030  17C0C00D           [0353] eq         0   27  259  ; R27 == 0, pc+=1 (goto [355]) if true
7034  1640FB7F           [0354] jmp        -18          ; pc+=-18 (goto [337])
7038  0687060B           [0355] gettable   28  22  26   ; R28 := R22[R26]
703C  4607400E           [0356] gettable   29  28  256  ; R29 := R28[1]
7040  C1060000           [0357] loadk      27  0        ; R27 := 1
7044  1640FA7F           [0358] jmp        -22          ; pc+=-22 (goto [337])
7048  DF85F97F           [0359] forloop    23  -25      ; R23 += R25; if R23 <= R24 then begin PC := 335; R26 := R23 end
704C  16000080           [0360] jmp        1            ; pc+=1 (goto [362])
7050  1640F77F           [0361] jmp        -34          ; pc+=-34 (goto [328])
7054  5F84F67F           [0362] forloop    17  -37      ; R17 += R19; if R17 <= R18 then begin PC := 326; R20 := R17 end
7058  16408481           [0363] jmp        1554         ; pc+=1554 (goto [1918])
705C  C1C30000           [0364] loadk      15  3        ; R15 := 0
7060  03048008           [0365] loadnil    16  17       ; R16, R17,  := nil
7064  1700C007           [0366] eq         0   15  256  ; R15 == 1, pc+=1 (goto [368]) if true
7068  16400A80           [0367] jmp        42           ; pc+=42 (goto [410])
706C  81040000           [0368] loadk      18  0        ; R18 := 1
7070  D4040005           [0369] len        19  10       ; R19 := #R10
7074  01050000           [0370] loadk      20  0        ; R20 := 1
7078  A0C40880           [0371] forprep    18  36       ; R18 -= R20; PC := 408
707C  81C50000           [0372] loadk      22  3        ; R22 := 0
7080  C305800B           [0373] loadnil    23  23       ; R23,  := nil
7084  17808581           [0374] eq         0   259 22   ; 0 == R22, pc+=1 (goto [376]) if true
7088  1640FF7F           [0375] jmp        -2           ; pc+=-2 (goto [374])
708C  C6450505           [0376] gettable   23  10  21   ; R23 := R10[R21]
7090  01C60000           [0377] loadk      24  3        ; R24 := 0
7094  5406800B           [0378] len        25  23       ; R25 := #R23
7098  81060000           [0379] loadk      26  0        ; R26 := 1
709C  20C60580           [0380] forprep    24  24       ; R24 -= R26; PC := 405
70A0  01C70000           [0381] loadk      28  3        ; R28 := 0
70A4  4307800F           [0382] loadnil    29  31       ; R29, R30, R31,  := nil
70A8  1700400E           [0383] eq         0   28  256  ; R28 == 1, pc+=1 (goto [385]) if true
70AC  16400380           [0384] jmp        14           ; pc+=14 (goto [399])
70B0  C607C20E           [0385] gettable   31  29  264  ; R31 := R29[2]
70B4  17C0020F           [0386] eq         0   30  11   ; R30 == R11, pc+=1 (goto [388]) if true
70B8  16000480           [0387] jmp        17           ; pc+=17 (goto [405])
70BC  19C00708           [0388] le         0   16  31   ; R16 <= R31, pc+=1 (goto [390]) if true
70C0  16800380           [0389] jmp        15           ; pc+=15 (goto [405])
70C4  01C80000           [0390] loadk      32  3        ; R32 := 0
70C8  17C04010           [0391] eq         0   32  259  ; R32 == 0, pc+=1 (goto [393]) if true
70CC  1640FF7F           [0392] jmp        -2           ; pc+=-2 (goto [391])
70D0  46C8070F           [0393] gettable   33  30  31   ; R33 := R30[R31]
70D4  4944880F           [0394] settable   17  31  33   ; R17[R31] := R33
70D8  49470480           [0395] settable   29  256 17   ; R29[1] := R17
70DC  16C00180           [0396] jmp        8            ; pc+=8 (goto [405])
70E0  1600FE7F           [0397] jmp        -7           ; pc+=-7 (goto [391])
70E4  16400180           [0398] jmp        6            ; pc+=6 (goto [405])
70E8  17C0400E           [0399] eq         0   28  259  ; R28 == 0, pc+=1 (goto [401]) if true
70EC  1640FB7F           [0400] jmp        -18          ; pc+=-18 (goto [383])
70F0  46C7860B           [0401] gettable   29  23  27   ; R29 := R23[R27]
70F4  8607C00E           [0402] gettable   30  29  256  ; R30 := R29[1]
70F8  01070000           [0403] loadk      28  0        ; R28 := 1
70FC  1640FA7F           [0404] jmp        -22          ; pc+=-22 (goto [383])
7100  1F86F97F           [0405] forloop    24  -25      ; R24 += R26; if R24 <= R25 then begin PC := 381; R27 := R24 end
7104  16000080           [0406] jmp        1            ; pc+=1 (goto [408])
7108  1640F77F           [0407] jmp        -34          ; pc+=-34 (goto [374])
710C  9F84F67F           [0408] forloop    18  -37      ; R18 += R20; if R18 <= R19 then begin PC := 372; R21 := R18 end
7110  16C07881           [0409] jmp        1508         ; pc+=1508 (goto [1918])
7114  17C08381           [0410] eq         0   259 15   ; 0 == R15, pc+=1 (goto [412]) if true
7118  1640F47F           [0411] jmp        -46          ; pc+=-46 (goto [366])
711C  0604C206           [0412] gettable   16  13  264  ; R16 := R13[2]
7120  8A040000           [0413] newtable   18  0   0    ; R18 := {} , array=0, hash=0
7124  40040009           [0414] move       17  18       ; R17 := R18
7128  C1030000           [0415] loadk      15  0        ; R15 := 1
712C  1600F37F           [0416] jmp        -51          ; pc+=-51 (goto [366])
7130  16C07681           [0417] jmp        1500         ; pc+=1500 (goto [1918])
7134  19404607           [0418] le         0   14  281  ; R14 <= 23, pc+=1 (goto [420]) if true
7138  16C00F80           [0419] jmp        64           ; pc+=64 (goto [484])
713C  19804607           [0420] le         0   14  282  ; R14 <= 21, pc+=1 (goto [422]) if true
7140  16800780           [0421] jmp        31           ; pc+=31 (goto [453])
7144  C1C30000           [0422] loadk      15  3        ; R15 := 0
7148  03048009           [0423] loadnil    16  19       ; R16, R17, R18, R19,  := nil
714C  17C0C007           [0424] eq         0   15  259  ; R15 == 0, pc+=1 (goto [426]) if true
7150  16C00180           [0425] jmp        8            ; pc+=8 (goto [434])
7154  0604C206           [0426] gettable   16  13  264  ; R16 := R13[2]
7158  00050002           [0427] move       20  4        ; R20 := R4
715C  46058405           [0428] gettable   21  11  16   ; R21 := R11[R16]
7160  5C058000           [0429] call       21  1   0    ; R21 to top := R21()
7164  1CC50000           [0430] call       20  0   3    ; R20, R21 := R20(R21 to top)
7168  8004800A           [0431] move       18  21       ; R18 := R21
716C  4004000A           [0432] move       17  20       ; R17 := R20
7170  C1030000           [0433] loadk      15  0        ; R15 := 1
7174  1700C007           [0434] eq         0   15  256  ; R15 == 1, pc+=1 (goto [436]) if true
7178  16C00080           [0435] jmp        4            ; pc+=4 (goto [440])
717C  0C050409           [0436] add        20  18  16   ; R20 := R18 + R16
7180  8D01400A           [0437] sub        6   20  256  ; R6 := R20 - 1
7184  C1C40000           [0438] loadk      19  3        ; R19 := 0
7188  C1030200           [0439] loadk      15  8        ; R15 := 2
718C  1700C207           [0440] eq         0   15  264  ; R15 == 2, pc+=1 (goto [442]) if true
7190  1640FB7F           [0441] jmp        -18          ; pc+=-18 (goto [424])
7194  00050008           [0442] move       20  16       ; R20 := R16
7198  40050003           [0443] move       21  6        ; R21 := R6
719C  81050000           [0444] loadk      22  0        ; R22 := 1
71A0  20850080           [0445] forprep    20  3        ; R20 -= R22; PC := 449
71A4  CC04C009           [0446] add        19  19  256  ; R19 := R19 + 1
71A8  06C68408           [0447] gettable   24  17  19   ; R24 := R17[R19]
71AC  C902860B           [0448] settable   11  23  24   ; R11[R23] := R24
71B0  1FC5FE7F           [0449] forloop    20  -4       ; R20 += R22; if R20 <= R21 then begin PC := 446; R23 := R20 end
71B4  16806E81           [0450] jmp        1467         ; pc+=1467 (goto [1918])
71B8  16C0F87F           [0451] jmp        -28          ; pc+=-28 (goto [424])
71BC  16006E81           [0452] jmp        1465         ; pc+=1465 (goto [1918])
71C0  1880838D           [0453] lt         0   283 14   ; 22 < R14, pc+=1 (goto [455]) if true
71C4  16000380           [0454] jmp        13           ; pc+=13 (goto [468])
71C8  C1C30000           [0455] loadk      15  3        ; R15 := 0
71CC  03040008           [0456] loadnil    16  16       ; R16,  := nil
71D0  17C08381           [0457] eq         0   259 15   ; 0 == R15, pc+=1 (goto [459]) if true
71D4  1640FF7F           [0458] jmp        -2           ; pc+=-2 (goto [457])
71D8  0604C206           [0459] gettable   16  13  264  ; R16 := R13[2]
71DC  46048405           [0460] gettable   17  11  16   ; R17 := R11[R16]
71E0  8C044008           [0461] add        18  16  256  ; R18 := R16 + 1
71E4  86848405           [0462] gettable   18  11  18   ; R18 := R11[R18]
71E8  5C840001           [0463] call       17  2   2    ; R17 := R17(R18)
71EC  C9420408           [0464] settable   11  16  17   ; R11[R16] := R17
71F0  16C06A81           [0465] jmp        1452         ; pc+=1452 (goto [1918])
71F4  1640FD7F           [0466] jmp        -10          ; pc+=-10 (goto [457])
71F8  16406A81           [0467] jmp        1450         ; pc+=1450 (goto [1918])
71FC  C1C30000           [0468] loadk      15  3        ; R15 := 0
7200  03040008           [0469] loadnil    16  16       ; R16,  := nil
7204  17C0C007           [0470] eq         0   15  259  ; R15 == 0, pc+=1 (goto [472]) if true
7208  1640FF7F           [0471] jmp        -2           ; pc+=-2 (goto [470])
720C  0604C206           [0472] gettable   16  13  264  ; R16 := R13[2]
7210  46048405           [0473] gettable   17  11  16   ; R17 := R11[R16]
7214  84040003           [0474] getupval   18  6        ; R18 := U6 , v21
7218  C0048005           [0475] move       19  11       ; R19 := R11
721C  0C054008           [0476] add        20  16  256  ; R20 := R16 + 1
7220  40050003           [0477] move       21  6        ; R21 := R6
7224  9C040002           [0478] call       18  4   0    ; R18 to top := R18(R19 to R21)
7228  5C840000           [0479] call       17  0   2    ; R17 := R17(R18 to top)
722C  C9420408           [0480] settable   11  16  17   ; R11[R16] := R17
7230  16C06681           [0481] jmp        1436         ; pc+=1436 (goto [1918])
7234  1680FC7F           [0482] jmp        -13          ; pc+=-13 (goto [470])
7238  16406681           [0483] jmp        1434         ; pc+=1434 (goto [1918])
723C  19004707           [0484] le         0   14  284  ; R14 <= 25, pc+=1 (goto [486]) if true
7240  16400380           [0485] jmp        14           ; pc+=14 (goto [500])
7244  17404707           [0486] eq         0   14  285  ; R14 == 24, pc+=1 (goto [488]) if true
7248  16400180           [0487] jmp        6            ; pc+=6 (goto [494])
724C  C4038003           [0488] getupval   15  7        ; R15 := U7 , v57
7250  0644C206           [0489] gettable   16  13  265  ; R16 := R13[3]
7254  4604C206           [0490] gettable   17  13  264  ; R17 := R13[2]
7258  46448405           [0491] gettable   17  11  17   ; R17 := R11[R17]
725C  C9430408           [0492] settable   15  16  17   ; R15[R16] := R17
7260  16C06381           [0493] jmp        1424         ; pc+=1424 (goto [1918])
7264  C4038002           [0494] getupval   15  5        ; R15 := U5 , v56
7268  0644C206           [0495] gettable   16  13  265  ; R16 := R13[3]
726C  4604C206           [0496] gettable   17  13  264  ; R17 := R13[2]
7270  46448405           [0497] gettable   17  11  17   ; R17 := R11[R17]
7274  C9430408           [0498] settable   15  16  17   ; R15[R16] := R17
7278  16406281           [0499] jmp        1418         ; pc+=1418 (goto [1918])
727C  17804707           [0500] eq         0   14  286  ; R14 == 26, pc+=1 (goto [502]) if true
7280  16400180           [0501] jmp        6            ; pc+=6 (goto [508])
7284  C603C206           [0502] gettable   15  13  264  ; R15 := R13[2]
7288  C6C38305           [0503] gettable   15  11  15   ; R15 := R11[R15]
728C  0644C206           [0504] gettable   16  13  265  ; R16 := R13[3]
7290  4684C206           [0505] gettable   17  13  266  ; R17 := R13[4]
7294  C9430408           [0506] settable   15  16  17   ; R15[R16] := R17
7298  16406081           [0507] jmp        1410         ; pc+=1410 (goto [1918])
729C  C603C206           [0508] gettable   15  13  264  ; R15 := R13[2]
72A0  C6C38305           [0509] gettable   15  11  15   ; R15 := R11[R15]
72A4  DA430000           [0510] test       15      1    ; if not R15 then pc+=1 (goto [512])
72A8  16400080           [0511] jmp        2            ; pc+=2 (goto [514])
72AC  4C01C002           [0512] add        5   5   256  ; R5 := R5 + 1
72B0  16C05E81           [0513] jmp        1404         ; pc+=1404 (goto [1918])
72B4  4641C206           [0514] gettable   5   13  265  ; R5 := R13[3]
72B8  16405E81           [0515] jmp        1402         ; pc+=1402 (goto [1918])
72BC  19C04707           [0516] le         0   14  287  ; R14 <= 41, pc+=1 (goto [518]) if true
72C0  16403A80           [0517] jmp        234          ; pc+=234 (goto [752])
72C4  19004807           [0518] le         0   14  288  ; R14 <= 34, pc+=1 (goto [520]) if true
72C8  16801A80           [0519] jmp        107          ; pc+=107 (goto [627])
72CC  19404807           [0520] le         0   14  289  ; R14 <= 30, pc+=1 (goto [522]) if true
72D0  16000A80           [0521] jmp        41           ; pc+=41 (goto [563])
72D4  19804807           [0522] le         0   14  290  ; R14 <= 28, pc+=1 (goto [524]) if true
72D8  16800180           [0523] jmp        7            ; pc+=7 (goto [531])
72DC  C603C206           [0524] gettable   15  13  264  ; R15 := R13[2]
72E0  0644C206           [0525] gettable   16  13  265  ; R16 := R13[3]
72E4  4684C206           [0526] gettable   17  13  266  ; R17 := R13[4]
72E8  46448405           [0527] gettable   17  11  17   ; R17 := R11[R17]
72EC  0C440408           [0528] add        16  16  17   ; R16 := R16 + R17
72F0  C9028407           [0529] settable   11  15  16   ; R11[R15] := R16
72F4  16805A81           [0530] jmp        1387         ; pc+=1387 (goto [1918])
72F8  18808391           [0531] lt         0   291 14   ; 29 < R14, pc+=1 (goto [533]) if true
72FC  16400680           [0532] jmp        26           ; pc+=26 (goto [559])
7300  C603C206           [0533] gettable   15  13  264  ; R15 := R13[2]
7304  0684C206           [0534] gettable   16  13  266  ; R16 := R13[4]
7308  4C04C207           [0535] add        17  15  264  ; R17 := R15 + 2
730C  8A040000           [0536] newtable   18  0   0    ; R18 := {} , array=0, hash=0
7310  C6C48305           [0537] gettable   19  11  15   ; R19 := R11[R15]
7314  0C05C007           [0538] add        20  15  256  ; R20 := R15 + 1
7318  06058505           [0539] gettable   20  11  20   ; R20 := R11[R20]
731C  46458405           [0540] gettable   21  11  17   ; R21 := R11[R17]
7320  DC048001           [0541] call       19  3   0    ; R19 to top := R19(R20, R21)
7324  A2440000           [0542] setlist    18  0   1    ; R18[1 to top] := R19 to top
7328  C1040000           [0543] loadk      19  0        ; R19 := 1
732C  00050008           [0544] move       20  16       ; R20 := R16
7330  41050000           [0545] loadk      21  0        ; R21 := 1
7334  E0840080           [0546] forprep    19  3        ; R19 -= R21; PC := 550
7338  CC858508           [0547] add        23  17  22   ; R23 := R17 + R22
733C  06860509           [0548] gettable   24  18  22   ; R24 := R18[R22]
7340  C902860B           [0549] settable   11  23  24   ; R11[R23] := R24
7344  DFC4FE7F           [0550] forloop    19  -4       ; R19 += R21; if R19 <= R20 then begin PC := 547; R22 := R19 end
7348  C6044009           [0551] gettable   19  18  256  ; R19 := R18[1]
734C  DA040000           [0552] test       19      0    ; if R19 then pc+=1 (goto [554])
7350  16800080           [0553] jmp        3            ; pc+=3 (goto [557])
7354  C9C28408           [0554] settable   11  17  19   ; R11[R17] := R19
7358  4641C206           [0555] gettable   5   13  265  ; R5 := R13[3]
735C  16005481           [0556] jmp        1361         ; pc+=1361 (goto [1918])
7360  4C01C002           [0557] add        5   5   256  ; R5 := R5 + 1
7364  16805381           [0558] jmp        1359         ; pc+=1359 (goto [1918])
7368  C603C206           [0559] gettable   15  13  264  ; R15 := R13[2]
736C  0A040000           [0560] newtable   16  0   0    ; R16 := {} , array=0, hash=0
7370  C9028407           [0561] settable   11  15  16   ; R11[R15] := R16
7374  16805281           [0562] jmp        1355         ; pc+=1355 (goto [1918])
7378  19004907           [0563] le         0   14  292  ; R14 <= 32, pc+=1 (goto [565]) if true
737C  16800C80           [0564] jmp        51           ; pc+=51 (goto [616])
7380  17404907           [0565] eq         0   14  293  ; R14 == 31, pc+=1 (goto [567]) if true
7384  16800280           [0566] jmp        11           ; pc+=11 (goto [578])
7388  C1C30000           [0567] loadk      15  3        ; R15 := 0
738C  03040008           [0568] loadnil    16  16       ; R16,  := nil
7390  17C0C007           [0569] eq         0   15  259  ; R15 == 0, pc+=1 (goto [571]) if true
7394  1640FF7F           [0570] jmp        -2           ; pc+=-2 (goto [569])
7398  0604C206           [0571] gettable   16  13  264  ; R16 := R13[2]
739C  46048405           [0572] gettable   17  11  16   ; R17 := R11[R16]
73A0  5C848000           [0573] call       17  1   2    ; R17 := R17()
73A4  C9420408           [0574] settable   11  16  17   ; R11[R16] := R17
73A8  16404F81           [0575] jmp        1342         ; pc+=1342 (goto [1918])
73AC  16C0FD7F           [0576] jmp        -8           ; pc+=-8 (goto [569])
73B0  16C04E81           [0577] jmp        1340         ; pc+=1340 (goto [1918])
73B4  C1C30000           [0578] loadk      15  3        ; R15 := 0
73B8  03048009           [0579] loadnil    16  19       ; R16, R17, R18, R19,  := nil
73BC  17C08381           [0580] eq         0   259 15   ; 0 == R15, pc+=1 (goto [582]) if true
73C0  16400280           [0581] jmp        10           ; pc+=10 (goto [592])
73C4  0604C206           [0582] gettable   16  13  264  ; R16 := R13[2]
73C8  00050002           [0583] move       20  4        ; R20 := R4
73CC  46058405           [0584] gettable   21  11  16   ; R21 := R11[R16]
73D0  8C054008           [0585] add        22  16  256  ; R22 := R16 + 1
73D4  86858505           [0586] gettable   22  11  22   ; R22 := R11[R22]
73D8  5C050001           [0587] call       21  2   0    ; R21 to top := R21(R22)
73DC  1CC50000           [0588] call       20  0   3    ; R20, R21 := R20(R21 to top)
73E0  8004800A           [0589] move       18  21       ; R18 := R21
73E4  4004000A           [0590] move       17  20       ; R17 := R20
73E8  C1030000           [0591] loadk      15  0        ; R15 := 1
73EC  1700C207           [0592] eq         0   15  264  ; R15 == 2, pc+=1 (goto [594]) if true
73F0  16400380           [0593] jmp        14           ; pc+=14 (goto [608])
73F4  00050008           [0594] move       20  16       ; R20 := R16
73F8  40050003           [0595] move       21  6        ; R21 := R6
73FC  81050000           [0596] loadk      22  0        ; R22 := 1
7400  20C50180           [0597] forprep    20  8        ; R20 -= R22; PC := 606
7404  01C60000           [0598] loadk      24  3        ; R24 := 0
7408  17C0400C           [0599] eq         0   24  259  ; R24 == 0, pc+=1 (goto [601]) if true
740C  1640FF7F           [0600] jmp        -2           ; pc+=-2 (goto [599])
7410  CC04C009           [0601] add        19  19  256  ; R19 := R19 + 1
7414  46C68408           [0602] gettable   25  17  19   ; R25 := R17[R19]
7418  C942860B           [0603] settable   11  23  25   ; R11[R23] := R25
741C  16000080           [0604] jmp        1            ; pc+=1 (goto [606])
7420  1600FE7F           [0605] jmp        -7           ; pc+=-7 (goto [599])
7424  1F85FD7F           [0606] forloop    20  -9       ; R20 += R22; if R20 <= R21 then begin PC := 598; R23 := R20 end
7428  16404781           [0607] jmp        1310         ; pc+=1310 (goto [1918])
742C  1700C007           [0608] eq         0   15  256  ; R15 == 1, pc+=1 (goto [610]) if true
7430  1640F87F           [0609] jmp        -30          ; pc+=-30 (goto [580])
7434  0C050409           [0610] add        20  18  16   ; R20 := R18 + R16
7438  8D01400A           [0611] sub        6   20  256  ; R6 := R20 - 1
743C  C1C40000           [0612] loadk      19  3        ; R19 := 0
7440  C1030200           [0613] loadk      15  8        ; R15 := 2
7444  1600F77F           [0614] jmp        -35          ; pc+=-35 (goto [580])
7448  16404581           [0615] jmp        1302         ; pc+=1302 (goto [1918])
744C  18800393           [0616] lt         0   294 14   ; 33 < R14, pc+=1 (goto [618]) if true
7450  16000180           [0617] jmp        5            ; pc+=5 (goto [623])
7454  C603C206           [0618] gettable   15  13  264  ; R15 := R13[2]
7458  C6C38305           [0619] gettable   15  11  15   ; R15 := R11[R15]
745C  DD038000           [0620] tailcall   15  1   0    ; R15 to top := R15()
7460  DE030000           [0621] return     15  0        ; return R15 to top
7464  16804381           [0622] jmp        1295         ; pc+=1295 (goto [1918])
7468  C603C206           [0623] gettable   15  13  264  ; R15 := R13[2]
746C  C6C38305           [0624] gettable   15  11  15   ; R15 := R11[R15]
7470  DE030001           [0625] return     15  2        ; return R15
7474  16804281           [0626] jmp        1291         ; pc+=1291 (goto [1918])
7478  19C04907           [0627] le         0   14  295  ; R14 <= 37, pc+=1 (goto [629]) if true
747C  16800D80           [0628] jmp        55           ; pc+=55 (goto [684])
7480  19004A07           [0629] le         0   14  296  ; R14 <= 35, pc+=1 (goto [631]) if true
7484  16000280           [0630] jmp        9            ; pc+=9 (goto [640])
7488  C603C206           [0631] gettable   15  13  264  ; R15 := R13[2]
748C  0684C206           [0632] gettable   16  13  266  ; R16 := R13[4]
7490  06048405           [0633] gettable   16  11  16   ; R16 := R11[R16]
7494  17008407           [0634] eq         0   15  16   ; R15 == R16, pc+=1 (goto [636]) if true
7498  16400080           [0635] jmp        2            ; pc+=2 (goto [638])
749C  4C01C002           [0636] add        5   5   256  ; R5 := R5 + 1
74A0  16C03F81           [0637] jmp        1280         ; pc+=1280 (goto [1918])
74A4  4641C206           [0638] gettable   5   13  265  ; R5 := R13[3]
74A8  16403F81           [0639] jmp        1278         ; pc+=1278 (goto [1918])
74AC  18808394           [0640] lt         0   297 14   ; 36 < R14, pc+=1 (goto [642]) if true
74B0  16000880           [0641] jmp        33           ; pc+=33 (goto [675])
74B4  C1C30000           [0642] loadk      15  3        ; R15 := 0
74B8  03040009           [0643] loadnil    16  18       ; R16, R17, R18,  := nil
74BC  1700C007           [0644] eq         0   15  256  ; R15 == 1, pc+=1 (goto [646]) if true
74C0  16400580           [0645] jmp        22           ; pc+=22 (goto [668])
74C4  CC044208           [0646] add        19  16  264  ; R19 := R16 + 2
74C8  86C48405           [0647] gettable   18  11  19   ; R18 := R11[R19]
74CC  18808481           [0648] lt         0   259 18   ; 0 < R18, pc+=1 (goto [650]) if true
74D0  16000280           [0649] jmp        9            ; pc+=9 (goto [659])
74D4  CC044008           [0650] add        19  16  256  ; R19 := R16 + 1
74D8  C6C48405           [0651] gettable   19  11  19   ; R19 := R11[R19]
74DC  18408409           [0652] lt         0   19  17   ; R19 < R17, pc+=1 (goto [654]) if true
74E0  16400080           [0653] jmp        2            ; pc+=2 (goto [656])
74E4  4641C206           [0654] gettable   5   13  265  ; R5 := R13[3]
74E8  16403B81           [0655] jmp        1262         ; pc+=1262 (goto [1918])
74EC  CC444208           [0656] add        19  16  265  ; R19 := R16 + 3
74F0  C9428409           [0657] settable   11  19  17   ; R11[R19] := R17
74F4  16803A81           [0658] jmp        1259         ; pc+=1259 (goto [1918])
74F8  CC044008           [0659] add        19  16  256  ; R19 := R16 + 1
74FC  C6C48405           [0660] gettable   19  11  19   ; R19 := R11[R19]
7500  18C08408           [0661] lt         0   17  19   ; R17 < R19, pc+=1 (goto [663]) if true
7504  16400080           [0662] jmp        2            ; pc+=2 (goto [665])
7508  4641C206           [0663] gettable   5   13  265  ; R5 := R13[3]
750C  16003981           [0664] jmp        1253         ; pc+=1253 (goto [1918])
7510  CC444208           [0665] add        19  16  265  ; R19 := R16 + 3
7514  C9428409           [0666] settable   11  19  17   ; R11[R19] := R17
7518  16403881           [0667] jmp        1250         ; pc+=1250 (goto [1918])
751C  17C0C007           [0668] eq         0   15  259  ; R15 == 0, pc+=1 (goto [670]) if true
7520  1640F97F           [0669] jmp        -26          ; pc+=-26 (goto [644])
7524  0604C206           [0670] gettable   16  13  264  ; R16 := R13[2]
7528  46048405           [0671] gettable   17  11  16   ; R17 := R11[R16]
752C  C1030000           [0672] loadk      15  0        ; R15 := 1
7530  1640F87F           [0673] jmp        -30          ; pc+=-30 (goto [644])
7534  16803681           [0674] jmp        1243         ; pc+=1243 (goto [1918])
7538  C603C206           [0675] gettable   15  13  264  ; R15 := R13[2]
753C  C6C38305           [0676] gettable   15  11  15   ; R15 := R11[R15]
7540  0684C206           [0677] gettable   16  13  266  ; R16 := R13[4]
7544  17008407           [0678] eq         0   15  16   ; R15 == R16, pc+=1 (goto [680]) if true
7548  16400080           [0679] jmp        2            ; pc+=2 (goto [682])
754C  4C01C002           [0680] add        5   5   256  ; R5 := R5 + 1
7550  16C03481           [0681] jmp        1236         ; pc+=1236 (goto [1918])
7554  4641C206           [0682] gettable   5   13  265  ; R5 := R13[3]
7558  16403481           [0683] jmp        1234         ; pc+=1234 (goto [1918])
755C  19804A07           [0684] le         0   14  298  ; R14 <= 39, pc+=1 (goto [686]) if true
7560  16000480           [0685] jmp        17           ; pc+=17 (goto [703])
7564  18808395           [0686] lt         0   299 14   ; 38 < R14, pc+=1 (goto [688]) if true
7568  16C00180           [0687] jmp        8            ; pc+=8 (goto [696])
756C  C603C206           [0688] gettable   15  13  264  ; R15 := R13[2]
7570  0644C206           [0689] gettable   16  13  265  ; R16 := R13[3]
7574  06048405           [0690] gettable   16  11  16   ; R16 := R11[R16]
7578  4684C206           [0691] gettable   17  13  266  ; R17 := R13[4]
757C  46448405           [0692] gettable   17  11  17   ; R17 := R11[R17]
7580  10440408           [0693] mod        16  16  17   ; R16 := R16 % R17
7584  C9028407           [0694] settable   11  15  16   ; R11[R15] := R16
7588  16403181           [0695] jmp        1222         ; pc+=1222 (goto [1918])
758C  C603C206           [0696] gettable   15  13  264  ; R15 := R13[2]
7590  0644C206           [0697] gettable   16  13  265  ; R16 := R13[3]
7594  41040000           [0698] loadk      17  0        ; R17 := 1
7598  E0030080           [0699] forprep    15  1        ; R15 -= R17; PC := 701
759C  C9024B09           [0700] settable   11  18  300  ; R11[R18] := nil
75A0  DF43FF7F           [0701] forloop    15  -2       ; R15 += R17; if R15 <= R16 then begin PC := 700; R18 := R15 end
75A4  16802F81           [0702] jmp        1215         ; pc+=1215 (goto [1918])
75A8  17404B07           [0703] eq         0   14  301  ; R14 == 40, pc+=1 (goto [705]) if true
75AC  16400180           [0704] jmp        6            ; pc+=6 (goto [711])
75B0  C603C206           [0705] gettable   15  13  264  ; R15 := R13[2]
75B4  06C48305           [0706] gettable   16  11  15   ; R16 := R11[R15]
75B8  4C04C007           [0707] add        17  15  256  ; R17 := R15 + 1
75BC  46448405           [0708] gettable   17  11  17   ; R17 := R11[R17]
75C0  1C440001           [0709] call       16  2   1    ;  := R16(R17)
75C4  16802D81           [0710] jmp        1207         ; pc+=1207 (goto [1918])
75C8  C1C30000           [0711] loadk      15  3        ; R15 := 0
75CC  03048009           [0712] loadnil    16  19       ; R16, R17, R18, R19,  := nil
75D0  17C00380           [0713] eq         0   256 15   ; 1 == R15, pc+=1 (goto [715]) if true
75D4  16C00080           [0714] jmp        4            ; pc+=4 (goto [719])
75D8  0C050409           [0715] add        20  18  16   ; R20 := R18 + R16
75DC  8D01400A           [0716] sub        6   20  256  ; R6 := R20 - 1
75E0  C1C40000           [0717] loadk      19  3        ; R19 := 0
75E4  C1030200           [0718] loadk      15  8        ; R15 := 2
75E8  17C0C007           [0719] eq         0   15  259  ; R15 == 0, pc+=1 (goto [721]) if true
75EC  16000380           [0720] jmp        13           ; pc+=13 (goto [734])
75F0  0604C206           [0721] gettable   16  13  264  ; R16 := R13[2]
75F4  00050002           [0722] move       20  4        ; R20 := R4
75F8  46058405           [0723] gettable   21  11  16   ; R21 := R11[R16]
75FC  84050003           [0724] getupval   22  6        ; R22 := U6 , v21
7600  C0058005           [0725] move       23  11       ; R23 := R11
7604  0C064008           [0726] add        24  16  256  ; R24 := R16 + 1
7608  4646C206           [0727] gettable   25  13  265  ; R25 := R13[3]
760C  9C050002           [0728] call       22  4   0    ; R22 to top := R22(R23 to R25)
7610  5C050000           [0729] call       21  0   0    ; R21 to top := R21(R22 to top)
7614  1CC50000           [0730] call       20  0   3    ; R20, R21 := R20(R21 to top)
7618  8004800A           [0731] move       18  21       ; R18 := R21
761C  4004000A           [0732] move       17  20       ; R17 := R20
7620  C1030000           [0733] loadk      15  0        ; R15 := 1
7624  1700C207           [0734] eq         0   15  264  ; R15 == 2, pc+=1 (goto [736]) if true
7628  1600FA7F           [0735] jmp        -23          ; pc+=-23 (goto [713])
762C  00050008           [0736] move       20  16       ; R20 := R16
7630  40050003           [0737] move       21  6        ; R21 := R6
7634  81050000           [0738] loadk      22  0        ; R22 := 1
7638  20C50180           [0739] forprep    20  8        ; R20 -= R22; PC := 748
763C  01C60000           [0740] loadk      24  3        ; R24 := 0
7640  17C0400C           [0741] eq         0   24  259  ; R24 == 0, pc+=1 (goto [743]) if true
7644  1640FF7F           [0742] jmp        -2           ; pc+=-2 (goto [741])
7648  CC04C009           [0743] add        19  19  256  ; R19 := R19 + 1
764C  46C68408           [0744] gettable   25  17  19   ; R25 := R17[R19]
7650  C942860B           [0745] settable   11  23  25   ; R11[R23] := R25
7654  16000080           [0746] jmp        1            ; pc+=1 (goto [748])
7658  1600FE7F           [0747] jmp        -7           ; pc+=-7 (goto [741])
765C  1F85FD7F           [0748] forloop    20  -9       ; R20 += R22; if R20 <= R21 then begin PC := 740; R23 := R20 end
7660  16C02381           [0749] jmp        1168         ; pc+=1168 (goto [1918])
7664  1640F67F           [0750] jmp        -38          ; pc+=-38 (goto [713])
7668  16402381           [0751] jmp        1166         ; pc+=1166 (goto [1918])
766C  19804B07           [0752] le         0   14  302  ; R14 <= 48, pc+=1 (goto [754]) if true
7670  16C01780           [0753] jmp        96           ; pc+=96 (goto [850])
7674  19C04B07           [0754] le         0   14  303  ; R14 <= 44, pc+=1 (goto [756]) if true
7678  16400B80           [0755] jmp        46           ; pc+=46 (goto [802])
767C  19004C07           [0756] le         0   14  304  ; R14 <= 42, pc+=1 (goto [758]) if true
7680  16C00180           [0757] jmp        8            ; pc+=8 (goto [766])
7684  C603C206           [0758] gettable   15  13  264  ; R15 := R13[2]
7688  0644C206           [0759] gettable   16  13  265  ; R16 := R13[3]
768C  17C04008           [0760] eq         0   16  259  ; R16 == 0, pc+=1 (goto [762]) if true
7690  16000080           [0761] jmp        1            ; pc+=1 (goto [763])
7694  02440000           [0762] loadbool   16  0   1    ; R16 := false; PC := pc+=1 (goto [764])
7698  02048000           [0763] loadbool   16  1   0    ; R16 := true
769C  C9028407           [0764] settable   11  15  16   ; R11[R15] := R16
76A0  16C01F81           [0765] jmp        1152         ; pc+=1152 (goto [1918])
76A4  18808398           [0766] lt         0   305 14   ; 43 < R14, pc+=1 (goto [768]) if true
76A8  16400280           [0767] jmp        10           ; pc+=10 (goto [778])
76AC  C603C206           [0768] gettable   15  13  264  ; R15 := R13[2]
76B0  C6C38305           [0769] gettable   15  11  15   ; R15 := R11[R15]
76B4  0684C206           [0770] gettable   16  13  266  ; R16 := R13[4]
76B8  06048405           [0771] gettable   16  11  16   ; R16 := R11[R16]
76BC  17008407           [0772] eq         0   15  16   ; R15 == R16, pc+=1 (goto [774]) if true
76C0  16400080           [0773] jmp        2            ; pc+=2 (goto [776])
76C4  4C01C002           [0774] add        5   5   256  ; R5 := R5 + 1
76C8  16401D81           [0775] jmp        1142         ; pc+=1142 (goto [1918])
76CC  4641C206           [0776] gettable   5   13  265  ; R5 := R13[3]
76D0  16C01C81           [0777] jmp        1140         ; pc+=1140 (goto [1918])
76D4  C643C206           [0778] gettable   15  13  265  ; R15 := R13[3]
76D8  04040004           [0779] getupval   16  8        ; R16 := U8 , v7
76DC  41840C00           [0780] loadk      17  50       ; R17 := "jl\6\205"
76E0  81C40C00           [0781] loadk      18  51       ; R18 := "]5)H\155\206"
76E4  1C848001           [0782] call       16  3   2    ; R16 := R16(R17, R18)
76E8  57008407           [0783] eq         1   15  16   ; R15 == R16, pc+=1 (goto [785]) if false
76EC  16800180           [0784] jmp        7            ; pc+=7 (goto [792])
76F0  C643C206           [0785] gettable   15  13  265  ; R15 := R13[3]
76F4  04040004           [0786] getupval   16  8        ; R16 := U8 , v7
76F8  41040D00           [0787] loadk      17  52       ; R17 := "4CnR\vBP"
76FC  81440D00           [0788] loadk      18  53       ; R18 := "bS&\264n,&"
7700  1C848001           [0789] call       16  3   2    ; R16 := R16(R17, R18)
7704  17008407           [0790] eq         0   15  16   ; R15 == R16, pc+=1 (goto [792]) if true
7708  16C00080           [0791] jmp        4            ; pc+=4 (goto [796])
770C  C603C206           [0792] gettable   15  13  264  ; R15 := R13[2]
7710  04048003           [0793] getupval   16  7        ; R16 := U7 , v57
7714  C9028407           [0794] settable   11  15  16   ; R11[R15] := R16
7718  16401881           [0795] jmp        1122         ; pc+=1122 (goto [1918])
771C  C603C206           [0796] gettable   15  13  264  ; R15 := R13[2]
7720  04048003           [0797] getupval   16  7        ; R16 := U7 , v57
7724  4644C206           [0798] gettable   17  13  265  ; R17 := R13[3]
7728  06440408           [0799] gettable   16  16  17   ; R16 := R16[R17]
772C  C9028407           [0800] settable   11  15  16   ; R11[R15] := R16
7730  16C01681           [0801] jmp        1116         ; pc+=1116 (goto [1918])
7734  19804D07           [0802] le         0   14  310  ; R14 <= 46, pc+=1 (goto [804]) if true
7738  16800780           [0803] jmp        31           ; pc+=31 (goto [835])
773C  17C04D07           [0804] eq         0   14  311  ; R14 == 45, pc+=1 (goto [806]) if true
7740  16000580           [0805] jmp        21           ; pc+=21 (goto [827])
7744  C1C30000           [0806] loadk      15  3        ; R15 := 0
7748  03048008           [0807] loadnil    16  17       ; R16, R17,  := nil
774C  17C0C007           [0808] eq         0   15  259  ; R15 == 0, pc+=1 (goto [810]) if true
7750  16800080           [0809] jmp        3            ; pc+=3 (goto [813])
7754  0604C206           [0810] gettable   16  13  264  ; R16 := R13[2]
7758  46048405           [0811] gettable   17  11  16   ; R17 := R11[R16]
775C  C1030000           [0812] loadk      15  0        ; R15 := 1
7760  1700C007           [0813] eq         0   15  256  ; R15 == 1, pc+=1 (goto [815]) if true
7764  1600FE7F           [0814] jmp        -7           ; pc+=-7 (goto [808])
7768  8C044008           [0815] add        18  16  256  ; R18 := R16 + 1
776C  C0040003           [0816] move       19  6        ; R19 := R6
7770  01050000           [0817] loadk      20  0        ; R20 := 1
7774  A0C40080           [0818] forprep    18  4        ; R18 -= R20; PC := 823
7778  84058004           [0819] getupval   22  9        ; R22 := U9 , v15
777C  C0058008           [0820] move       23  17       ; R23 := R17
7780  06468505           [0821] gettable   24  11  21   ; R24 := R11[R21]
7784  9C458001           [0822] call       22  3   1    ;  := R22(R23, R24)
7788  9F84FE7F           [0823] forloop    18  -5       ; R18 += R20; if R18 <= R19 then begin PC := 819; R21 := R18 end
778C  16001181           [0824] jmp        1093         ; pc+=1093 (goto [1918])
7790  1640FB7F           [0825] jmp        -18          ; pc+=-18 (goto [808])
7794  16801081           [0826] jmp        1091         ; pc+=1091 (goto [1918])
7798  C603C206           [0827] gettable   15  13  264  ; R15 := R13[2]
779C  0644C206           [0828] gettable   16  13  265  ; R16 := R13[3]
77A0  06048405           [0829] gettable   16  11  16   ; R16 := R11[R16]
77A4  4684C206           [0830] gettable   17  13  266  ; R17 := R13[4]
77A8  46448405           [0831] gettable   17  11  17   ; R17 := R11[R17]
77AC  0E440408           [0832] mul        16  16  17   ; R16 := R16 * R17
77B0  C9028407           [0833] settable   11  15  16   ; R11[R15] := R16
77B4  16800E81           [0834] jmp        1083         ; pc+=1083 (goto [1918])
77B8  17004E07           [0835] eq         0   14  312  ; R14 == 47, pc+=1 (goto [837]) if true
77BC  16400180           [0836] jmp        6            ; pc+=6 (goto [843])
77C0  C603C206           [0837] gettable   15  13  264  ; R15 := R13[2]
77C4  0644C206           [0838] gettable   16  13  265  ; R16 := R13[3]
77C8  06048405           [0839] gettable   16  11  16   ; R16 := R11[R16]
77CC  14040008           [0840] len        16  16       ; R16 := #R16
77D0  C9028407           [0841] settable   11  15  16   ; R11[R15] := R16
77D4  16800C81           [0842] jmp        1075         ; pc+=1075 (goto [1918])
77D8  C603C206           [0843] gettable   15  13  264  ; R15 := R13[2]
77DC  0644C206           [0844] gettable   16  13  265  ; R16 := R13[3]
77E0  06048405           [0845] gettable   16  11  16   ; R16 := R11[R16]
77E4  4684C206           [0846] gettable   17  13  266  ; R17 := R13[4]
77E8  0C440408           [0847] add        16  16  17   ; R16 := R16 + R17
77EC  C9028407           [0848] settable   11  15  16   ; R11[R15] := R16
77F0  16C00A81           [0849] jmp        1068         ; pc+=1068 (goto [1918])
77F4  19404E07           [0850] le         0   14  313  ; R14 <= 52, pc+=1 (goto [852]) if true
77F8  16401580           [0851] jmp        86           ; pc+=86 (goto [938])
77FC  19804E07           [0852] le         0   14  314  ; R14 <= 50, pc+=1 (goto [854]) if true
7800  16000C80           [0853] jmp        49           ; pc+=49 (goto [903])
7804  1880839D           [0854] lt         0   315 14   ; 49 < R14, pc+=1 (goto [856]) if true
7808  16000680           [0855] jmp        25           ; pc+=25 (goto [881])
780C  C603C206           [0856] gettable   15  13  264  ; R15 := R13[2]
7810  0A040000           [0857] newtable   16  0   0    ; R16 := {} , array=0, hash=0
7814  46C48305           [0858] gettable   17  11  15   ; R17 := R11[R15]
7818  84040003           [0859] getupval   18  6        ; R18 := U6 , v21
781C  C0048005           [0860] move       19  11       ; R19 := R11
7820  0C05C007           [0861] add        20  15  256  ; R20 := R15 + 1
7824  40050003           [0862] move       21  6        ; R21 := R6
7828  9C040002           [0863] call       18  4   0    ; R18 to top := R18(R19 to R21)
782C  5C040000           [0864] call       17  0   0    ; R17 to top := R17(R18 to top)
7830  22440000           [0865] setlist    16  0   1    ; R16[1 to top] := R17 to top
7834  41C40000           [0866] loadk      17  3        ; R17 := 0
7838  80048007           [0867] move       18  15       ; R18 := R15
783C  C684C206           [0868] gettable   19  13  266  ; R19 := R13[4]
7840  01050000           [0869] loadk      20  0        ; R20 := 1
7844  A0C40180           [0870] forprep    18  8        ; R18 -= R20; PC := 879
7848  81C50000           [0871] loadk      22  3        ; R22 := 0
784C  17C0400B           [0872] eq         0   22  259  ; R22 == 0, pc+=1 (goto [874]) if true
7850  1640FF7F           [0873] jmp        -2           ; pc+=-2 (goto [872])
7854  4C04C008           [0874] add        17  17  256  ; R17 := R17 + 1
7858  C6450408           [0875] gettable   23  16  17   ; R23 := R16[R17]
785C  C9C2850A           [0876] settable   11  21  23   ; R11[R21] := R23
7860  16000080           [0877] jmp        1            ; pc+=1 (goto [879])
7864  1600FE7F           [0878] jmp        -7           ; pc+=-7 (goto [872])
7868  9F84FD7F           [0879] forloop    18  -9       ; R18 += R20; if R18 <= R19 then begin PC := 871; R21 := R18 end
786C  16000381           [0880] jmp        1037         ; pc+=1037 (goto [1918])
7870  C1C30000           [0881] loadk      15  3        ; R15 := 0
7874  03048008           [0882] loadnil    16  17       ; R16, R17,  := nil
7878  17C08381           [0883] eq         0   259 15   ; 0 == R15, pc+=1 (goto [885]) if true
787C  16800080           [0884] jmp        3            ; pc+=3 (goto [888])
7880  0644C206           [0885] gettable   16  13  265  ; R16 := R13[3]
7884  46048405           [0886] gettable   17  11  16   ; R17 := R11[R16]
7888  C1030000           [0887] loadk      15  0        ; R15 := 1
788C  17C00380           [0888] eq         0   256 15   ; 1 == R15, pc+=1 (goto [890]) if true
7890  1600FE7F           [0889] jmp        -7           ; pc+=-7 (goto [883])
7894  8C044008           [0890] add        18  16  256  ; R18 := R16 + 1
7898  C684C206           [0891] gettable   19  13  266  ; R19 := R13[4]
789C  01050000           [0892] loadk      20  0        ; R20 := 1
78A0  A0840080           [0893] forprep    18  3        ; R18 -= R20; PC := 897
78A4  80058008           [0894] move       22  17       ; R22 := R17
78A8  C6458505           [0895] gettable   23  11  21   ; R23 := R11[R21]
78AC  55C4050B           [0896] concat     17  22  23   ; R17 := R22..R23
78B0  9FC4FE7F           [0897] forloop    18  -4       ; R18 += R20; if R18 <= R19 then begin PC := 894; R21 := R18 end
78B4  8604C206           [0898] gettable   18  13  264  ; R18 := R13[2]
78B8  C9420409           [0899] settable   11  18  17   ; R11[R18] := R17
78BC  1600FE80           [0900] jmp        1017         ; pc+=1017 (goto [1918])
78C0  1600FB7F           [0901] jmp        -19          ; pc+=-19 (goto [883])
78C4  1680FD80           [0902] jmp        1015         ; pc+=1015 (goto [1918])
78C8  17004F07           [0903] eq         0   14  316  ; R14 == 51, pc+=1 (goto [905]) if true
78CC  16800380           [0904] jmp        15           ; pc+=15 (goto [920])
78D0  C1C30000           [0905] loadk      15  3        ; R15 := 0
78D4  03040008           [0906] loadnil    16  16       ; R16,  := nil
78D8  17C0C007           [0907] eq         0   15  259  ; R15 == 0, pc+=1 (goto [909]) if true
78DC  1640FF7F           [0908] jmp        -2           ; pc+=-2 (goto [907])
78E0  0604C206           [0909] gettable   16  13  264  ; R16 := R13[2]
78E4  46048405           [0910] gettable   17  11  16   ; R17 := R11[R16]
78E8  84040003           [0911] getupval   18  6        ; R18 := U6 , v21
78EC  C0048005           [0912] move       19  11       ; R19 := R11
78F0  0C054008           [0913] add        20  16  256  ; R20 := R16 + 1
78F4  4645C206           [0914] gettable   21  13  265  ; R21 := R13[3]
78F8  9C040002           [0915] call       18  4   0    ; R18 to top := R18(R19 to R21)
78FC  5C440000           [0916] call       17  0   1    ;  := R17(R18 to top)
7900  16C0F980           [0917] jmp        1000         ; pc+=1000 (goto [1918])
7904  16C0FC7F           [0918] jmp        -12          ; pc+=-12 (goto [907])
7908  1640F980           [0919] jmp        998          ; pc+=998 (goto [1918])
790C  C1C30000           [0920] loadk      15  3        ; R15 := 0
7910  03048008           [0921] loadnil    16  17       ; R16, R17,  := nil
7914  1700C007           [0922] eq         0   15  256  ; R15 == 1, pc+=1 (goto [924]) if true
7918  16400180           [0923] jmp        6            ; pc+=6 (goto [930])
791C  8C044008           [0924] add        18  16  256  ; R18 := R16 + 1
7920  C9420409           [0925] settable   11  18  17   ; R11[R18] := R17
7924  8684C206           [0926] gettable   18  13  266  ; R18 := R13[4]
7928  86848408           [0927] gettable   18  17  18   ; R18 := R17[R18]
792C  C9820408           [0928] settable   11  16  18   ; R11[R16] := R18
7930  16C0F680           [0929] jmp        988          ; pc+=988 (goto [1918])
7934  17C0C007           [0930] eq         0   15  259  ; R15 == 0, pc+=1 (goto [932]) if true
7938  1640FD7F           [0931] jmp        -10          ; pc+=-10 (goto [922])
793C  0604C206           [0932] gettable   16  13  264  ; R16 := R13[2]
7940  8644C206           [0933] gettable   18  13  265  ; R18 := R13[3]
7944  46848405           [0934] gettable   17  11  18   ; R17 := R11[R18]
7948  C1030000           [0935] loadk      15  0        ; R15 := 1
794C  1600FC7F           [0936] jmp        -15          ; pc+=-15 (goto [922])
7950  16C0F480           [0937] jmp        980          ; pc+=980 (goto [1918])
7954  19404F07           [0938] le         0   14  317  ; R14 <= 54, pc+=1 (goto [940]) if true
7958  16C00580           [0939] jmp        24           ; pc+=24 (goto [964])
795C  1880039F           [0940] lt         0   318 14   ; 53 < R14, pc+=1 (goto [942]) if true
7960  16800380           [0941] jmp        15           ; pc+=15 (goto [957])
7964  C1C30000           [0942] loadk      15  3        ; R15 := 0
7968  03040008           [0943] loadnil    16  16       ; R16,  := nil
796C  17C0C007           [0944] eq         0   15  259  ; R15 == 0, pc+=1 (goto [946]) if true
7970  1640FF7F           [0945] jmp        -2           ; pc+=-2 (goto [944])
7974  0604C206           [0946] gettable   16  13  264  ; R16 := R13[2]
7978  46048405           [0947] gettable   17  11  16   ; R17 := R11[R16]
797C  84040003           [0948] getupval   18  6        ; R18 := U6 , v21
7980  C0048005           [0949] move       19  11       ; R19 := R11
7984  0C054008           [0950] add        20  16  256  ; R20 := R16 + 1
7988  4645C206           [0951] gettable   21  13  265  ; R21 := R13[3]
798C  9C040002           [0952] call       18  4   0    ; R18 to top := R18(R19 to R21)
7990  5C440000           [0953] call       17  0   1    ;  := R17(R18 to top)
7994  1680F080           [0954] jmp        963          ; pc+=963 (goto [1918])
7998  16C0FC7F           [0955] jmp        -12          ; pc+=-12 (goto [944])
799C  1600F080           [0956] jmp        961          ; pc+=961 (goto [1918])
79A0  C603C206           [0957] gettable   15  13  264  ; R15 := R13[2]
79A4  0644C206           [0958] gettable   16  13  265  ; R16 := R13[3]
79A8  06048405           [0959] gettable   16  11  16   ; R16 := R11[R16]
79AC  4684C206           [0960] gettable   17  13  266  ; R17 := R13[4]
79B0  0C440408           [0961] add        16  16  17   ; R16 := R16 + R17
79B4  C9028407           [0962] settable   11  15  16   ; R11[R15] := R16
79B8  1640EE80           [0963] jmp        954          ; pc+=954 (goto [1918])
79BC  1880839F           [0964] lt         0   319 14   ; 55 < R14, pc+=1 (goto [966]) if true
79C0  16C00180           [0965] jmp        8            ; pc+=8 (goto [974])
79C4  C603C206           [0966] gettable   15  13  264  ; R15 := R13[2]
79C8  0644C206           [0967] gettable   16  13  265  ; R16 := R13[3]
79CC  17C04008           [0968] eq         0   16  259  ; R16 == 0, pc+=1 (goto [970]) if true
79D0  16000080           [0969] jmp        1            ; pc+=1 (goto [971])
79D4  02440000           [0970] loadbool   16  0   1    ; R16 := false; PC := pc+=1 (goto [972])
79D8  02048000           [0971] loadbool   16  1   0    ; R16 := true
79DC  C9028407           [0972] settable   11  15  16   ; R11[R15] := R16
79E0  16C0EB80           [0973] jmp        944          ; pc+=944 (goto [1918])
79E4  C1C30000           [0974] loadk      15  3        ; R15 := 0
79E8  03040008           [0975] loadnil    16  16       ; R16,  := nil
79EC  17C0C007           [0976] eq         0   15  259  ; R15 == 0, pc+=1 (goto [978]) if true
79F0  1640FF7F           [0977] jmp        -2           ; pc+=-2 (goto [976])
79F4  0604C206           [0978] gettable   16  13  264  ; R16 := R13[2]
79F8  44040003           [0979] getupval   17  6        ; R17 := U6 , v21
79FC  80048005           [0980] move       18  11       ; R18 := R11
7A00  C0040008           [0981] move       19  16       ; R19 := R16
7A04  0645C206           [0982] gettable   20  13  265  ; R20 := R13[3]
7A08  0C050508           [0983] add        20  16  20   ; R20 := R16 + R20
7A0C  5D040002           [0984] tailcall   17  4   0    ; R17 to top := R17(R18 to R20)
7A10  5E040000           [0985] return     17  0        ; return R17 to top
7A14  1680E880           [0986] jmp        931          ; pc+=931 (goto [1918])
7A18  16C0FC7F           [0987] jmp        -12          ; pc+=-12 (goto [976])
7A1C  1600E880           [0988] jmp        929          ; pc+=929 (goto [1918])
7A20  19005007           [0989] le         0   14  320  ; R14 <= 84, pc+=1 (goto [991]) if true
7A24  16008E80           [0990] jmp        569          ; pc+=569 (goto [1560])
7A28  19405007           [0991] le         0   14  321  ; R14 <= 70, pc+=1 (goto [993]) if true
7A2C  16C04680           [0992] jmp        284          ; pc+=284 (goto [1277])
7A30  19805007           [0993] le         0   14  322  ; R14 <= 63, pc+=1 (goto [995]) if true
7A34  16401C80           [0994] jmp        114          ; pc+=114 (goto [1109])
7A38  19C05007           [0995] le         0   14  323  ; R14 <= 59, pc+=1 (goto [997]) if true
7A3C  16C00980           [0996] jmp        40           ; pc+=40 (goto [1037])
7A40  19005107           [0997] le         0   14  324  ; R14 <= 57, pc+=1 (goto [999]) if true
7A44  16800180           [0998] jmp        7            ; pc+=7 (goto [1006])
7A48  C603C206           [0999] gettable   15  13  264  ; R15 := R13[2]
7A4C  C6C38305           [1000] gettable   15  11  15   ; R15 := R11[R15]
7A50  0644C206           [1001] gettable   16  13  265  ; R16 := R13[3]
7A54  4684C206           [1002] gettable   17  13  266  ; R17 := R13[4]
7A58  46448405           [1003] gettable   17  11  17   ; R17 := R11[R17]
7A5C  C9430408           [1004] settable   15  16  17   ; R15[R16] := R17
7A60  16C0E380           [1005] jmp        912          ; pc+=912 (goto [1918])
7A64  17405107           [1006] eq         0   14  325  ; R14 == 58, pc+=1 (goto [1008]) if true
7A68  16400580           [1007] jmp        22           ; pc+=22 (goto [1030])
7A6C  C1C30000           [1008] loadk      15  3        ; R15 := 0
7A70  03048008           [1009] loadnil    16  17       ; R16, R17,  := nil
7A74  1700C007           [1010] eq         0   15  256  ; R15 == 1, pc+=1 (goto [1012]) if true
7A78  16800280           [1011] jmp        11           ; pc+=11 (goto [1023])
7A7C  8C044008           [1012] add        18  16  256  ; R18 := R16 + 1
7A80  C684C206           [1013] gettable   19  13  266  ; R19 := R13[4]
7A84  01050000           [1014] loadk      20  0        ; R20 := 1
7A88  A0840080           [1015] forprep    18  3        ; R18 -= R20; PC := 1019
7A8C  80058008           [1016] move       22  17       ; R22 := R17
7A90  C6458505           [1017] gettable   23  11  21   ; R23 := R11[R21]
7A94  55C4050B           [1018] concat     17  22  23   ; R17 := R22..R23
7A98  9FC4FE7F           [1019] forloop    18  -4       ; R18 += R20; if R18 <= R19 then begin PC := 1016; R21 := R18 end
7A9C  8604C206           [1020] gettable   18  13  264  ; R18 := R13[2]
7AA0  C9420409           [1021] settable   11  18  17   ; R11[R18] := R17
7AA4  1680DF80           [1022] jmp        895          ; pc+=895 (goto [1918])
7AA8  17C0C007           [1023] eq         0   15  259  ; R15 == 0, pc+=1 (goto [1025]) if true
7AAC  1600FC7F           [1024] jmp        -15          ; pc+=-15 (goto [1010])
7AB0  0644C206           [1025] gettable   16  13  265  ; R16 := R13[3]
7AB4  46048405           [1026] gettable   17  11  16   ; R17 := R11[R16]
7AB8  C1030000           [1027] loadk      15  0        ; R15 := 1
7ABC  1600FB7F           [1028] jmp        -19          ; pc+=-19 (goto [1010])
7AC0  16C0DD80           [1029] jmp        888          ; pc+=888 (goto [1918])
7AC4  C603C206           [1030] gettable   15  13  264  ; R15 := R13[2]
7AC8  0644C206           [1031] gettable   16  13  265  ; R16 := R13[3]
7ACC  06048405           [1032] gettable   16  11  16   ; R16 := R11[R16]
7AD0  4684C206           [1033] gettable   17  13  266  ; R17 := R13[4]
7AD4  06440408           [1034] gettable   16  16  17   ; R16 := R16[R17]
7AD8  C9028407           [1035] settable   11  15  16   ; R11[R15] := R16
7ADC  1600DC80           [1036] jmp        881          ; pc+=881 (goto [1918])
7AE0  19805107           [1037] le         0   14  326  ; R14 <= 61, pc+=1 (goto [1039]) if true
7AE4  16800680           [1038] jmp        27           ; pc+=27 (goto [1066])
7AE8  17C05107           [1039] eq         0   14  327  ; R14 == 60, pc+=1 (goto [1041]) if true
7AEC  16C00080           [1040] jmp        4            ; pc+=4 (goto [1045])
7AF0  C603C206           [1041] gettable   15  13  264  ; R15 := R13[2]
7AF4  C6C38305           [1042] gettable   15  11  15   ; R15 := R11[R15]
7AF8  DC438000           [1043] call       15  1   1    ;  := R15()
7AFC  1600DA80           [1044] jmp        873          ; pc+=873 (goto [1918])
7B00  C1C30000           [1045] loadk      15  3        ; R15 := 0
7B04  03048008           [1046] loadnil    16  17       ; R16, R17,  := nil
7B08  17C0C007           [1047] eq         0   15  259  ; R15 == 0, pc+=1 (goto [1049]) if true
7B0C  16800080           [1048] jmp        3            ; pc+=3 (goto [1052])
7B10  0604C206           [1049] gettable   16  13  264  ; R16 := R13[2]
7B14  46048405           [1050] gettable   17  11  16   ; R17 := R11[R16]
7B18  C1030000           [1051] loadk      15  0        ; R15 := 1
7B1C  1700C007           [1052] eq         0   15  256  ; R15 == 1, pc+=1 (goto [1054]) if true
7B20  1600FE7F           [1053] jmp        -7           ; pc+=-7 (goto [1047])
7B24  8C044008           [1054] add        18  16  256  ; R18 := R16 + 1
7B28  C0040003           [1055] move       19  6        ; R19 := R6
7B2C  01050000           [1056] loadk      20  0        ; R20 := 1
7B30  A0C40080           [1057] forprep    18  4        ; R18 -= R20; PC := 1062
7B34  84058004           [1058] getupval   22  9        ; R22 := U9 , v15
7B38  C0058008           [1059] move       23  17       ; R23 := R17
7B3C  06468505           [1060] gettable   24  11  21   ; R24 := R11[R21]
7B40  9C458001           [1061] call       22  3   1    ;  := R22(R23, R24)
7B44  9F84FE7F           [1062] forloop    18  -5       ; R18 += R20; if R18 <= R19 then begin PC := 1058; R21 := R18 end
7B48  1640D580           [1063] jmp        854          ; pc+=854 (goto [1918])
7B4C  1640FB7F           [1064] jmp        -18          ; pc+=-18 (goto [1047])
7B50  16C0D480           [1065] jmp        852          ; pc+=852 (goto [1918])
7B54  188003A4           [1066] lt         0   328 14   ; 62 < R14, pc+=1 (goto [1068]) if true
7B58  16000880           [1067] jmp        33           ; pc+=33 (goto [1101])
7B5C  C1C30000           [1068] loadk      15  3        ; R15 := 0
7B60  03040009           [1069] loadnil    16  18       ; R16, R17, R18,  := nil
7B64  1700C007           [1070] eq         0   15  256  ; R15 == 1, pc+=1 (goto [1072]) if true
7B68  16400580           [1071] jmp        22           ; pc+=22 (goto [1094])
7B6C  CC044208           [1072] add        19  16  264  ; R19 := R16 + 2
7B70  86C48405           [1073] gettable   18  11  19   ; R18 := R11[R19]
7B74  18808481           [1074] lt         0   259 18   ; 0 < R18, pc+=1 (goto [1076]) if true
7B78  16000280           [1075] jmp        9            ; pc+=9 (goto [1085])
7B7C  CC044008           [1076] add        19  16  256  ; R19 := R16 + 1
7B80  C6C48405           [1077] gettable   19  11  19   ; R19 := R11[R19]
7B84  18408409           [1078] lt         0   19  17   ; R19 < R17, pc+=1 (goto [1080]) if true
7B88  16400080           [1079] jmp        2            ; pc+=2 (goto [1082])
7B8C  4641C206           [1080] gettable   5   13  265  ; R5 := R13[3]
7B90  16C0D080           [1081] jmp        836          ; pc+=836 (goto [1918])
7B94  CC444208           [1082] add        19  16  265  ; R19 := R16 + 3
7B98  C9428409           [1083] settable   11  19  17   ; R11[R19] := R17
7B9C  1600D080           [1084] jmp        833          ; pc+=833 (goto [1918])
7BA0  CC044008           [1085] add        19  16  256  ; R19 := R16 + 1
7BA4  C6C48405           [1086] gettable   19  11  19   ; R19 := R11[R19]
7BA8  18C08408           [1087] lt         0   17  19   ; R17 < R19, pc+=1 (goto [1089]) if true
7BAC  16400080           [1088] jmp        2            ; pc+=2 (goto [1091])
7BB0  4641C206           [1089] gettable   5   13  265  ; R5 := R13[3]
7BB4  1680CE80           [1090] jmp        827          ; pc+=827 (goto [1918])
7BB8  CC444208           [1091] add        19  16  265  ; R19 := R16 + 3
7BBC  C9428409           [1092] settable   11  19  17   ; R11[R19] := R17
7BC0  16C0CD80           [1093] jmp        824          ; pc+=824 (goto [1918])
7BC4  17C0C007           [1094] eq         0   15  259  ; R15 == 0, pc+=1 (goto [1096]) if true
7BC8  1640F97F           [1095] jmp        -26          ; pc+=-26 (goto [1070])
7BCC  0604C206           [1096] gettable   16  13  264  ; R16 := R13[2]
7BD0  46048405           [1097] gettable   17  11  16   ; R17 := R11[R16]
7BD4  C1030000           [1098] loadk      15  0        ; R15 := 1
7BD8  1640F87F           [1099] jmp        -30          ; pc+=-30 (goto [1070])
7BDC  1600CC80           [1100] jmp        817          ; pc+=817 (goto [1918])
7BE0  C603C206           [1101] gettable   15  13  264  ; R15 := R13[2]
7BE4  C6C38305           [1102] gettable   15  11  15   ; R15 := R11[R15]
7BE8  DA030000           [1103] test       15      0    ; if R15 then pc+=1 (goto [1105])
7BEC  16400080           [1104] jmp        2            ; pc+=2 (goto [1107])
7BF0  4C01C002           [1105] add        5   5   256  ; R5 := R5 + 1
7BF4  1680CA80           [1106] jmp        811          ; pc+=811 (goto [1918])
7BF8  4641C206           [1107] gettable   5   13  265  ; R5 := R13[3]
7BFC  1600CA80           [1108] jmp        809          ; pc+=809 (goto [1918])
7C00  19405207           [1109] le         0   14  329  ; R14 <= 66, pc+=1 (goto [1111]) if true
7C04  16800D80           [1110] jmp        55           ; pc+=55 (goto [1166])
7C08  19805207           [1111] le         0   14  330  ; R14 <= 64, pc+=1 (goto [1113]) if true
7C0C  16C00080           [1112] jmp        4            ; pc+=4 (goto [1117])
7C10  C603C206           [1113] gettable   15  13  264  ; R15 := R13[2]
7C14  C6C38305           [1114] gettable   15  11  15   ; R15 := R11[R15]
7C18  DE030001           [1115] return     15  2        ; return R15
7C1C  1600C880           [1116] jmp        801          ; pc+=801 (goto [1918])
7C20  17C05207           [1117] eq         0   14  331  ; R14 == 65, pc+=1 (goto [1119]) if true
7C24  16400980           [1118] jmp        38           ; pc+=38 (goto [1157])
7C28  C1C30000           [1119] loadk      15  3        ; R15 := 0
7C2C  03048009           [1120] loadnil    16  19       ; R16, R17, R18, R19,  := nil
7C30  17C0C007           [1121] eq         0   15  259  ; R15 == 0, pc+=1 (goto [1123]) if true
7C34  16400280           [1122] jmp        10           ; pc+=10 (goto [1133])
7C38  0604C206           [1123] gettable   16  13  264  ; R16 := R13[2]
7C3C  00050002           [1124] move       20  4        ; R20 := R4
7C40  46058405           [1125] gettable   21  11  16   ; R21 := R11[R16]
7C44  8C054008           [1126] add        22  16  256  ; R22 := R16 + 1
7C48  86858505           [1127] gettable   22  11  22   ; R22 := R11[R22]
7C4C  5C050001           [1128] call       21  2   0    ; R21 to top := R21(R22)
7C50  1CC50000           [1129] call       20  0   3    ; R20, R21 := R20(R21 to top)
7C54  8004800A           [1130] move       18  21       ; R18 := R21
7C58  4004000A           [1131] move       17  20       ; R17 := R20
7C5C  C1030000           [1132] loadk      15  0        ; R15 := 1
7C60  17C00380           [1133] eq         0   256 15   ; 1 == R15, pc+=1 (goto [1135]) if true
7C64  16C00080           [1134] jmp        4            ; pc+=4 (goto [1139])
7C68  0C050409           [1135] add        20  18  16   ; R20 := R18 + R16
7C6C  8D01400A           [1136] sub        6   20  256  ; R6 := R20 - 1
7C70  C1C40000           [1137] loadk      19  3        ; R19 := 0
7C74  C1030200           [1138] loadk      15  8        ; R15 := 2
7C78  17C00384           [1139] eq         0   264 15   ; 2 == R15, pc+=1 (goto [1141]) if true
7C7C  16C0FA7F           [1140] jmp        -20          ; pc+=-20 (goto [1121])
7C80  00050008           [1141] move       20  16       ; R20 := R16
7C84  40050003           [1142] move       21  6        ; R21 := R6
7C88  81050000           [1143] loadk      22  0        ; R22 := 1
7C8C  20C50180           [1144] forprep    20  8        ; R20 -= R22; PC := 1153
7C90  01C60000           [1145] loadk      24  3        ; R24 := 0
7C94  17008681           [1146] eq         0   259 24   ; 0 == R24, pc+=1 (goto [1148]) if true
7C98  1640FF7F           [1147] jmp        -2           ; pc+=-2 (goto [1146])
7C9C  CC04C009           [1148] add        19  19  256  ; R19 := R19 + 1
7CA0  46C68408           [1149] gettable   25  17  19   ; R25 := R17[R19]
7CA4  C942860B           [1150] settable   11  23  25   ; R11[R23] := R25
7CA8  16000080           [1151] jmp        1            ; pc+=1 (goto [1153])
7CAC  1600FE7F           [1152] jmp        -7           ; pc+=-7 (goto [1146])
7CB0  1F85FD7F           [1153] forloop    20  -9       ; R20 += R22; if R20 <= R21 then begin PC := 1145; R23 := R20 end
7CB4  1680BE80           [1154] jmp        763          ; pc+=763 (goto [1918])
7CB8  1600F77F           [1155] jmp        -35          ; pc+=-35 (goto [1121])
7CBC  1600BE80           [1156] jmp        761          ; pc+=761 (goto [1918])
7CC0  C603C206           [1157] gettable   15  13  264  ; R15 := R13[2]
7CC4  0684C206           [1158] gettable   16  13  266  ; R16 := R13[4]
7CC8  06048405           [1159] gettable   16  11  16   ; R16 := R11[R16]
7CCC  17008407           [1160] eq         0   15  16   ; R15 == R16, pc+=1 (goto [1162]) if true
7CD0  16400080           [1161] jmp        2            ; pc+=2 (goto [1164])
7CD4  4C01C002           [1162] add        5   5   256  ; R5 := R5 + 1
7CD8  1640BC80           [1163] jmp        754          ; pc+=754 (goto [1918])
7CDC  4641C206           [1164] gettable   5   13  265  ; R5 := R13[3]
7CE0  16C0BB80           [1165] jmp        752          ; pc+=752 (goto [1918])
7CE4  19005307           [1166] le         0   14  332  ; R14 <= 68, pc+=1 (goto [1168]) if true
7CE8  16000580           [1167] jmp        21           ; pc+=21 (goto [1189])
7CEC  17405307           [1168] eq         0   14  333  ; R14 == 67, pc+=1 (goto [1170]) if true
7CF0  16400280           [1169] jmp        10           ; pc+=10 (goto [1180])
7CF4  C603C206           [1170] gettable   15  13  264  ; R15 := R13[2]
7CF8  C6C38305           [1171] gettable   15  11  15   ; R15 := R11[R15]
7CFC  0684C206           [1172] gettable   16  13  266  ; R16 := R13[4]
7D00  06048405           [1173] gettable   16  11  16   ; R16 := R11[R16]
7D04  17008407           [1174] eq         0   15  16   ; R15 == R16, pc+=1 (goto [1176]) if true
7D08  16400080           [1175] jmp        2            ; pc+=2 (goto [1178])
7D0C  4C01C002           [1176] add        5   5   256  ; R5 := R5 + 1
7D10  16C0B880           [1177] jmp        740          ; pc+=740 (goto [1918])
7D14  4641C206           [1178] gettable   5   13  265  ; R5 := R13[3]
7D18  1640B880           [1179] jmp        738          ; pc+=738 (goto [1918])
7D1C  C603C206           [1180] gettable   15  13  264  ; R15 := R13[2]
7D20  C6C38305           [1181] gettable   15  11  15   ; R15 := R11[R15]
7D24  0684C206           [1182] gettable   16  13  266  ; R16 := R13[4]
7D28  19008407           [1183] le         0   15  16   ; R15 <= R16, pc+=1 (goto [1185]) if true
7D2C  16400080           [1184] jmp        2            ; pc+=2 (goto [1187])
7D30  4C01C002           [1185] add        5   5   256  ; R5 := R5 + 1
7D34  1680B680           [1186] jmp        731          ; pc+=731 (goto [1918])
7D38  4641C206           [1187] gettable   5   13  265  ; R5 := R13[3]
7D3C  1600B680           [1188] jmp        729          ; pc+=729 (goto [1918])
7D40  188003A7           [1189] lt         0   334 14   ; 69 < R14, pc+=1 (goto [1191]) if true
7D44  16000180           [1190] jmp        5            ; pc+=5 (goto [1196])
7D48  C603C206           [1191] gettable   15  13  264  ; R15 := R13[2]
7D4C  0644C206           [1192] gettable   16  13  265  ; R16 := R13[3]
7D50  06048405           [1193] gettable   16  11  16   ; R16 := R11[R16]
7D54  C9028407           [1194] settable   11  15  16   ; R11[R15] := R16
7D58  1640B480           [1195] jmp        722          ; pc+=722 (goto [1918])
7D5C  C1C30000           [1196] loadk      15  3        ; R15 := 0
7D60  03040009           [1197] loadnil    16  18       ; R16, R17, R18,  := nil
7D64  17C0C007           [1198] eq         0   15  259  ; R15 == 0, pc+=1 (goto [1200]) if true
7D68  16C00080           [1199] jmp        4            ; pc+=4 (goto [1204])
7D6C  C644C206           [1200] gettable   19  13  265  ; R19 := R13[3]
7D70  06C40401           [1201] gettable   16  2   19   ; R16 := R2[R19]
7D74  43048008           [1202] loadnil    17  17       ; R17,  := nil
7D78  C1030000           [1203] loadk      15  0        ; R15 := 1
7D7C  1700C207           [1204] eq         0   15  264  ; R15 == 2, pc+=1 (goto [1206]) if true
7D80  16C00A80           [1205] jmp        44           ; pc+=44 (goto [1250])
7D84  C1040000           [1206] loadk      19  0        ; R19 := 1
7D88  0685C206           [1207] gettable   20  13  266  ; R20 := R13[4]
7D8C  41050000           [1208] loadk      21  0        ; R21 := 1
7D90  E0840780           [1209] forprep    19  31       ; R19 -= R21; PC := 1241
7D94  C1C50000           [1210] loadk      23  3        ; R23 := 0
7D98  0306000C           [1211] loadnil    24  24       ; R24,  := nil
7D9C  17C0C00B           [1212] eq         0   23  259  ; R23 == 0, pc+=1 (goto [1214]) if true
7DA0  16C00080           [1213] jmp        4            ; pc+=4 (goto [1218])
7DA4  4C06C002           [1214] add        25  5   256  ; R25 := R5 + 1
7DA8  4CC1C00C           [1215] add        5   25  259  ; R5 := R25 + 0
7DAC  06468100           [1216] gettable   24  1   5    ; R24 := R1[R5]
7DB0  C1050000           [1217] loadk      23  0        ; R23 := 1
7DB4  1700C00B           [1218] eq         0   23  256  ; R23 == 1, pc+=1 (goto [1220]) if true
7DB8  16C0FD7F           [1219] jmp        -8           ; pc+=-8 (goto [1212])
7DBC  4606400C           [1220] gettable   25  24  256  ; R25 := R24[1]
7DC0  1740D00C           [1221] eq         0   25  321  ; R25 == 70, pc+=1 (goto [1223]) if true
7DC4  16800180           [1222] jmp        7            ; pc+=7 (goto [1230])
7DC8  4D06400B           [1223] sub        25  22  256  ; R25 := R22 - 1
7DCC  8A060001           [1224] newtable   26  2   0    ; R26 := {} , array=2, hash=0
7DD0  C0068005           [1225] move       27  11       ; R27 := R11
7DD4  0647420C           [1226] gettable   28  24  265  ; R28 := R24[3]
7DD8  A2460001           [1227] setlist    26  2   1    ; R26[1 to 2] := R27 to R28
7DDC  8984860C           [1228] settable   18  25  26   ; R18[R25] := R26
7DE0  16400180           [1229] jmp        6            ; pc+=6 (goto [1236])
7DE4  4D06400B           [1230] sub        25  22  256  ; R25 := R22 - 1
7DE8  8A060001           [1231] newtable   26  2   0    ; R26 := {} , array=2, hash=0
7DEC  C4068002           [1232] getupval   27  5        ; R27 := U5 , v56
7DF0  0647420C           [1233] gettable   28  24  265  ; R28 := R24[3]
7DF4  A2460001           [1234] setlist    26  2   1    ; R26[1 to 2] := R27 to R28
7DF8  8984860C           [1235] settable   18  25  26   ; R18[R25] := R26
7DFC  54060005           [1236] len        25  10       ; R25 := #R10
7E00  4C06C00C           [1237] add        25  25  256  ; R25 := R25 + 1
7E04  8982840C           [1238] settable   10  25  18   ; R10[R25] := R18
7E08  16000080           [1239] jmp        1            ; pc+=1 (goto [1241])
7E0C  1680F87F           [1240] jmp        -29          ; pc+=-29 (goto [1212])
7E10  DFC4F77F           [1241] forloop    19  -32      ; R19 += R21; if R19 <= R20 then begin PC := 1210; R22 := R19 end
7E14  C604C206           [1242] gettable   19  13  264  ; R19 := R13[2]
7E18  04050005           [1243] getupval   20  10       ; R20 := U10 , v41
7E1C  40050008           [1244] move       21  16       ; R21 := R16
7E20  80058008           [1245] move       22  17       ; R22 := R17
7E24  C4058003           [1246] getupval   23  7        ; R23 := U7 , v57
7E28  1C850002           [1247] call       20  4   2    ; R20 := R20(R21 to R23)
7E2C  C9028509           [1248] settable   11  19  20   ; R11[R19] := R20
7E30  16000680           [1249] jmp        25           ; pc+=25 (goto [1275])
7E34  1700C007           [1250] eq         0   15  256  ; R15 == 1, pc+=1 (goto [1252]) if true
7E38  1640F27F           [1251] jmp        -54          ; pc+=-54 (goto [1198])
7E3C  CA040000           [1252] newtable   19  0   0    ; R19 := {} , array=0, hash=0
7E40  80048009           [1253] move       18  19       ; R18 := R19
7E44  C4048005           [1254] getupval   19  11       ; R19 := U11 , v18
7E48  0A050000           [1255] newtable   20  0   0    ; R20 := {} , array=0, hash=0
7E4C  4A850000           [1256] newtable   21  0   2    ; R21 := {} , array=0, hash=2
7E50  84050004           [1257] getupval   22  8        ; R22 := U8 , v7
7E54  C1C51300           [1258] loadk      23  79       ; R23 := "\24\203_\25#\241N"
7E58  01061400           [1259] loadk      24  80       ; R24 := "wG\1486"
7E5C  9C858001           [1260] call       22  3   2    ; R22 := R22(R23, R24)
7E60  E4050000           [1261] closure    23  0        ; R23 := closure(function[0]) 1 upvalues
7E64  00000009           [1262] move       0   18       ; R0 := R18
7E68  49C5050B           [1263] settable   21  22  23   ; R21[R22] := R23
7E6C  84050004           [1264] getupval   22  8        ; R22 := U8 , v7
7E70  C1451400           [1265] loadk      23  81       ; R23 := "g\233+,\200\230V\210 1"
7E74  01861400           [1266] loadk      24  82       ; R24 := "\1438\182EI\191"
7E78  9C858001           [1267] call       22  3   2    ; R22 := R22(R23, R24)
7E7C  E4450000           [1268] closure    23  1        ; R23 := closure(function[1]) 1 upvalues
7E80  00000009           [1269] move       0   18       ; R0 := R18
7E84  49C5050B           [1270] settable   21  22  23   ; R21[R22] := R23
7E88  DC848001           [1271] call       19  3   2    ; R19 := R19(R20, R21)
7E8C  40048009           [1272] move       17  19       ; R17 := R19
7E90  C1030200           [1273] loadk      15  8        ; R15 := 2
7E94  1680EC7F           [1274] jmp        -77          ; pc+=-77 (goto [1198])
7E98  E3030000           [1275] close      15   ; SAVE all upvalues from R15 to top
7E9C  1600A080           [1276] jmp        641          ; pc+=641 (goto [1918])
7EA0  19C05407           [1277] le         0   14  339  ; R14 <= 77, pc+=1 (goto [1279]) if true
7EA4  16402280           [1278] jmp        138          ; pc+=138 (goto [1417])
7EA8  19005507           [1279] le         0   14  340  ; R14 <= 73, pc+=1 (goto [1281]) if true
7EAC  16000780           [1280] jmp        29           ; pc+=29 (goto [1310])
7EB0  19405507           [1281] le         0   14  341  ; R14 <= 71, pc+=1 (goto [1283]) if true
7EB4  16000280           [1282] jmp        9            ; pc+=9 (goto [1292])
7EB8  C603C206           [1283] gettable   15  13  264  ; R15 := R13[2]
7EBC  06C48305           [1284] gettable   16  11  15   ; R16 := R11[R15]
7EC0  44040003           [1285] getupval   17  6        ; R17 := U6 , v21
7EC4  80048005           [1286] move       18  11       ; R18 := R11
7EC8  CC04C007           [1287] add        19  15  256  ; R19 := R15 + 1
7ECC  00050003           [1288] move       20  6        ; R20 := R6
7ED0  5C040002           [1289] call       17  4   0    ; R17 to top := R17(R18 to R20)
7ED4  1C440000           [1290] call       16  0   1    ;  := R16(R17 to top)
7ED8  16409C80           [1291] jmp        626          ; pc+=626 (goto [1918])
7EDC  17805507           [1292] eq         0   14  342  ; R14 == 72, pc+=1 (goto [1294]) if true
7EE0  16C00080           [1293] jmp        4            ; pc+=4 (goto [1298])
7EE4  C603C206           [1294] gettable   15  13  264  ; R15 := R13[2]
7EE8  0A040000           [1295] newtable   16  0   0    ; R16 := {} , array=0, hash=0
7EEC  C9028407           [1296] settable   11  15  16   ; R11[R15] := R16
7EF0  16C09A80           [1297] jmp        620          ; pc+=620 (goto [1918])
7EF4  C603C206           [1298] gettable   15  13  264  ; R15 := R13[2]
7EF8  06C48305           [1299] gettable   16  11  15   ; R16 := R11[R15]
7EFC  4C04C007           [1300] add        17  15  256  ; R17 := R15 + 1
7F00  8644C206           [1301] gettable   18  13  265  ; R18 := R13[3]
7F04  C1040000           [1302] loadk      19  0        ; R19 := 1
7F08  60C40080           [1303] forprep    17  4        ; R17 -= R19; PC := 1308
7F0C  44058004           [1304] getupval   21  9        ; R21 := U9 , v15
7F10  80050008           [1305] move       22  16       ; R22 := R16
7F14  C6058505           [1306] gettable   23  11  20   ; R23 := R11[R20]
7F18  5C458001           [1307] call       21  3   1    ;  := R21(R22, R23)
7F1C  5F84FE7F           [1308] forloop    17  -5       ; R17 += R19; if R17 <= R18 then begin PC := 1304; R20 := R17 end
7F20  16C09780           [1309] jmp        608          ; pc+=608 (goto [1918])
7F24  19C05507           [1310] le         0   14  343  ; R14 <= 75, pc+=1 (goto [1312]) if true
7F28  16401680           [1311] jmp        90           ; pc+=90 (goto [1402])
7F2C  188003AC           [1312] lt         0   344 14   ; 74 < R14, pc+=1 (goto [1314]) if true
7F30  16801080           [1313] jmp        67           ; pc+=67 (goto [1381])
7F34  C643C206           [1314] gettable   15  13  265  ; R15 := R13[3]
7F38  C6C30301           [1315] gettable   15  2   15   ; R15 := R2[R15]
7F3C  03040008           [1316] loadnil    16  16       ; R16,  := nil
7F40  4A040000           [1317] newtable   17  0   0    ; R17 := {} , array=0, hash=0
7F44  84048005           [1318] getupval   18  11       ; R18 := U11 , v18
7F48  CA040000           [1319] newtable   19  0   0    ; R19 := {} , array=0, hash=0
7F4C  0A850000           [1320] newtable   20  0   2    ; R20 := {} , array=0, hash=2
7F50  44050004           [1321] getupval   21  8        ; R21 := U8 , v7
7F54  81451600           [1322] loadk      22  89       ; R22 := "\192v\203\204/\23\153"
7F58  C1851600           [1323] loadk      23  90       ; R23 := "\225\159)\162\162Kr"
7F5C  5C858001           [1324] call       21  3   2    ; R21 := R21(R22, R23)
7F60  A4850000           [1325] closure    22  2        ; R22 := closure(function[2]) 1 upvalues
7F64  00008008           [1326] move       0   17       ; R0 := R17
7F68  0985850A           [1327] settable   20  21  22   ; R20[R21] := R22
7F6C  44050004           [1328] getupval   21  8        ; R21 := U8 , v7
7F70  81C51600           [1329] loadk      22  91       ; R22 := "\180\184\26\aB\130\137\16\aM"
7F74  C1051700           [1330] loadk      23  92       ; R23 := "5\235\231tb"
7F78  5C858001           [1331] call       21  3   2    ; R21 := R21(R22, R23)
7F7C  A4C50000           [1332] closure    22  3        ; R22 := closure(function[3]) 1 upvalues
7F80  00008008           [1333] move       0   17       ; R0 := R17
7F84  0985850A           [1334] settable   20  21  22   ; R20[R21] := R22
7F88  9C848001           [1335] call       18  3   2    ; R18 := R18(R19, R20)
7F8C  00040009           [1336] move       16  18       ; R16 := R18
7F90  81040000           [1337] loadk      18  0        ; R18 := 1
7F94  C684C206           [1338] gettable   19  13  266  ; R19 := R13[4]
7F98  01050000           [1339] loadk      20  0        ; R20 := 1
7F9C  A0440780           [1340] forprep    18  30       ; R18 -= R20; PC := 1371
7FA0  81C50000           [1341] loadk      22  3        ; R22 := 0
7FA4  C305800B           [1342] loadnil    23  23       ; R23,  := nil
7FA8  1700400B           [1343] eq         0   22  256  ; R22 == 1, pc+=1 (goto [1345]) if true
7FAC  16C00480           [1344] jmp        20           ; pc+=20 (goto [1365])
7FB0  0606C00B           [1345] gettable   24  23  256  ; R24 := R23[1]
7FB4  1740500C           [1346] eq         0   24  321  ; R24 == 70, pc+=1 (goto [1348]) if true
7FB8  16800180           [1347] jmp        7            ; pc+=7 (goto [1355])
7FBC  0D06C00A           [1348] sub        24  21  256  ; R24 := R21 - 1
7FC0  4A060001           [1349] newtable   25  2   0    ; R25 := {} , array=2, hash=0
7FC4  80068005           [1350] move       26  11       ; R26 := R11
7FC8  C646C20B           [1351] gettable   27  23  265  ; R27 := R23[3]
7FCC  62460001           [1352] setlist    25  2   1    ; R25[1 to 2] := R26 to R27
7FD0  4944060C           [1353] settable   17  24  25   ; R17[R24] := R25
7FD4  16400180           [1354] jmp        6            ; pc+=6 (goto [1361])
7FD8  0D06C00A           [1355] sub        24  21  256  ; R24 := R21 - 1
7FDC  4A060001           [1356] newtable   25  2   0    ; R25 := {} , array=2, hash=0
7FE0  84068002           [1357] getupval   26  5        ; R26 := U5 , v56
7FE4  C646C20B           [1358] gettable   27  23  265  ; R27 := R23[3]
7FE8  62460001           [1359] setlist    25  2   1    ; R25[1 to 2] := R26 to R27
7FEC  4944060C           [1360] settable   17  24  25   ; R17[R24] := R25
7FF0  14060005           [1361] len        24  10       ; R24 := #R10
7FF4  0C06400C           [1362] add        24  24  256  ; R24 := R24 + 1
7FF8  8942040C           [1363] settable   10  24  17   ; R10[R24] := R17
7FFC  16400180           [1364] jmp        6            ; pc+=6 (goto [1371])
8000  17C0400B           [1365] eq         0   22  259  ; R22 == 0, pc+=1 (goto [1367]) if true
8004  16C0F97F           [1366] jmp        -24          ; pc+=-24 (goto [1343])
8008  4C01C002           [1367] add        5   5   256  ; R5 := R5 + 1
800C  C6458100           [1368] gettable   23  1   5    ; R23 := R1[R5]
8010  81050000           [1369] loadk      22  0        ; R22 := 1
8014  16C0F87F           [1370] jmp        -28          ; pc+=-28 (goto [1343])
8018  9F04F87F           [1371] forloop    18  -31      ; R18 += R20; if R18 <= R19 then begin PC := 1341; R21 := R18 end
801C  8604C206           [1372] gettable   18  13  264  ; R18 := R13[2]
8020  C4040005           [1373] getupval   19  10       ; R19 := U10 , v41
8024  00058007           [1374] move       20  15       ; R20 := R15
8028  40050008           [1375] move       21  16       ; R21 := R16
802C  84058003           [1376] getupval   22  7        ; R22 := U7 , v57
8030  DC840002           [1377] call       19  4   2    ; R19 := R19(R20 to R22)
8034  C9C20409           [1378] settable   11  18  19   ; R11[R18] := R19
8038  E3030000           [1379] close      15   ; SAVE all upvalues from R15 to top
803C  16008680           [1380] jmp        537          ; pc+=537 (goto [1918])
8040  C1C30000           [1381] loadk      15  3        ; R15 := 0
8044  03040009           [1382] loadnil    16  18       ; R16, R17, R18,  := nil
8048  17C00380           [1383] eq         0   256 15   ; 1 == R15, pc+=1 (goto [1385]) if true
804C  16400280           [1384] jmp        10           ; pc+=10 (goto [1395])
8050  8644C206           [1385] gettable   18  13  265  ; R18 := R13[3]
8054  C1040000           [1386] loadk      19  0        ; R19 := 1
8058  00050009           [1387] move       20  18       ; R20 := R18
805C  41050000           [1388] loadk      21  0        ; R21 := 1
8060  E0840080           [1389] forprep    19  3        ; R19 -= R21; PC := 1393
8064  CC850508           [1390] add        23  16  22   ; R23 := R16 + R22
8068  C6C58505           [1391] gettable   23  11  23   ; R23 := R11[R23]
806C  49C4050B           [1392] settable   17  22  23   ; R17[R22] := R23
8070  DFC4FE7F           [1393] forloop    19  -4       ; R19 += R21; if R19 <= R20 then begin PC := 1390; R22 := R19 end
8074  16808280           [1394] jmp        523          ; pc+=523 (goto [1918])
8078  17C0C007           [1395] eq         0   15  259  ; R15 == 0, pc+=1 (goto [1397]) if true
807C  1640FC7F           [1396] jmp        -14          ; pc+=-14 (goto [1383])
8080  0604C206           [1397] gettable   16  13  264  ; R16 := R13[2]
8084  46048405           [1398] gettable   17  11  16   ; R17 := R11[R16]
8088  C1030000           [1399] loadk      15  0        ; R15 := 1
808C  1640FB7F           [1400] jmp        -18          ; pc+=-18 (goto [1383])
8090  16C08080           [1401] jmp        516          ; pc+=516 (goto [1918])
8094  17405707           [1402] eq         0   14  349  ; R14 == 76, pc+=1 (goto [1404]) if true
8098  16C00080           [1403] jmp        4            ; pc+=4 (goto [1408])
809C  C603C206           [1404] gettable   15  13  264  ; R15 := R13[2]
80A0  0644C206           [1405] gettable   16  13  265  ; R16 := R13[3]
80A4  C9028407           [1406] settable   11  15  16   ; R11[R15] := R16
80A8  16407F80           [1407] jmp        510          ; pc+=510 (goto [1918])
80AC  C603C206           [1408] gettable   15  13  264  ; R15 := R13[2]
80B0  C6C38305           [1409] gettable   15  11  15   ; R15 := R11[R15]
80B4  0684C206           [1410] gettable   16  13  266  ; R16 := R13[4]
80B8  17008407           [1411] eq         0   15  16   ; R15 == R16, pc+=1 (goto [1413]) if true
80BC  16400080           [1412] jmp        2            ; pc+=2 (goto [1415])
80C0  4C01C002           [1413] add        5   5   256  ; R5 := R5 + 1
80C4  16807D80           [1414] jmp        503          ; pc+=503 (goto [1918])
80C8  4641C206           [1415] gettable   5   13  265  ; R5 := R13[3]
80CC  16007D80           [1416] jmp        501          ; pc+=501 (goto [1918])
80D0  19805707           [1417] le         0   14  350  ; R14 <= 80, pc+=1 (goto [1419]) if true
80D4  16800F80           [1418] jmp        63           ; pc+=63 (goto [1482])
80D8  19C05707           [1419] le         0   14  351  ; R14 <= 78, pc+=1 (goto [1421]) if true
80DC  16400180           [1420] jmp        6            ; pc+=6 (goto [1427])
80E0  C603C206           [1421] gettable   15  13  264  ; R15 := R13[2]
80E4  0644C206           [1422] gettable   16  13  265  ; R16 := R13[3]
80E8  06048405           [1423] gettable   16  11  16   ; R16 := R11[R16]
80EC  14040008           [1424] len        16  16       ; R16 := #R16
80F0  C9028407           [1425] settable   11  15  16   ; R11[R15] := R16
80F4  16807A80           [1426] jmp        491          ; pc+=491 (goto [1918])
80F8  188003B0           [1427] lt         0   352 14   ; 79 < R14, pc+=1 (goto [1429]) if true
80FC  16800780           [1428] jmp        31           ; pc+=31 (goto [1460])
8100  C603C206           [1429] gettable   15  13  264  ; R15 := R13[2]
8104  0684C206           [1430] gettable   16  13  266  ; R16 := R13[4]
8108  4C04C207           [1431] add        17  15  264  ; R17 := R15 + 2
810C  8A040000           [1432] newtable   18  0   0    ; R18 := {} , array=0, hash=0
8110  C6C48305           [1433] gettable   19  11  15   ; R19 := R11[R15]
8114  0C05C007           [1434] add        20  15  256  ; R20 := R15 + 1
8118  06058505           [1435] gettable   20  11  20   ; R20 := R11[R20]
811C  46458405           [1436] gettable   21  11  17   ; R21 := R11[R17]
8120  DC048001           [1437] call       19  3   0    ; R19 to top := R19(R20, R21)
8124  A2440000           [1438] setlist    18  0   1    ; R18[1 to top] := R19 to top
8128  C1040000           [1439] loadk      19  0        ; R19 := 1
812C  00050008           [1440] move       20  16       ; R20 := R16
8130  41050000           [1441] loadk      21  0        ; R21 := 1
8134  E0840080           [1442] forprep    19  3        ; R19 -= R21; PC := 1446
8138  CC858508           [1443] add        23  17  22   ; R23 := R17 + R22
813C  06860509           [1444] gettable   24  18  22   ; R24 := R18[R22]
8140  C902860B           [1445] settable   11  23  24   ; R11[R23] := R24
8144  DFC4FE7F           [1446] forloop    19  -4       ; R19 += R21; if R19 <= R20 then begin PC := 1443; R22 := R19 end
8148  C6044009           [1447] gettable   19  18  256  ; R19 := R18[1]
814C  DA040000           [1448] test       19      0    ; if R19 then pc+=1 (goto [1450])
8150  16C00180           [1449] jmp        8            ; pc+=8 (goto [1458])
8154  01C50000           [1450] loadk      20  3        ; R20 := 0
8158  17C0400A           [1451] eq         0   20  259  ; R20 == 0, pc+=1 (goto [1453]) if true
815C  1640FF7F           [1452] jmp        -2           ; pc+=-2 (goto [1451])
8160  C9C28408           [1453] settable   11  17  19   ; R11[R17] := R19
8164  4641C206           [1454] gettable   5   13  265  ; R5 := R13[3]
8168  16407380           [1455] jmp        462          ; pc+=462 (goto [1918])
816C  1640FE7F           [1456] jmp        -6           ; pc+=-6 (goto [1451])
8170  16C07280           [1457] jmp        460          ; pc+=460 (goto [1918])
8174  4C01C002           [1458] add        5   5   256  ; R5 := R5 + 1
8178  16407280           [1459] jmp        458          ; pc+=458 (goto [1918])
817C  C603C206           [1460] gettable   15  13  264  ; R15 := R13[2]
8180  00040002           [1461] move       16  4        ; R16 := R4
8184  46C48305           [1462] gettable   17  11  15   ; R17 := R11[R15]
8188  84040003           [1463] getupval   18  6        ; R18 := U6 , v21
818C  C0048005           [1464] move       19  11       ; R19 := R11
8190  0C05C007           [1465] add        20  15  256  ; R20 := R15 + 1
8194  40050003           [1466] move       21  6        ; R21 := R6
8198  9C040002           [1467] call       18  4   0    ; R18 to top := R18(R19 to R21)
819C  5C040000           [1468] call       17  0   0    ; R17 to top := R17(R18 to top)
81A0  1CC40000           [1469] call       16  0   3    ; R16, R17 := R16(R17 to top)
81A4  8CC48308           [1470] add        18  17  15   ; R18 := R17 + R15
81A8  8D014009           [1471] sub        6   18  256  ; R6 := R18 - 1
81AC  81C40000           [1472] loadk      18  3        ; R18 := 0
81B0  C0048007           [1473] move       19  15       ; R19 := R15
81B4  00050003           [1474] move       20  6        ; R20 := R6
81B8  41050000           [1475] loadk      21  0        ; R21 := 1
81BC  E0840080           [1476] forprep    19  3        ; R19 -= R21; PC := 1480
81C0  8C044009           [1477] add        18  18  256  ; R18 := R18 + 1
81C4  C6850408           [1478] gettable   23  16  18   ; R23 := R16[R18]
81C8  C9C2050B           [1479] settable   11  22  23   ; R11[R22] := R23
81CC  DFC4FE7F           [1480] forloop    19  -4       ; R19 += R21; if R19 <= R20 then begin PC := 1477; R22 := R19 end
81D0  16C06C80           [1481] jmp        436          ; pc+=436 (goto [1918])
81D4  19405807           [1482] le         0   14  353  ; R14 <= 82, pc+=1 (goto [1484]) if true
81D8  16C00980           [1483] jmp        40           ; pc+=40 (goto [1524])
81DC  17805807           [1484] eq         0   14  354  ; R14 == 81, pc+=1 (goto [1486]) if true
81E0  16400080           [1485] jmp        2            ; pc+=2 (goto [1488])
81E4  1E008000           [1486] return     0   1        ; return 
81E8  16406B80           [1487] jmp        430          ; pc+=430 (goto [1918])
81EC  C1C30000           [1488] loadk      15  3        ; R15 := 0
81F0  03048009           [1489] loadnil    16  19       ; R16, R17, R18, R19,  := nil
81F4  1700C207           [1490] eq         0   15  264  ; R15 == 2, pc+=1 (goto [1492]) if true
81F8  16400380           [1491] jmp        14           ; pc+=14 (goto [1506])
81FC  00050008           [1492] move       20  16       ; R20 := R16
8200  40050003           [1493] move       21  6        ; R21 := R6
8204  81050000           [1494] loadk      22  0        ; R22 := 1
8208  20C50180           [1495] forprep    20  8        ; R20 -= R22; PC := 1504
820C  01C60000           [1496] loadk      24  3        ; R24 := 0
8210  17C0400C           [1497] eq         0   24  259  ; R24 == 0, pc+=1 (goto [1499]) if true
8214  1640FF7F           [1498] jmp        -2           ; pc+=-2 (goto [1497])
8218  CC04C009           [1499] add        19  19  256  ; R19 := R19 + 1
821C  46C68408           [1500] gettable   25  17  19   ; R25 := R17[R19]
8220  C942860B           [1501] settable   11  23  25   ; R11[R23] := R25
8224  16000080           [1502] jmp        1            ; pc+=1 (goto [1504])
8228  1600FE7F           [1503] jmp        -7           ; pc+=-7 (goto [1497])
822C  1F85FD7F           [1504] forloop    20  -9       ; R20 += R22; if R20 <= R21 then begin PC := 1496; R23 := R20 end
8230  16C06680           [1505] jmp        412          ; pc+=412 (goto [1918])
8234  17C08381           [1506] eq         0   259 15   ; 0 == R15, pc+=1 (goto [1508]) if true
8238  16C00180           [1507] jmp        8            ; pc+=8 (goto [1516])
823C  0604C206           [1508] gettable   16  13  264  ; R16 := R13[2]
8240  00050002           [1509] move       20  4        ; R20 := R4
8244  46058405           [1510] gettable   21  11  16   ; R21 := R11[R16]
8248  5C058000           [1511] call       21  1   0    ; R21 to top := R21()
824C  1CC50000           [1512] call       20  0   3    ; R20, R21 := R20(R21 to top)
8250  8004800A           [1513] move       18  21       ; R18 := R21
8254  4004000A           [1514] move       17  20       ; R17 := R20
8258  C1030000           [1515] loadk      15  0        ; R15 := 1
825C  1700C007           [1516] eq         0   15  256  ; R15 == 1, pc+=1 (goto [1518]) if true
8260  16C0F87F           [1517] jmp        -28          ; pc+=-28 (goto [1490])
8264  0C050409           [1518] add        20  18  16   ; R20 := R18 + R16
8268  8D01400A           [1519] sub        6   20  256  ; R6 := R20 - 1
826C  C1C40000           [1520] loadk      19  3        ; R19 := 0
8270  C1030200           [1521] loadk      15  8        ; R15 := 2
8274  1680F77F           [1522] jmp        -33          ; pc+=-33 (goto [1490])
8278  16406280           [1523] jmp        394          ; pc+=394 (goto [1918])
827C  17C05807           [1524] eq         0   14  355  ; R14 == 83, pc+=1 (goto [1526]) if true
8280  16000780           [1525] jmp        29           ; pc+=29 (goto [1555])
8284  C603C206           [1526] gettable   15  13  264  ; R15 := R13[2]
8288  0C04C207           [1527] add        16  15  264  ; R16 := R15 + 2
828C  06048405           [1528] gettable   16  11  16   ; R16 := R11[R16]
8290  46C48305           [1529] gettable   17  11  15   ; R17 := R11[R15]
8294  4C048408           [1530] add        17  17  16   ; R17 := R17 + R16
8298  C9428407           [1531] settable   11  15  17   ; R11[R15] := R17
829C  18008481           [1532] lt         0   259 16   ; 0 < R16, pc+=1 (goto [1534]) if true
82A0  16000380           [1533] jmp        13           ; pc+=13 (goto [1547])
82A4  8C04C007           [1534] add        18  15  256  ; R18 := R15 + 1
82A8  86848405           [1535] gettable   18  11  18   ; R18 := R11[R18]
82AC  19808408           [1536] le         0   17  18   ; R17 <= R18, pc+=1 (goto [1538]) if true
82B0  16C05E80           [1537] jmp        380          ; pc+=380 (goto [1918])
82B4  81C40000           [1538] loadk      18  3        ; R18 := 0
82B8  17C04009           [1539] eq         0   18  259  ; R18 == 0, pc+=1 (goto [1541]) if true
82BC  1640FF7F           [1540] jmp        -2           ; pc+=-2 (goto [1539])
82C0  4641C206           [1541] gettable   5   13  265  ; R5 := R13[3]
82C4  CC44C207           [1542] add        19  15  265  ; R19 := R15 + 3
82C8  C9428409           [1543] settable   11  19  17   ; R11[R19] := R17
82CC  16005D80           [1544] jmp        373          ; pc+=373 (goto [1918])
82D0  1600FE7F           [1545] jmp        -7           ; pc+=-7 (goto [1539])
82D4  16805C80           [1546] jmp        371          ; pc+=371 (goto [1918])
82D8  8C04C007           [1547] add        18  15  256  ; R18 := R15 + 1
82DC  86848405           [1548] gettable   18  11  18   ; R18 := R11[R18]
82E0  19400409           [1549] le         0   18  17   ; R18 <= R17, pc+=1 (goto [1551]) if true
82E4  16805B80           [1550] jmp        367          ; pc+=367 (goto [1918])
82E8  4641C206           [1551] gettable   5   13  265  ; R5 := R13[3]
82EC  8C44C207           [1552] add        18  15  265  ; R18 := R15 + 3
82F0  C9420409           [1553] settable   11  18  17   ; R11[R18] := R17
82F4  16805A80           [1554] jmp        363          ; pc+=363 (goto [1918])
82F8  C603C206           [1555] gettable   15  13  264  ; R15 := R13[2]
82FC  0644C206           [1556] gettable   16  13  265  ; R16 := R13[3]
8300  06048405           [1557] gettable   16  11  16   ; R16 := R11[R16]
8304  C9028407           [1558] settable   11  15  16   ; R11[R15] := R16
8308  16405980           [1559] jmp        358          ; pc+=358 (goto [1918])
830C  19005907           [1560] le         0   14  356  ; R14 <= 98, pc+=1 (goto [1562]) if true
8310  16403380           [1561] jmp        206          ; pc+=206 (goto [1768])
8314  19405907           [1562] le         0   14  357  ; R14 <= 91, pc+=1 (goto [1564]) if true
8318  16801280           [1563] jmp        75           ; pc+=75 (goto [1639])
831C  19805907           [1564] le         0   14  358  ; R14 <= 87, pc+=1 (goto [1566]) if true
8320  16000780           [1565] jmp        29           ; pc+=29 (goto [1595])
8324  19C05907           [1566] le         0   14  359  ; R14 <= 85, pc+=1 (goto [1568]) if true
8328  16000280           [1567] jmp        9            ; pc+=9 (goto [1577])
832C  C603C206           [1568] gettable   15  13  264  ; R15 := R13[2]
8330  0684C206           [1569] gettable   16  13  266  ; R16 := R13[4]
8334  06048405           [1570] gettable   16  11  16   ; R16 := R11[R16]
8338  18008407           [1571] lt         0   15  16   ; R15 < R16, pc+=1 (goto [1573]) if true
833C  16400080           [1572] jmp        2            ; pc+=2 (goto [1575])
8340  4C01C002           [1573] add        5   5   256  ; R5 := R5 + 1
8344  16805580           [1574] jmp        343          ; pc+=343 (goto [1918])
8348  4641C206           [1575] gettable   5   13  265  ; R5 := R13[3]
834C  16005580           [1576] jmp        341          ; pc+=341 (goto [1918])
8350  188003B4           [1577] lt         0   360 14   ; 86 < R14, pc+=1 (goto [1579]) if true
8354  16800180           [1578] jmp        7            ; pc+=7 (goto [1586])
8358  C603C206           [1579] gettable   15  13  264  ; R15 := R13[2]
835C  0644C206           [1580] gettable   16  13  265  ; R16 := R13[3]
8360  06048405           [1581] gettable   16  11  16   ; R16 := R11[R16]
8364  4684C206           [1582] gettable   17  13  266  ; R17 := R13[4]
8368  10440408           [1583] mod        16  16  17   ; R16 := R16 % R17
836C  C9028407           [1584] settable   11  15  16   ; R11[R15] := R16
8370  16C05280           [1585] jmp        332          ; pc+=332 (goto [1918])
8374  C603C206           [1586] gettable   15  13  264  ; R15 := R13[2]
8378  0644C206           [1587] gettable   16  13  265  ; R16 := R13[3]
837C  06048405           [1588] gettable   16  11  16   ; R16 := R11[R16]
8380  4C04C007           [1589] add        17  15  256  ; R17 := R15 + 1
8384  C9028408           [1590] settable   11  17  16   ; R11[R17] := R16
8388  4684C206           [1591] gettable   17  13  266  ; R17 := R13[4]
838C  46440408           [1592] gettable   17  16  17   ; R17 := R16[R17]
8390  C9428407           [1593] settable   11  15  17   ; R11[R15] := R17
8394  16805080           [1594] jmp        323          ; pc+=323 (goto [1918])
8398  19405A07           [1595] le         0   14  361  ; R14 <= 89, pc+=1 (goto [1597]) if true
839C  16400680           [1596] jmp        26           ; pc+=26 (goto [1623])
83A0  17805A07           [1597] eq         0   14  362  ; R14 == 88, pc+=1 (goto [1599]) if true
83A4  16C00180           [1598] jmp        8            ; pc+=8 (goto [1607])
83A8  C603C206           [1599] gettable   15  13  264  ; R15 := R13[2]
83AC  0644C206           [1600] gettable   16  13  265  ; R16 := R13[3]
83B0  06048405           [1601] gettable   16  11  16   ; R16 := R11[R16]
83B4  4684C206           [1602] gettable   17  13  266  ; R17 := R13[4]
83B8  46448405           [1603] gettable   17  11  17   ; R17 := R11[R17]
83BC  06440408           [1604] gettable   16  16  17   ; R16 := R16[R17]
83C0  C9028407           [1605] settable   11  15  16   ; R11[R15] := R16
83C4  16804D80           [1606] jmp        311          ; pc+=311 (goto [1918])
83C8  C1C30000           [1607] loadk      15  3        ; R15 := 0
83CC  03040008           [1608] loadnil    16  16       ; R16,  := nil
83D0  17C0C007           [1609] eq         0   15  259  ; R15 == 0, pc+=1 (goto [1611]) if true
83D4  1640FF7F           [1610] jmp        -2           ; pc+=-2 (goto [1609])
83D8  0604C206           [1611] gettable   16  13  264  ; R16 := R13[2]
83DC  46048405           [1612] gettable   17  11  16   ; R17 := R11[R16]
83E0  84040003           [1613] getupval   18  6        ; R18 := U6 , v21
83E4  C0048005           [1614] move       19  11       ; R19 := R11
83E8  0C054008           [1615] add        20  16  256  ; R20 := R16 + 1
83EC  4645C206           [1616] gettable   21  13  265  ; R21 := R13[3]
83F0  9C040002           [1617] call       18  4   0    ; R18 to top := R18(R19 to R21)
83F4  5C840000           [1618] call       17  0   2    ; R17 := R17(R18 to top)
83F8  C9420408           [1619] settable   11  16  17   ; R11[R16] := R17
83FC  16004A80           [1620] jmp        297          ; pc+=297 (goto [1918])
8400  1680FC7F           [1621] jmp        -13          ; pc+=-13 (goto [1609])
8404  16804980           [1622] jmp        295          ; pc+=295 (goto [1918])
8408  17C05A07           [1623] eq         0   14  363  ; R14 == 90, pc+=1 (goto [1625]) if true
840C  16C00180           [1624] jmp        8            ; pc+=8 (goto [1633])
8410  C603C206           [1625] gettable   15  13  264  ; R15 := R13[2]
8414  0644C206           [1626] gettable   16  13  265  ; R16 := R13[3]
8418  06048405           [1627] gettable   16  11  16   ; R16 := R11[R16]
841C  4684C206           [1628] gettable   17  13  266  ; R17 := R13[4]
8420  46448405           [1629] gettable   17  11  17   ; R17 := R11[R17]
8424  0E440408           [1630] mul        16  16  17   ; R16 := R16 * R17
8428  C9028407           [1631] settable   11  15  16   ; R11[R15] := R16
842C  16004780           [1632] jmp        285          ; pc+=285 (goto [1918])
8430  C4038003           [1633] getupval   15  7        ; R15 := U7 , v57
8434  0644C206           [1634] gettable   16  13  265  ; R16 := R13[3]
8438  4604C206           [1635] gettable   17  13  264  ; R17 := R13[2]
843C  46448405           [1636] gettable   17  11  17   ; R17 := R11[R17]
8440  C9430408           [1637] settable   15  16  17   ; R15[R16] := R17
8444  16804580           [1638] jmp        279          ; pc+=279 (goto [1918])
8448  19005B07           [1639] le         0   14  364  ; R14 <= 94, pc+=1 (goto [1641]) if true
844C  16C01080           [1640] jmp        68           ; pc+=68 (goto [1709])
8450  19405B07           [1641] le         0   14  365  ; R14 <= 92, pc+=1 (goto [1643]) if true
8454  16000A80           [1642] jmp        41           ; pc+=41 (goto [1684])
8458  C1C30000           [1643] loadk      15  3        ; R15 := 0
845C  03040009           [1644] loadnil    16  18       ; R16, R17, R18,  := nil
8460  17C0C007           [1645] eq         0   15  259  ; R15 == 0, pc+=1 (goto [1647]) if true
8464  16C00080           [1646] jmp        4            ; pc+=4 (goto [1651])
8468  0604C206           [1647] gettable   16  13  264  ; R16 := R13[2]
846C  CC044208           [1648] add        19  16  264  ; R19 := R16 + 2
8470  46C48405           [1649] gettable   17  11  19   ; R17 := R11[R19]
8474  C1030000           [1650] loadk      15  0        ; R15 := 1
8478  1700C207           [1651] eq         0   15  264  ; R15 == 2, pc+=1 (goto [1653]) if true
847C  16800580           [1652] jmp        23           ; pc+=23 (goto [1676])
8480  18408481           [1653] lt         0   259 17   ; 0 < R17, pc+=1 (goto [1655]) if true
8484  16000380           [1654] jmp        13           ; pc+=13 (goto [1668])
8488  CC044008           [1655] add        19  16  256  ; R19 := R16 + 1
848C  C6C48405           [1656] gettable   19  11  19   ; R19 := R11[R19]
8490  19C00409           [1657] le         0   18  19   ; R18 <= R19, pc+=1 (goto [1659]) if true
8494  16804080           [1658] jmp        259          ; pc+=259 (goto [1918])
8498  C1C40000           [1659] loadk      19  3        ; R19 := 0
849C  17C0C009           [1660] eq         0   19  259  ; R19 == 0, pc+=1 (goto [1662]) if true
84A0  1640FF7F           [1661] jmp        -2           ; pc+=-2 (goto [1660])
84A4  4641C206           [1662] gettable   5   13  265  ; R5 := R13[3]
84A8  0C454208           [1663] add        20  16  265  ; R20 := R16 + 3
84AC  C982040A           [1664] settable   11  20  18   ; R11[R20] := R18
84B0  16C03E80           [1665] jmp        252          ; pc+=252 (goto [1918])
84B4  1600FE7F           [1666] jmp        -7           ; pc+=-7 (goto [1660])
84B8  16403E80           [1667] jmp        250          ; pc+=250 (goto [1918])
84BC  CC044008           [1668] add        19  16  256  ; R19 := R16 + 1
84C0  C6C48405           [1669] gettable   19  11  19   ; R19 := R11[R19]
84C4  19808409           [1670] le         0   19  18   ; R19 <= R18, pc+=1 (goto [1672]) if true
84C8  16403D80           [1671] jmp        246          ; pc+=246 (goto [1918])
84CC  4641C206           [1672] gettable   5   13  265  ; R5 := R13[3]
84D0  CC444208           [1673] add        19  16  265  ; R19 := R16 + 3
84D4  C9828409           [1674] settable   11  19  18   ; R11[R19] := R18
84D8  16403C80           [1675] jmp        242          ; pc+=242 (goto [1918])
84DC  1700C007           [1676] eq         0   15  256  ; R15 == 1, pc+=1 (goto [1678]) if true
84E0  1680F77F           [1677] jmp        -33          ; pc+=-33 (goto [1645])
84E4  C6048405           [1678] gettable   19  11  16   ; R19 := R11[R16]
84E8  8C448409           [1679] add        18  19  17   ; R18 := R19 + R17
84EC  C9820408           [1680] settable   11  16  18   ; R11[R16] := R18
84F0  C1030200           [1681] loadk      15  8        ; R15 := 2
84F4  1640F67F           [1682] jmp        -38          ; pc+=-38 (goto [1645])
84F8  16403A80           [1683] jmp        234          ; pc+=234 (goto [1918])
84FC  17805B07           [1684] eq         0   14  366  ; R14 == 93, pc+=1 (goto [1686]) if true
8500  16000580           [1685] jmp        21           ; pc+=21 (goto [1707])
8504  C1C30000           [1686] loadk      15  3        ; R15 := 0
8508  03040009           [1687] loadnil    16  18       ; R16, R17, R18,  := nil
850C  1700C007           [1688] eq         0   15  256  ; R15 == 1, pc+=1 (goto [1690]) if true
8510  16400280           [1689] jmp        10           ; pc+=10 (goto [1700])
8514  8644C206           [1690] gettable   18  13  265  ; R18 := R13[3]
8518  C1040000           [1691] loadk      19  0        ; R19 := 1
851C  00050009           [1692] move       20  18       ; R20 := R18
8520  41050000           [1693] loadk      21  0        ; R21 := 1
8524  E0840080           [1694] forprep    19  3        ; R19 -= R21; PC := 1698
8528  CC850508           [1695] add        23  16  22   ; R23 := R16 + R22
852C  C6C58505           [1696] gettable   23  11  23   ; R23 := R11[R23]
8530  49C4050B           [1697] settable   17  22  23   ; R17[R22] := R23
8534  DFC4FE7F           [1698] forloop    19  -4       ; R19 += R21; if R19 <= R20 then begin PC := 1695; R22 := R19 end
8538  16403680           [1699] jmp        218          ; pc+=218 (goto [1918])
853C  17C0C007           [1700] eq         0   15  259  ; R15 == 0, pc+=1 (goto [1702]) if true
8540  1640FC7F           [1701] jmp        -14          ; pc+=-14 (goto [1688])
8544  0604C206           [1702] gettable   16  13  264  ; R16 := R13[2]
8548  46048405           [1703] gettable   17  11  16   ; R17 := R11[R16]
854C  C1030000           [1704] loadk      15  0        ; R15 := 1
8550  1640FB7F           [1705] jmp        -18          ; pc+=-18 (goto [1688])
8554  16803480           [1706] jmp        211          ; pc+=211 (goto [1918])
8558  4641C206           [1707] gettable   5   13  265  ; R5 := R13[3]
855C  16003480           [1708] jmp        209          ; pc+=209 (goto [1918])
8560  19C05B07           [1709] le         0   14  367  ; R14 <= 96, pc+=1 (goto [1711]) if true
8564  16C00880           [1710] jmp        36           ; pc+=36 (goto [1747])
8568  17005C07           [1711] eq         0   14  368  ; R14 == 95, pc+=1 (goto [1713]) if true
856C  16C00580           [1712] jmp        24           ; pc+=24 (goto [1737])
8570  C643C206           [1713] gettable   15  13  265  ; R15 := R13[3]
8574  04040004           [1714] getupval   16  8        ; R16 := U8 , v7
8578  41441C00           [1715] loadk      17  113      ; R17 := "{\199}\176"
857C  81841C00           [1716] loadk      18  114      ; R18 := "\\$\1303\230P\196y"
8580  1C848001           [1717] call       16  3   2    ; R16 := R16(R17, R18)
8584  57008407           [1718] eq         1   15  16   ; R15 == R16, pc+=1 (goto [1720]) if false
8588  16800180           [1719] jmp        7            ; pc+=7 (goto [1727])
858C  C643C206           [1720] gettable   15  13  265  ; R15 := R13[3]
8590  04040004           [1721] getupval   16  8        ; R16 := U8 , v7
8594  41C41C00           [1722] loadk      17  115      ; R17 := "B\173\161\218\143\180S"
8598  81041D00           [1723] loadk      18  116      ; R18 := "\218%\200\213\188\234"
859C  1C848001           [1724] call       16  3   2    ; R16 := R16(R17, R18)
85A0  17008407           [1725] eq         0   15  16   ; R15 == R16, pc+=1 (goto [1727]) if true
85A4  16C00080           [1726] jmp        4            ; pc+=4 (goto [1731])
85A8  C603C206           [1727] gettable   15  13  264  ; R15 := R13[2]
85AC  04048003           [1728] getupval   16  7        ; R16 := U7 , v57
85B0  C9028407           [1729] settable   11  15  16   ; R11[R15] := R16
85B4  16802E80           [1730] jmp        187          ; pc+=187 (goto [1918])
85B8  C603C206           [1731] gettable   15  13  264  ; R15 := R13[2]
85BC  04048003           [1732] getupval   16  7        ; R16 := U7 , v57
85C0  4644C206           [1733] gettable   17  13  265  ; R17 := R13[3]
85C4  06440408           [1734] gettable   16  16  17   ; R16 := R16[R17]
85C8  C9028407           [1735] settable   11  15  16   ; R11[R15] := R16
85CC  16002D80           [1736] jmp        181          ; pc+=181 (goto [1918])
85D0  C603C206           [1737] gettable   15  13  264  ; R15 := R13[2]
85D4  06C48305           [1738] gettable   16  11  15   ; R16 := R11[R15]
85D8  44040003           [1739] getupval   17  6        ; R17 := U6 , v21
85DC  80048005           [1740] move       18  11       ; R18 := R11
85E0  CC04C007           [1741] add        19  15  256  ; R19 := R15 + 1
85E4  0645C206           [1742] gettable   20  13  265  ; R20 := R13[3]
85E8  5C040002           [1743] call       17  4   0    ; R17 to top := R17(R18 to R20)
85EC  1D040000           [1744] tailcall   16  0   0    ; R16 to top := R16(R17 to top)
85F0  1E040000           [1745] return     16  0        ; return R16 to top
85F4  16802A80           [1746] jmp        171          ; pc+=171 (goto [1918])
85F8  17405D07           [1747] eq         0   14  373  ; R14 == 97, pc+=1 (goto [1749]) if true
85FC  16C00280           [1748] jmp        12           ; pc+=12 (goto [1761])
8600  C1C30000           [1749] loadk      15  3        ; R15 := 0
8604  03040008           [1750] loadnil    16  16       ; R16,  := nil
8608  17C0C007           [1751] eq         0   15  259  ; R15 == 0, pc+=1 (goto [1753]) if true
860C  1640FF7F           [1752] jmp        -2           ; pc+=-2 (goto [1751])
8610  0604C206           [1753] gettable   16  13  264  ; R16 := R13[2]
8614  46048405           [1754] gettable   17  11  16   ; R17 := R11[R16]
8618  8C044008           [1755] add        18  16  256  ; R18 := R16 + 1
861C  86848405           [1756] gettable   18  11  18   ; R18 := R11[R18]
8620  5C440001           [1757] call       17  2   1    ;  := R17(R18)
8624  16802780           [1758] jmp        159          ; pc+=159 (goto [1918])
8628  1680FD7F           [1759] jmp        -9           ; pc+=-9 (goto [1751])
862C  16002780           [1760] jmp        157          ; pc+=157 (goto [1918])
8630  C603C206           [1761] gettable   15  13  264  ; R15 := R13[2]
8634  C6C38305           [1762] gettable   15  11  15   ; R15 := R11[R15]
8638  0644C206           [1763] gettable   16  13  265  ; R16 := R13[3]
863C  06048405           [1764] gettable   16  11  16   ; R16 := R11[R16]
8640  4684C206           [1765] gettable   17  13  266  ; R17 := R13[4]
8644  C9430408           [1766] settable   15  16  17   ; R15[R16] := R17
8648  16402580           [1767] jmp        150          ; pc+=150 (goto [1918])
864C  19805D07           [1768] le         0   14  374  ; R14 <= 105, pc+=1 (goto [1770]) if true
8650  16001580           [1769] jmp        85           ; pc+=85 (goto [1855])
8654  19C05D07           [1770] le         0   14  375  ; R14 <= 101, pc+=1 (goto [1772]) if true
8658  16C00680           [1771] jmp        28           ; pc+=28 (goto [1800])
865C  19005E07           [1772] le         0   14  376  ; R14 <= 99, pc+=1 (goto [1774]) if true
8660  16000280           [1773] jmp        9            ; pc+=9 (goto [1783])
8664  C603C206           [1774] gettable   15  13  264  ; R15 := R13[2]
8668  0684C206           [1775] gettable   16  13  266  ; R16 := R13[4]
866C  06048405           [1776] gettable   16  11  16   ; R16 := R11[R16]
8670  18008407           [1777] lt         0   15  16   ; R15 < R16, pc+=1 (goto [1779]) if true
8674  16400080           [1778] jmp        2            ; pc+=2 (goto [1781])
8678  4C01C002           [1779] add        5   5   256  ; R5 := R5 + 1
867C  16002280           [1780] jmp        137          ; pc+=137 (goto [1918])
8680  4641C206           [1781] gettable   5   13  265  ; R5 := R13[3]
8684  16802180           [1782] jmp        135          ; pc+=135 (goto [1918])
8688  188083BC           [1783] lt         0   377 14   ; 100 < R14, pc+=1 (goto [1785]) if true
868C  16C00180           [1784] jmp        8            ; pc+=8 (goto [1793])
8690  C603C206           [1785] gettable   15  13  264  ; R15 := R13[2]
8694  C6C38305           [1786] gettable   15  11  15   ; R15 := R11[R15]
8698  0644C206           [1787] gettable   16  13  265  ; R16 := R13[3]
869C  06048405           [1788] gettable   16  11  16   ; R16 := R11[R16]
86A0  4684C206           [1789] gettable   17  13  266  ; R17 := R13[4]
86A4  46448405           [1790] gettable   17  11  17   ; R17 := R11[R17]
86A8  C9430408           [1791] settable   15  16  17   ; R15[R16] := R17
86AC  16001F80           [1792] jmp        125          ; pc+=125 (goto [1918])
86B0  C603C206           [1793] gettable   15  13  264  ; R15 := R13[2]
86B4  0644C206           [1794] gettable   16  13  265  ; R16 := R13[3]
86B8  4684C206           [1795] gettable   17  13  266  ; R17 := R13[4]
86BC  46448405           [1796] gettable   17  11  17   ; R17 := R11[R17]
86C0  0C440408           [1797] add        16  16  17   ; R16 := R16 + R17
86C4  C9028407           [1798] settable   11  15  16   ; R11[R15] := R16
86C8  16401D80           [1799] jmp        118          ; pc+=118 (goto [1918])
86CC  19805E07           [1800] le         0   14  378  ; R14 <= 103, pc+=1 (goto [1802]) if true
86D0  16000980           [1801] jmp        37           ; pc+=37 (goto [1839])
86D4  188083BD           [1802] lt         0   379 14   ; 102 < R14, pc+=1 (goto [1804]) if true
86D8  16000180           [1803] jmp        5            ; pc+=5 (goto [1809])
86DC  C603C206           [1804] gettable   15  13  264  ; R15 := R13[2]
86E0  06C48305           [1805] gettable   16  11  15   ; R16 := R11[R15]
86E4  1C848000           [1806] call       16  1   2    ; R16 := R16()
86E8  C9028407           [1807] settable   11  15  16   ; R11[R15] := R16
86EC  16001B80           [1808] jmp        109          ; pc+=109 (goto [1918])
86F0  C1C30000           [1809] loadk      15  3        ; R15 := 0
86F4  03040009           [1810] loadnil    16  18       ; R16, R17, R18,  := nil
86F8  17C0C007           [1811] eq         0   15  259  ; R15 == 0, pc+=1 (goto [1813]) if true
86FC  16C00280           [1812] jmp        12           ; pc+=12 (goto [1825])
8700  0604C206           [1813] gettable   16  13  264  ; R16 := R13[2]
8704  CA040000           [1814] newtable   19  0   0    ; R19 := {} , array=0, hash=0
8708  06058405           [1815] gettable   20  11  16   ; R20 := R11[R16]
870C  44050003           [1816] getupval   21  6        ; R21 := U6 , v21
8710  80058005           [1817] move       22  11       ; R22 := R11
8714  CC054008           [1818] add        23  16  256  ; R23 := R16 + 1
8718  00060003           [1819] move       24  6        ; R24 := R6
871C  5C050002           [1820] call       21  4   0    ; R21 to top := R21(R22 to R24)
8720  1C050000           [1821] call       20  0   0    ; R20 to top := R20(R21 to top)
8724  E2440000           [1822] setlist    19  0   1    ; R19[1 to top] := R20 to top
8728  40048009           [1823] move       17  19       ; R17 := R19
872C  C1030000           [1824] loadk      15  0        ; R15 := 1
8730  1700C007           [1825] eq         0   15  256  ; R15 == 1, pc+=1 (goto [1827]) if true
8734  16C0FB7F           [1826] jmp        -16          ; pc+=-16 (goto [1811])
8738  81C40000           [1827] loadk      18  3        ; R18 := 0
873C  C0040008           [1828] move       19  16       ; R19 := R16
8740  0685C206           [1829] gettable   20  13  266  ; R20 := R13[4]
8744  41050000           [1830] loadk      21  0        ; R21 := 1
8748  E0840080           [1831] forprep    19  3        ; R19 -= R21; PC := 1835
874C  8C044009           [1832] add        18  18  256  ; R18 := R18 + 1
8750  C6858408           [1833] gettable   23  17  18   ; R23 := R17[R18]
8754  C9C2050B           [1834] settable   11  22  23   ; R11[R22] := R23
8758  DFC4FE7F           [1835] forloop    19  -4       ; R19 += R21; if R19 <= R20 then begin PC := 1832; R22 := R19 end
875C  16001480           [1836] jmp        81           ; pc+=81 (goto [1918])
8760  1600F97F           [1837] jmp        -27          ; pc+=-27 (goto [1811])
8764  16801380           [1838] jmp        79           ; pc+=79 (goto [1918])
8768  188003BE           [1839] lt         0   380 14   ; 104 < R14, pc+=1 (goto [1841]) if true
876C  16C00180           [1840] jmp        8            ; pc+=8 (goto [1849])
8770  C603C206           [1841] gettable   15  13  264  ; R15 := R13[2]
8774  C6C38305           [1842] gettable   15  11  15   ; R15 := R11[R15]
8778  DA430000           [1843] test       15      1    ; if not R15 then pc+=1 (goto [1845])
877C  16400080           [1844] jmp        2            ; pc+=2 (goto [1847])
8780  4C01C002           [1845] add        5   5   256  ; R5 := R5 + 1
8784  16801180           [1846] jmp        71           ; pc+=71 (goto [1918])
8788  4641C206           [1847] gettable   5   13  265  ; R5 := R13[3]
878C  16001180           [1848] jmp        69           ; pc+=69 (goto [1918])
8790  C4038002           [1849] getupval   15  5        ; R15 := U5 , v56
8794  0644C206           [1850] gettable   16  13  265  ; R16 := R13[3]
8798  4604C206           [1851] gettable   17  13  264  ; R17 := R13[2]
879C  46448405           [1852] gettable   17  11  17   ; R17 := R11[R17]
87A0  C9430408           [1853] settable   15  16  17   ; R15[R16] := R17
87A4  16800F80           [1854] jmp        63           ; pc+=63 (goto [1918])
87A8  19405F07           [1855] le         0   14  381  ; R14 <= 109, pc+=1 (goto [1857]) if true
87AC  16000780           [1856] jmp        29           ; pc+=29 (goto [1886])
87B0  19805F07           [1857] le         0   14  382  ; R14 <= 107, pc+=1 (goto [1859]) if true
87B4  16400280           [1858] jmp        10           ; pc+=10 (goto [1869])
87B8  17C05F07           [1859] eq         0   14  383  ; R14 == 106, pc+=1 (goto [1861]) if true
87BC  16400080           [1860] jmp        2            ; pc+=2 (goto [1863])
87C0  1E008000           [1861] return     0   1        ; return 
87C4  16800D80           [1862] jmp        55           ; pc+=55 (goto [1918])
87C8  C603C206           [1863] gettable   15  13  264  ; R15 := R13[2]
87CC  04048002           [1864] getupval   16  5        ; R16 := U5 , v56
87D0  4644C206           [1865] gettable   17  13  265  ; R17 := R13[3]
87D4  06440408           [1866] gettable   16  16  17   ; R16 := R16[R17]
87D8  C9028407           [1867] settable   11  15  16   ; R11[R15] := R16
87DC  16000C80           [1868] jmp        49           ; pc+=49 (goto [1918])
87E0  188003C0           [1869] lt         0   384 14   ; 108 < R14, pc+=1 (goto [1871]) if true
87E4  16800180           [1870] jmp        7            ; pc+=7 (goto [1878])
87E8  C603C206           [1871] gettable   15  13  264  ; R15 := R13[2]
87EC  0644C206           [1872] gettable   16  13  265  ; R16 := R13[3]
87F0  41040000           [1873] loadk      17  0        ; R17 := 1
87F4  E0030080           [1874] forprep    15  1        ; R15 -= R17; PC := 1876
87F8  C9024B09           [1875] settable   11  18  300  ; R11[R18] := nil
87FC  DF43FF7F           [1876] forloop    15  -2       ; R15 += R17; if R15 <= R16 then begin PC := 1875; R18 := R15 end
8800  16C00980           [1877] jmp        40           ; pc+=40 (goto [1918])
8804  C603C206           [1878] gettable   15  13  264  ; R15 := R13[2]
8808  C6C38305           [1879] gettable   15  11  15   ; R15 := R11[R15]
880C  0644C206           [1880] gettable   16  13  265  ; R16 := R13[3]
8810  06048405           [1881] gettable   16  11  16   ; R16 := R11[R16]
8814  4684C206           [1882] gettable   17  13  266  ; R17 := R13[4]
8818  46448405           [1883] gettable   17  11  17   ; R17 := R11[R17]
881C  C9430408           [1884] settable   15  16  17   ; R15[R16] := R17
8820  16C00780           [1885] jmp        32           ; pc+=32 (goto [1918])
8824  19406007           [1886] le         0   14  385  ; R14 <= 111, pc+=1 (goto [1888]) if true
8828  16000480           [1887] jmp        17           ; pc+=17 (goto [1905])
882C  17806007           [1888] eq         0   14  386  ; R14 == 110, pc+=1 (goto [1890]) if true
8830  16800180           [1889] jmp        7            ; pc+=7 (goto [1897])
8834  C603C206           [1890] gettable   15  13  264  ; R15 := R13[2]
8838  C6C38305           [1891] gettable   15  11  15   ; R15 := R11[R15]
883C  0644C206           [1892] gettable   16  13  265  ; R16 := R13[3]
8840  06048405           [1893] gettable   16  11  16   ; R16 := R11[R16]
8844  4684C206           [1894] gettable   17  13  266  ; R17 := R13[4]
8848  C9430408           [1895] settable   15  16  17   ; R15[R16] := R17
884C  16000580           [1896] jmp        21           ; pc+=21 (goto [1918])
8850  C603C206           [1897] gettable   15  13  264  ; R15 := R13[2]
8854  0644C206           [1898] gettable   16  13  265  ; R16 := R13[3]
8858  06048405           [1899] gettable   16  11  16   ; R16 := R11[R16]
885C  4684C206           [1900] gettable   17  13  266  ; R17 := R13[4]
8860  46448405           [1901] gettable   17  11  17   ; R17 := R11[R17]
8864  10440408           [1902] mod        16  16  17   ; R16 := R16 % R17
8868  C9028407           [1903] settable   11  15  16   ; R11[R15] := R16
886C  16000380           [1904] jmp        13           ; pc+=13 (goto [1918])
8870  188083C1           [1905] lt         0   387 14   ; 112 < R14, pc+=1 (goto [1907]) if true
8874  16C00080           [1906] jmp        4            ; pc+=4 (goto [1911])
8878  C603C206           [1907] gettable   15  13  264  ; R15 := R13[2]
887C  C6C38305           [1908] gettable   15  11  15   ; R15 := R11[R15]
8880  DC438000           [1909] call       15  1   1    ;  := R15()
8884  16800180           [1910] jmp        7            ; pc+=7 (goto [1918])
8888  C603C206           [1911] gettable   15  13  264  ; R15 := R13[2]
888C  0644C206           [1912] gettable   16  13  265  ; R16 := R13[3]
8890  06048405           [1913] gettable   16  11  16   ; R16 := R11[R16]
8894  4684C206           [1914] gettable   17  13  266  ; R17 := R13[4]
8898  46448405           [1915] gettable   17  11  17   ; R17 := R11[R17]
889C  06440408           [1916] gettable   16  16  17   ; R16 := R16[R17]
88A0  C9028407           [1917] settable   11  15  16   ; R11[R15] := R16
88A4  4C01C002           [1918] add        5   5   256  ; R5 := R5 + 1
88A8  1600297E           [1919] jmp        -1883        ; pc+=-1883 (goto [37])
88AC  1E008000           [1920] return     0   1        ; return 
                         * constants:
88B0  84000000           sizek (132)
88B4  03                 const type 3
88B5  000000000000F03F   const [0]: (1)
88BD  03                 const type 3
88BE  000000000000F0BF   const [1]: (-1)
88C6  04                 const type 4
88C7  02000000           string size (2)
88CB  2300               "#\0"
                         const [2]: "#"
88CD  03                 const type 3
88CE  0000000000000000   const [3]: (0)
88D6  03                 const type 3
88D7  0000000000004C40   const [4]: (56)
88DF  03                 const type 3
88E0  0000000000003B40   const [5]: (27)
88E8  03                 const type 3
88E9  0000000000002A40   const [6]: (13)
88F1  03                 const type 3
88F2  0000000000001840   const [7]: (6)
88FA  03                 const type 3
88FB  0000000000000040   const [8]: (2)
8903  03                 const type 3
8904  0000000000000840   const [9]: (3)
890C  03                 const type 3
890D  0000000000001040   const [10]: (4)
8915  03                 const type 3
8916  0000000000001440   const [11]: (5)
891E  03                 const type 3
891F  0000000000002240   const [12]: (9)
8927  03                 const type 3
8928  0000000000001C40   const [13]: (7)
8930  03                 const type 3
8931  0000000000002040   const [14]: (8)
8939  03                 const type 3
893A  0000000000002640   const [15]: (11)
8942  03                 const type 3
8943  0000000000002440   const [16]: (10)
894B  03                 const type 3
894C  0000000000002840   const [17]: (12)
8954  03                 const type 3
8955  0000000000003440   const [18]: (20)
895D  03                 const type 3
895E  0000000000003040   const [19]: (16)
8966  03                 const type 3
8967  0000000000002C40   const [20]: (14)
896F  03                 const type 3
8970  0000000000002E40   const [21]: (15)
8978  03                 const type 3
8979  0000000000003240   const [22]: (18)
8981  03                 const type 3
8982  0000000000003140   const [23]: (17)
898A  03                 const type 3
898B  0000000000003340   const [24]: (19)
8993  03                 const type 3
8994  0000000000003740   const [25]: (23)
899C  03                 const type 3
899D  0000000000003540   const [26]: (21)
89A5  03                 const type 3
89A6  0000000000003640   const [27]: (22)
89AE  03                 const type 3
89AF  0000000000003940   const [28]: (25)
89B7  03                 const type 3
89B8  0000000000003840   const [29]: (24)
89C0  03                 const type 3
89C1  0000000000003A40   const [30]: (26)
89C9  03                 const type 3
89CA  0000000000804440   const [31]: (41)
89D2  03                 const type 3
89D3  0000000000004140   const [32]: (34)
89DB  03                 const type 3
89DC  0000000000003E40   const [33]: (30)
89E4  03                 const type 3
89E5  0000000000003C40   const [34]: (28)
89ED  03                 const type 3
89EE  0000000000003D40   const [35]: (29)
89F6  03                 const type 3
89F7  0000000000004040   const [36]: (32)
89FF  03                 const type 3
8A00  0000000000003F40   const [37]: (31)
8A08  03                 const type 3
8A09  0000000000804040   const [38]: (33)
8A11  03                 const type 3
8A12  0000000000804240   const [39]: (37)
8A1A  03                 const type 3
8A1B  0000000000804140   const [40]: (35)
8A23  03                 const type 3
8A24  0000000000004240   const [41]: (36)
8A2C  03                 const type 3
8A2D  0000000000804340   const [42]: (39)
8A35  03                 const type 3
8A36  0000000000004340   const [43]: (38)
8A3E  00                 const type 0
                         const [44]: nil
8A3F  03                 const type 3
8A40  0000000000004440   const [45]: (40)
8A48  03                 const type 3
8A49  0000000000004840   const [46]: (48)
8A51  03                 const type 3
8A52  0000000000004640   const [47]: (44)
8A5A  03                 const type 3
8A5B  0000000000004540   const [48]: (42)
8A63  03                 const type 3
8A64  0000000000804540   const [49]: (43)
8A6C  04                 const type 4
8A6D  05000000           string size (5)
8A71  6A6C06CD00         "jl\6\205\0"
                         const [50]: "jl\6\205"
8A76  04                 const type 4
8A77  07000000           string size (7)
8A7B  5D3529489BCE00     "]5)H\155\206\0"
                         const [51]: "]5)H\155\206"
8A82  04                 const type 4
8A83  08000000           string size (8)
8A87  34436E520B425000   "4CnR\vBP\0"
                         const [52]: "4CnR\vBP"
8A8F  04                 const type 4
8A90  09000000           string size (9)
8A94  6253261A346E2C26+  "bS&\264n,&"
8A9C  00                 "\0"
                         const [53]: "bS&\264n,&"
8A9D  03                 const type 3
8A9E  0000000000004740   const [54]: (46)
8AA6  03                 const type 3
8AA7  0000000000804640   const [55]: (45)
8AAF  03                 const type 3
8AB0  0000000000804740   const [56]: (47)
8AB8  03                 const type 3
8AB9  0000000000004A40   const [57]: (52)
8AC1  03                 const type 3
8AC2  0000000000004940   const [58]: (50)
8ACA  03                 const type 3
8ACB  0000000000804840   const [59]: (49)
8AD3  03                 const type 3
8AD4  0000000000804940   const [60]: (51)
8ADC  03                 const type 3
8ADD  0000000000004B40   const [61]: (54)
8AE5  03                 const type 3
8AE6  0000000000804A40   const [62]: (53)
8AEE  03                 const type 3
8AEF  0000000000804B40   const [63]: (55)
8AF7  03                 const type 3
8AF8  0000000000005540   const [64]: (84)
8B00  03                 const type 3
8B01  0000000000805140   const [65]: (70)
8B09  03                 const type 3
8B0A  0000000000804F40   const [66]: (63)
8B12  03                 const type 3
8B13  0000000000804D40   const [67]: (59)
8B1B  03                 const type 3
8B1C  0000000000804C40   const [68]: (57)
8B24  03                 const type 3
8B25  0000000000004D40   const [69]: (58)
8B2D  03                 const type 3
8B2E  0000000000804E40   const [70]: (61)
8B36  03                 const type 3
8B37  0000000000004E40   const [71]: (60)
8B3F  03                 const type 3
8B40  0000000000004F40   const [72]: (62)
8B48  03                 const type 3
8B49  0000000000805040   const [73]: (66)
8B51  03                 const type 3
8B52  0000000000005040   const [74]: (64)
8B5A  03                 const type 3
8B5B  0000000000405040   const [75]: (65)
8B63  03                 const type 3
8B64  0000000000005140   const [76]: (68)
8B6C  03                 const type 3
8B6D  0000000000C05040   const [77]: (67)
8B75  03                 const type 3
8B76  0000000000405140   const [78]: (69)
8B7E  04                 const type 4
8B7F  08000000           string size (8)
8B83  18CB5F1923F14E00   "\24\203_\25#\241N\0"
                         const [79]: "\24\203_\25#\241N"
8B8B  04                 const type 4
8B8C  05000000           string size (5)
8B90  7747943600         "wG\1486\0"
                         const [80]: "wG\1486"
8B95  04                 const type 4
8B96  0B000000           string size (11)
8B9A  67E92B2CC8E656D2+  "g\233+,\200\230V\210"
8BA2  203100             " 1\0"
                         const [81]: "g\233+,\200\230V\210 1"
8BA5  04                 const type 4
8BA6  07000000           string size (7)
8BAA  8F38B64549BF00     "\1438\182EI\191\0"
                         const [82]: "\1438\182EI\191"
8BB1  03                 const type 3
8BB2  0000000000405340   const [83]: (77)
8BBA  03                 const type 3
8BBB  0000000000405240   const [84]: (73)
8BC3  03                 const type 3
8BC4  0000000000C05140   const [85]: (71)
8BCC  03                 const type 3
8BCD  0000000000005240   const [86]: (72)
8BD5  03                 const type 3
8BD6  0000000000C05240   const [87]: (75)
8BDE  03                 const type 3
8BDF  0000000000805240   const [88]: (74)
8BE7  04                 const type 4
8BE8  08000000           string size (8)
8BEC  C076CBCC2F179900   "\192v\203\204/\23\153\0"
                         const [89]: "\192v\203\204/\23\153"
8BF4  04                 const type 4
8BF5  08000000           string size (8)
8BF9  E19F29A2A24B7200   "\225\159)\162\162Kr\0"
                         const [90]: "\225\159)\162\162Kr"
8C01  04                 const type 4
8C02  0B000000           string size (11)
8C06  B4B81A0742828910+  "\180\184\26\aB\130\137\16"
8C0E  074D00             "\aM\0"
                         const [91]: "\180\184\26\aB\130\137\16\aM"
8C11  04                 const type 4
8C12  06000000           string size (6)
8C16  35EBE7746200       "5\235\231tb\0"
                         const [92]: "5\235\231tb"
8C1C  03                 const type 3
8C1D  0000000000005340   const [93]: (76)
8C25  03                 const type 3
8C26  0000000000005440   const [94]: (80)
8C2E  03                 const type 3
8C2F  0000000000805340   const [95]: (78)
8C37  03                 const type 3
8C38  0000000000C05340   const [96]: (79)
8C40  03                 const type 3
8C41  0000000000805440   const [97]: (82)
8C49  03                 const type 3
8C4A  0000000000405440   const [98]: (81)
8C52  03                 const type 3
8C53  0000000000C05440   const [99]: (83)
8C5B  03                 const type 3
8C5C  0000000000805840   const [100]: (98)
8C64  03                 const type 3
8C65  0000000000C05640   const [101]: (91)
8C6D  03                 const type 3
8C6E  0000000000C05540   const [102]: (87)
8C76  03                 const type 3
8C77  0000000000405540   const [103]: (85)
8C7F  03                 const type 3
8C80  0000000000805540   const [104]: (86)
8C88  03                 const type 3
8C89  0000000000405640   const [105]: (89)
8C91  03                 const type 3
8C92  0000000000005640   const [106]: (88)
8C9A  03                 const type 3
8C9B  0000000000805640   const [107]: (90)
8CA3  03                 const type 3
8CA4  0000000000805740   const [108]: (94)
8CAC  03                 const type 3
8CAD  0000000000005740   const [109]: (92)
8CB5  03                 const type 3
8CB6  0000000000405740   const [110]: (93)
8CBE  03                 const type 3
8CBF  0000000000005840   const [111]: (96)
8CC7  03                 const type 3
8CC8  0000000000C05740   const [112]: (95)
8CD0  04                 const type 4
8CD1  05000000           string size (5)
8CD5  7BC77DB000         "{\199}\176\0"
                         const [113]: "{\199}\176"
8CDA  04                 const type 4
8CDB  09000000           string size (9)
8CDF  5C248233E650C479+  "\\$\1303\230P\196y"
8CE7  00                 "\0"
                         const [114]: "\\$\1303\230P\196y"
8CE8  04                 const type 4
8CE9  08000000           string size (8)
8CED  42ADA1DA8FB45300   "B\173\161\218\143\180S\0"
                         const [115]: "B\173\161\218\143\180S"
8CF5  04                 const type 4
8CF6  07000000           string size (7)
8CFA  DA25C8D5BCEA00     "\218%\200\213\188\234\0"
                         const [116]: "\218%\200\213\188\234"
8D01  03                 const type 3
8D02  0000000000405840   const [117]: (97)
8D0A  03                 const type 3
8D0B  0000000000405A40   const [118]: (105)
8D13  03                 const type 3
8D14  0000000000405940   const [119]: (101)
8D1C  03                 const type 3
8D1D  0000000000C05840   const [120]: (99)
8D25  03                 const type 3
8D26  0000000000005940   const [121]: (100)
8D2E  03                 const type 3
8D2F  0000000000C05940   const [122]: (103)
8D37  03                 const type 3
8D38  0000000000805940   const [123]: (102)
8D40  03                 const type 3
8D41  0000000000005A40   const [124]: (104)
8D49  03                 const type 3
8D4A  0000000000405B40   const [125]: (109)
8D52  03                 const type 3
8D53  0000000000C05A40   const [126]: (107)
8D5B  03                 const type 3
8D5C  0000000000805A40   const [127]: (106)
8D64  03                 const type 3
8D65  0000000000005B40   const [128]: (108)
8D6D  03                 const type 3
8D6E  0000000000C05B40   const [129]: (111)
8D76  03                 const type 3
8D77  0000000000805B40   const [130]: (110)
8D7F  03                 const type 3
8D80  0000000000005C40   const [131]: (112)
                         * functions:
8D88  04000000           sizep (4)
                         
8D8C                     ** function [0] definition (level 5) 0_2_2_0_0
                         ** start of function 0_2_2_0_0 **
8D8C  00000000           string size (0)
                         source name: (none)
8D90  01000000           line defined (1)
8D94  01000000           last line defined (1)
8D98  01                 nups (1)
8D99  02                 numparams (2)
8D9A  00                 is_vararg (0)
8D9B  06                 maxstacksize (6)
                         * code:
8D9C  0C000000           sizecode (12)
8DA0  81000000           [01] loadk      2   0        ; R2 := 0
8DA4  C3008001           [02] loadnil    3   3        ; R3,  := nil
8DA8  17004001           [03] eq         0   2   256  ; R2 == 0, pc+=1 (goto [5]) if true
8DAC  1640FF7F           [04] jmp        -2           ; pc+=-2 (goto [3])
8DB0  04010000           [05] getupval   4   0        ; R4 := U0 , v279
8DB4  C6400002           [06] gettable   3   4   1    ; R3 := R4[R1]
8DB8  0641C001           [07] gettable   4   3   257  ; R4 := R3[1]
8DBC  4681C001           [08] gettable   5   3   258  ; R5 := R3[2]
8DC0  06410102           [09] gettable   4   4   5    ; R4 := R4[R5]
8DC4  1E010001           [10] return     4   2        ; return R4
8DC8  1680FD7F           [11] jmp        -9           ; pc+=-9 (goto [3])
8DCC  1E008000           [12] return     0   1        ; return 
                         * constants:
8DD0  03000000           sizek (3)
8DD4  03                 const type 3
8DD5  0000000000000000   const [0]: (0)
8DDD  03                 const type 3
8DDE  000000000000F03F   const [1]: (1)
8DE6  03                 const type 3
8DE7  0000000000000040   const [2]: (2)
                         * functions:
8DEF  00000000           sizep (0)
                         * lines:
8DF3  0C000000           sizelineinfo (12)
                         [pc] (line)
8DF7  01000000           [01] (1)
8DFB  01000000           [02] (1)
8DFF  01000000           [03] (1)
8E03  01000000           [04] (1)
8E07  01000000           [05] (1)
8E0B  01000000           [06] (1)
8E0F  01000000           [07] (1)
8E13  01000000           [08] (1)
8E17  01000000           [09] (1)
8E1B  01000000           [10] (1)
8E1F  01000000           [11] (1)
8E23  01000000           [12] (1)
                         * locals:
8E27  04000000           sizelocvars (4)
8E2B  05000000           string size (5)
8E2F  7634393600         "v496\0"
                         local [0]: v496
8E34  00000000             startpc (0)
8E38  0B000000             endpc   (11)
8E3C  05000000           string size (5)
8E40  7634393700         "v497\0"
                         local [1]: v497
8E45  00000000             startpc (0)
8E49  0B000000             endpc   (11)
8E4D  05000000           string size (5)
8E51  7634393800         "v498\0"
                         local [2]: v498
8E56  01000000             startpc (1)
8E5A  0B000000             endpc   (11)
8E5E  05000000           string size (5)
8E62  7634393900         "v499\0"
                         local [3]: v499
8E67  02000000             startpc (2)
8E6B  0B000000             endpc   (11)
                         * upvalues:
8E6F  01000000           sizeupvalues (1)
8E73  05000000           string size (5)
8E77  7632373900         "v279\0"
                         upvalue [0]: v279
                         ** end of function 0_2_2_0_0 **

                         
8E7C                     ** function [1] definition (level 5) 0_2_2_0_1
                         ** start of function 0_2_2_0_1 **
8E7C  00000000           string size (0)
                         source name: (none)
8E80  01000000           line defined (1)
8E84  01000000           last line defined (1)
8E88  01                 nups (1)
8E89  03                 numparams (3)
8E8A  00                 is_vararg (0)
8E8B  07                 maxstacksize (7)
                         * code:
8E8C  0C000000           sizecode (12)
8E90  C1000000           [01] loadk      3   0        ; R3 := 0
8E94  03010002           [02] loadnil    4   4        ; R4,  := nil
8E98  1700C001           [03] eq         0   3   256  ; R3 == 0, pc+=1 (goto [5]) if true
8E9C  1640FF7F           [04] jmp        -2           ; pc+=-2 (goto [3])
8EA0  44010000           [05] getupval   5   0        ; R5 := U0 , v279
8EA4  06418002           [06] gettable   4   5   1    ; R4 := R5[R1]
8EA8  46414002           [07] gettable   5   4   257  ; R5 := R4[1]
8EAC  86814002           [08] gettable   6   4   258  ; R6 := R4[2]
8EB0  49810003           [09] settable   5   6   2    ; R5[R6] := R2
8EB4  16000080           [10] jmp        1            ; pc+=1 (goto [12])
8EB8  1680FD7F           [11] jmp        -9           ; pc+=-9 (goto [3])
8EBC  1E008000           [12] return     0   1        ; return 
                         * constants:
8EC0  03000000           sizek (3)
8EC4  03                 const type 3
8EC5  0000000000000000   const [0]: (0)
8ECD  03                 const type 3
8ECE  000000000000F03F   const [1]: (1)
8ED6  03                 const type 3
8ED7  0000000000000040   const [2]: (2)
                         * functions:
8EDF  00000000           sizep (0)
                         * lines:
8EE3  0C000000           sizelineinfo (12)
                         [pc] (line)
8EE7  01000000           [01] (1)
8EEB  01000000           [02] (1)
8EEF  01000000           [03] (1)
8EF3  01000000           [04] (1)
8EF7  01000000           [05] (1)
8EFB  01000000           [06] (1)
8EFF  01000000           [07] (1)
8F03  01000000           [08] (1)
8F07  01000000           [09] (1)
8F0B  01000000           [10] (1)
8F0F  01000000           [11] (1)
8F13  01000000           [12] (1)
                         * locals:
8F17  05000000           sizelocvars (5)
8F1B  05000000           string size (5)
8F1F  7635303000         "v500\0"
                         local [0]: v500
8F24  00000000             startpc (0)
8F28  0B000000             endpc   (11)
8F2C  05000000           string size (5)
8F30  7635303100         "v501\0"
                         local [1]: v501
8F35  00000000             startpc (0)
8F39  0B000000             endpc   (11)
8F3D  05000000           string size (5)
8F41  7635303200         "v502\0"
                         local [2]: v502
8F46  00000000             startpc (0)
8F4A  0B000000             endpc   (11)
8F4E  05000000           string size (5)
8F52  7635303300         "v503\0"
                         local [3]: v503
8F57  01000000             startpc (1)
8F5B  0B000000             endpc   (11)
8F5F  05000000           string size (5)
8F63  7635303400         "v504\0"
                         local [4]: v504
8F68  02000000             startpc (2)
8F6C  0B000000             endpc   (11)
                         * upvalues:
8F70  01000000           sizeupvalues (1)
8F74  05000000           string size (5)
8F78  7632373900         "v279\0"
                         upvalue [0]: v279
                         ** end of function 0_2_2_0_1 **

                         
8F7D                     ** function [2] definition (level 5) 0_2_2_0_2
                         ** start of function 0_2_2_0_2 **
8F7D  00000000           string size (0)
                         source name: (none)
8F81  01000000           line defined (1)
8F85  01000000           last line defined (1)
8F89  01                 nups (1)
8F8A  02                 numparams (2)
8F8B  00                 is_vararg (0)
8F8C  05                 maxstacksize (5)
                         * code:
8F8D  07000000           sizecode (7)
8F91  84000000           [1] getupval   2   0        ; R2 := U0 , v285
8F95  86400001           [2] gettable   2   2   1    ; R2 := R2[R1]
8F99  C6004001           [3] gettable   3   2   256  ; R3 := R2[1]
8F9D  06414001           [4] gettable   4   2   257  ; R4 := R2[2]
8FA1  C6008101           [5] gettable   3   3   4    ; R3 := R3[R4]
8FA5  DE000001           [6] return     3   2        ; return R3
8FA9  1E008000           [7] return     0   1        ; return 
                         * constants:
8FAD  02000000           sizek (2)
8FB1  03                 const type 3
8FB2  000000000000F03F   const [0]: (1)
8FBA  03                 const type 3
8FBB  0000000000000040   const [1]: (2)
                         * functions:
8FC3  00000000           sizep (0)
                         * lines:
8FC7  07000000           sizelineinfo (7)
                         [pc] (line)
8FCB  01000000           [1] (1)
8FCF  01000000           [2] (1)
8FD3  01000000           [3] (1)
8FD7  01000000           [4] (1)
8FDB  01000000           [5] (1)
8FDF  01000000           [6] (1)
8FE3  01000000           [7] (1)
                         * locals:
8FE7  03000000           sizelocvars (3)
8FEB  05000000           string size (5)
8FEF  7633373400         "v374\0"
                         local [0]: v374
8FF4  00000000             startpc (0)
8FF8  06000000             endpc   (6)
8FFC  05000000           string size (5)
9000  7633373500         "v375\0"
                         local [1]: v375
9005  00000000             startpc (0)
9009  06000000             endpc   (6)
900D  05000000           string size (5)
9011  7633373600         "v376\0"
                         local [2]: v376
9016  02000000             startpc (2)
901A  06000000             endpc   (6)
                         * upvalues:
901E  01000000           sizeupvalues (1)
9022  05000000           string size (5)
9026  7632383500         "v285\0"
                         upvalue [0]: v285
                         ** end of function 0_2_2_0_2 **

                         
902B                     ** function [3] definition (level 5) 0_2_2_0_3
                         ** start of function 0_2_2_0_3 **
902B  00000000           string size (0)
                         source name: (none)
902F  01000000           line defined (1)
9033  01000000           last line defined (1)
9037  01                 nups (1)
9038  03                 numparams (3)
9039  00                 is_vararg (0)
903A  06                 maxstacksize (6)
                         * code:
903B  06000000           sizecode (6)
903F  C4000000           [1] getupval   3   0        ; R3 := U0 , v285
9043  C6408001           [2] gettable   3   3   1    ; R3 := R3[R1]
9047  0601C001           [3] gettable   4   3   256  ; R4 := R3[1]
904B  4641C001           [4] gettable   5   3   257  ; R5 := R3[2]
904F  09818002           [5] settable   4   5   2    ; R4[R5] := R2
9053  1E008000           [6] return     0   1        ; return 
                         * constants:
9057  02000000           sizek (2)
905B  03                 const type 3
905C  000000000000F03F   const [0]: (1)
9064  03                 const type 3
9065  0000000000000040   const [1]: (2)
                         * functions:
906D  00000000           sizep (0)
                         * lines:
9071  06000000           sizelineinfo (6)
                         [pc] (line)
9075  01000000           [1] (1)
9079  01000000           [2] (1)
907D  01000000           [3] (1)
9081  01000000           [4] (1)
9085  01000000           [5] (1)
9089  01000000           [6] (1)
                         * locals:
908D  04000000           sizelocvars (4)
9091  05000000           string size (5)
9095  7633373700         "v377\0"
                         local [0]: v377
909A  00000000             startpc (0)
909E  05000000             endpc   (5)
90A2  05000000           string size (5)
90A6  7633373800         "v378\0"
                         local [1]: v378
90AB  00000000             startpc (0)
90AF  05000000             endpc   (5)
90B3  05000000           string size (5)
90B7  7633373900         "v379\0"
                         local [2]: v379
90BC  00000000             startpc (0)
90C0  05000000             endpc   (5)
90C4  05000000           string size (5)
90C8  7633383000         "v380\0"
                         local [3]: v380
90CD  02000000             startpc (2)
90D1  05000000             endpc   (5)
                         * upvalues:
90D5  01000000           sizeupvalues (1)
90D9  05000000           string size (5)
90DD  7632383500         "v285\0"
                         upvalue [0]: v285
                         ** end of function 0_2_2_0_3 **

                         * lines:
90E2  80070000           sizelineinfo (1920)
                         [pc] (line)
90E6  01000000           [0001] (1)
90EA  01000000           [0002] (1)
90EE  01000000           [0003] (1)
90F2  01000000           [0004] (1)
90F6  01000000           [0005] (1)
90FA  01000000           [0006] (1)
90FE  01000000           [0007] (1)
9102  01000000           [0008] (1)
9106  01000000           [0009] (1)
910A  01000000           [0010] (1)
910E  01000000           [0011] (1)
9112  01000000           [0012] (1)
9116  01000000           [0013] (1)
911A  01000000           [0014] (1)
911E  01000000           [0015] (1)
9122  01000000           [0016] (1)
9126  01000000           [0017] (1)
912A  01000000           [0018] (1)
912E  01000000           [0019] (1)
9132  01000000           [0020] (1)
9136  01000000           [0021] (1)
913A  01000000           [0022] (1)
913E  01000000           [0023] (1)
9142  01000000           [0024] (1)
9146  01000000           [0025] (1)
914A  01000000           [0026] (1)
914E  01000000           [0027] (1)
9152  01000000           [0028] (1)
9156  01000000           [0029] (1)
915A  01000000           [0030] (1)
915E  01000000           [0031] (1)
9162  01000000           [0032] (1)
9166  01000000           [0033] (1)
916A  01000000           [0034] (1)
916E  01000000           [0035] (1)
9172  01000000           [0036] (1)
9176  01000000           [0037] (1)
917A  01000000           [0038] (1)
917E  01000000           [0039] (1)
9182  01000000           [0040] (1)
9186  01000000           [0041] (1)
918A  01000000           [0042] (1)
918E  01000000           [0043] (1)
9192  01000000           [0044] (1)
9196  01000000           [0045] (1)
919A  01000000           [0046] (1)
919E  01000000           [0047] (1)
91A2  01000000           [0048] (1)
91A6  01000000           [0049] (1)
91AA  01000000           [0050] (1)
91AE  01000000           [0051] (1)
91B2  01000000           [0052] (1)
91B6  01000000           [0053] (1)
91BA  01000000           [0054] (1)
91BE  01000000           [0055] (1)
91C2  01000000           [0056] (1)
91C6  01000000           [0057] (1)
91CA  01000000           [0058] (1)
91CE  01000000           [0059] (1)
91D2  01000000           [0060] (1)
91D6  01000000           [0061] (1)
91DA  01000000           [0062] (1)
91DE  01000000           [0063] (1)
91E2  01000000           [0064] (1)
91E6  01000000           [0065] (1)
91EA  01000000           [0066] (1)
91EE  01000000           [0067] (1)
91F2  01000000           [0068] (1)
91F6  01000000           [0069] (1)
91FA  01000000           [0070] (1)
91FE  01000000           [0071] (1)
9202  01000000           [0072] (1)
9206  01000000           [0073] (1)
920A  01000000           [0074] (1)
920E  01000000           [0075] (1)
9212  01000000           [0076] (1)
9216  01000000           [0077] (1)
921A  01000000           [0078] (1)
921E  01000000           [0079] (1)
9222  01000000           [0080] (1)
9226  01000000           [0081] (1)
922A  01000000           [0082] (1)
922E  01000000           [0083] (1)
9232  01000000           [0084] (1)
9236  01000000           [0085] (1)
923A  01000000           [0086] (1)
923E  01000000           [0087] (1)
9242  01000000           [0088] (1)
9246  01000000           [0089] (1)
924A  01000000           [0090] (1)
924E  01000000           [0091] (1)
9252  01000000           [0092] (1)
9256  01000000           [0093] (1)
925A  01000000           [0094] (1)
925E  01000000           [0095] (1)
9262  01000000           [0096] (1)
9266  01000000           [0097] (1)
926A  01000000           [0098] (1)
926E  01000000           [0099] (1)
9272  01000000           [0100] (1)
9276  01000000           [0101] (1)
927A  01000000           [0102] (1)
927E  01000000           [0103] (1)
9282  01000000           [0104] (1)
9286  01000000           [0105] (1)
928A  01000000           [0106] (1)
928E  01000000           [0107] (1)
9292  01000000           [0108] (1)
9296  01000000           [0109] (1)
929A  01000000           [0110] (1)
929E  01000000           [0111] (1)
92A2  01000000           [0112] (1)
92A6  01000000           [0113] (1)
92AA  01000000           [0114] (1)
92AE  01000000           [0115] (1)
92B2  01000000           [0116] (1)
92B6  01000000           [0117] (1)
92BA  01000000           [0118] (1)
92BE  01000000           [0119] (1)
92C2  01000000           [0120] (1)
92C6  01000000           [0121] (1)
92CA  01000000           [0122] (1)
92CE  01000000           [0123] (1)
92D2  01000000           [0124] (1)
92D6  01000000           [0125] (1)
92DA  01000000           [0126] (1)
92DE  01000000           [0127] (1)
92E2  01000000           [0128] (1)
92E6  01000000           [0129] (1)
92EA  01000000           [0130] (1)
92EE  01000000           [0131] (1)
92F2  01000000           [0132] (1)
92F6  01000000           [0133] (1)
92FA  01000000           [0134] (1)
92FE  01000000           [0135] (1)
9302  01000000           [0136] (1)
9306  01000000           [0137] (1)
930A  01000000           [0138] (1)
930E  01000000           [0139] (1)
9312  01000000           [0140] (1)
9316  01000000           [0141] (1)
931A  01000000           [0142] (1)
931E  01000000           [0143] (1)
9322  01000000           [0144] (1)
9326  01000000           [0145] (1)
932A  01000000           [0146] (1)
932E  01000000           [0147] (1)
9332  01000000           [0148] (1)
9336  01000000           [0149] (1)
933A  01000000           [0150] (1)
933E  01000000           [0151] (1)
9342  01000000           [0152] (1)
9346  01000000           [0153] (1)
934A  01000000           [0154] (1)
934E  01000000           [0155] (1)
9352  01000000           [0156] (1)
9356  01000000           [0157] (1)
935A  01000000           [0158] (1)
935E  01000000           [0159] (1)
9362  01000000           [0160] (1)
9366  01000000           [0161] (1)
936A  01000000           [0162] (1)
936E  01000000           [0163] (1)
9372  01000000           [0164] (1)
9376  01000000           [0165] (1)
937A  01000000           [0166] (1)
937E  01000000           [0167] (1)
9382  01000000           [0168] (1)
9386  01000000           [0169] (1)
938A  01000000           [0170] (1)
938E  01000000           [0171] (1)
9392  01000000           [0172] (1)
9396  01000000           [0173] (1)
939A  01000000           [0174] (1)
939E  01000000           [0175] (1)
93A2  01000000           [0176] (1)
93A6  01000000           [0177] (1)
93AA  01000000           [0178] (1)
93AE  01000000           [0179] (1)
93B2  01000000           [0180] (1)
93B6  01000000           [0181] (1)
93BA  01000000           [0182] (1)
93BE  01000000           [0183] (1)
93C2  01000000           [0184] (1)
93C6  01000000           [0185] (1)
93CA  01000000           [0186] (1)
93CE  01000000           [0187] (1)
93D2  01000000           [0188] (1)
93D6  01000000           [0189] (1)
93DA  01000000           [0190] (1)
93DE  01000000           [0191] (1)
93E2  01000000           [0192] (1)
93E6  01000000           [0193] (1)
93EA  01000000           [0194] (1)
93EE  01000000           [0195] (1)
93F2  01000000           [0196] (1)
93F6  01000000           [0197] (1)
93FA  01000000           [0198] (1)
93FE  01000000           [0199] (1)
9402  01000000           [0200] (1)
9406  01000000           [0201] (1)
940A  01000000           [0202] (1)
940E  01000000           [0203] (1)
9412  01000000           [0204] (1)
9416  01000000           [0205] (1)
941A  01000000           [0206] (1)
941E  01000000           [0207] (1)
9422  01000000           [0208] (1)
9426  01000000           [0209] (1)
942A  01000000           [0210] (1)
942E  01000000           [0211] (1)
9432  01000000           [0212] (1)
9436  01000000           [0213] (1)
943A  01000000           [0214] (1)
943E  01000000           [0215] (1)
9442  01000000           [0216] (1)
9446  01000000           [0217] (1)
944A  01000000           [0218] (1)
944E  01000000           [0219] (1)
9452  01000000           [0220] (1)
9456  01000000           [0221] (1)
945A  01000000           [0222] (1)
945E  01000000           [0223] (1)
9462  01000000           [0224] (1)
9466  01000000           [0225] (1)
946A  01000000           [0226] (1)
946E  01000000           [0227] (1)
9472  01000000           [0228] (1)
9476  01000000           [0229] (1)
947A  01000000           [0230] (1)
947E  01000000           [0231] (1)
9482  01000000           [0232] (1)
9486  01000000           [0233] (1)
948A  01000000           [0234] (1)
948E  01000000           [0235] (1)
9492  01000000           [0236] (1)
9496  01000000           [0237] (1)
949A  01000000           [0238] (1)
949E  01000000           [0239] (1)
94A2  01000000           [0240] (1)
94A6  01000000           [0241] (1)
94AA  01000000           [0242] (1)
94AE  01000000           [0243] (1)
94B2  01000000           [0244] (1)
94B6  01000000           [0245] (1)
94BA  01000000           [0246] (1)
94BE  01000000           [0247] (1)
94C2  01000000           [0248] (1)
94C6  01000000           [0249] (1)
94CA  01000000           [0250] (1)
94CE  01000000           [0251] (1)
94D2  01000000           [0252] (1)
94D6  01000000           [0253] (1)
94DA  01000000           [0254] (1)
94DE  01000000           [0255] (1)
94E2  01000000           [0256] (1)
94E6  01000000           [0257] (1)
94EA  01000000           [0258] (1)
94EE  01000000           [0259] (1)
94F2  01000000           [0260] (1)
94F6  01000000           [0261] (1)
94FA  01000000           [0262] (1)
94FE  01000000           [0263] (1)
9502  01000000           [0264] (1)
9506  01000000           [0265] (1)
950A  01000000           [0266] (1)
950E  01000000           [0267] (1)
9512  01000000           [0268] (1)
9516  01000000           [0269] (1)
951A  01000000           [0270] (1)
951E  01000000           [0271] (1)
9522  01000000           [0272] (1)
9526  01000000           [0273] (1)
952A  01000000           [0274] (1)
952E  01000000           [0275] (1)
9532  01000000           [0276] (1)
9536  01000000           [0277] (1)
953A  01000000           [0278] (1)
953E  01000000           [0279] (1)
9542  01000000           [0280] (1)
9546  01000000           [0281] (1)
954A  01000000           [0282] (1)
954E  01000000           [0283] (1)
9552  01000000           [0284] (1)
9556  01000000           [0285] (1)
955A  01000000           [0286] (1)
955E  01000000           [0287] (1)
9562  01000000           [0288] (1)
9566  01000000           [0289] (1)
956A  01000000           [0290] (1)
956E  01000000           [0291] (1)
9572  01000000           [0292] (1)
9576  01000000           [0293] (1)
957A  01000000           [0294] (1)
957E  01000000           [0295] (1)
9582  01000000           [0296] (1)
9586  01000000           [0297] (1)
958A  01000000           [0298] (1)
958E  01000000           [0299] (1)
9592  01000000           [0300] (1)
9596  01000000           [0301] (1)
959A  01000000           [0302] (1)
959E  01000000           [0303] (1)
95A2  01000000           [0304] (1)
95A6  01000000           [0305] (1)
95AA  01000000           [0306] (1)
95AE  01000000           [0307] (1)
95B2  01000000           [0308] (1)
95B6  01000000           [0309] (1)
95BA  01000000           [0310] (1)
95BE  01000000           [0311] (1)
95C2  01000000           [0312] (1)
95C6  01000000           [0313] (1)
95CA  01000000           [0314] (1)
95CE  01000000           [0315] (1)
95D2  01000000           [0316] (1)
95D6  01000000           [0317] (1)
95DA  01000000           [0318] (1)
95DE  01000000           [0319] (1)
95E2  01000000           [0320] (1)
95E6  01000000           [0321] (1)
95EA  01000000           [0322] (1)
95EE  01000000           [0323] (1)
95F2  01000000           [0324] (1)
95F6  01000000           [0325] (1)
95FA  01000000           [0326] (1)
95FE  01000000           [0327] (1)
9602  01000000           [0328] (1)
9606  01000000           [0329] (1)
960A  01000000           [0330] (1)
960E  01000000           [0331] (1)
9612  01000000           [0332] (1)
9616  01000000           [0333] (1)
961A  01000000           [0334] (1)
961E  01000000           [0335] (1)
9622  01000000           [0336] (1)
9626  01000000           [0337] (1)
962A  01000000           [0338] (1)
962E  01000000           [0339] (1)
9632  01000000           [0340] (1)
9636  01000000           [0341] (1)
963A  01000000           [0342] (1)
963E  01000000           [0343] (1)
9642  01000000           [0344] (1)
9646  01000000           [0345] (1)
964A  01000000           [0346] (1)
964E  01000000           [0347] (1)
9652  01000000           [0348] (1)
9656  01000000           [0349] (1)
965A  01000000           [0350] (1)
965E  01000000           [0351] (1)
9662  01000000           [0352] (1)
9666  01000000           [0353] (1)
966A  01000000           [0354] (1)
966E  01000000           [0355] (1)
9672  01000000           [0356] (1)
9676  01000000           [0357] (1)
967A  01000000           [0358] (1)
967E  01000000           [0359] (1)
9682  01000000           [0360] (1)
9686  01000000           [0361] (1)
968A  01000000           [0362] (1)
968E  01000000           [0363] (1)
9692  01000000           [0364] (1)
9696  01000000           [0365] (1)
969A  01000000           [0366] (1)
969E  01000000           [0367] (1)
96A2  01000000           [0368] (1)
96A6  01000000           [0369] (1)
96AA  01000000           [0370] (1)
96AE  01000000           [0371] (1)
96B2  01000000           [0372] (1)
96B6  01000000           [0373] (1)
96BA  01000000           [0374] (1)
96BE  01000000           [0375] (1)
96C2  01000000           [0376] (1)
96C6  01000000           [0377] (1)
96CA  01000000           [0378] (1)
96CE  01000000           [0379] (1)
96D2  01000000           [0380] (1)
96D6  01000000           [0381] (1)
96DA  01000000           [0382] (1)
96DE  01000000           [0383] (1)
96E2  01000000           [0384] (1)
96E6  01000000           [0385] (1)
96EA  01000000           [0386] (1)
96EE  01000000           [0387] (1)
96F2  01000000           [0388] (1)
96F6  01000000           [0389] (1)
96FA  01000000           [0390] (1)
96FE  01000000           [0391] (1)
9702  01000000           [0392] (1)
9706  01000000           [0393] (1)
970A  01000000           [0394] (1)
970E  01000000           [0395] (1)
9712  01000000           [0396] (1)
9716  01000000           [0397] (1)
971A  01000000           [0398] (1)
971E  01000000           [0399] (1)
9722  01000000           [0400] (1)
9726  01000000           [0401] (1)
972A  01000000           [0402] (1)
972E  01000000           [0403] (1)
9732  01000000           [0404] (1)
9736  01000000           [0405] (1)
973A  01000000           [0406] (1)
973E  01000000           [0407] (1)
9742  01000000           [0408] (1)
9746  01000000           [0409] (1)
974A  01000000           [0410] (1)
974E  01000000           [0411] (1)
9752  01000000           [0412] (1)
9756  01000000           [0413] (1)
975A  01000000           [0414] (1)
975E  01000000           [0415] (1)
9762  01000000           [0416] (1)
9766  01000000           [0417] (1)
976A  01000000           [0418] (1)
976E  01000000           [0419] (1)
9772  01000000           [0420] (1)
9776  01000000           [0421] (1)
977A  01000000           [0422] (1)
977E  01000000           [0423] (1)
9782  01000000           [0424] (1)
9786  01000000           [0425] (1)
978A  01000000           [0426] (1)
978E  01000000           [0427] (1)
9792  01000000           [0428] (1)
9796  01000000           [0429] (1)
979A  01000000           [0430] (1)
979E  01000000           [0431] (1)
97A2  01000000           [0432] (1)
97A6  01000000           [0433] (1)
97AA  01000000           [0434] (1)
97AE  01000000           [0435] (1)
97B2  01000000           [0436] (1)
97B6  01000000           [0437] (1)
97BA  01000000           [0438] (1)
97BE  01000000           [0439] (1)
97C2  01000000           [0440] (1)
97C6  01000000           [0441] (1)
97CA  01000000           [0442] (1)
97CE  01000000           [0443] (1)
97D2  01000000           [0444] (1)
97D6  01000000           [0445] (1)
97DA  01000000           [0446] (1)
97DE  01000000           [0447] (1)
97E2  01000000           [0448] (1)
97E6  01000000           [0449] (1)
97EA  01000000           [0450] (1)
97EE  01000000           [0451] (1)
97F2  01000000           [0452] (1)
97F6  01000000           [0453] (1)
97FA  01000000           [0454] (1)
97FE  01000000           [0455] (1)
9802  01000000           [0456] (1)
9806  01000000           [0457] (1)
980A  01000000           [0458] (1)
980E  01000000           [0459] (1)
9812  01000000           [0460] (1)
9816  01000000           [0461] (1)
981A  01000000           [0462] (1)
981E  01000000           [0463] (1)
9822  01000000           [0464] (1)
9826  01000000           [0465] (1)
982A  01000000           [0466] (1)
982E  01000000           [0467] (1)
9832  01000000           [0468] (1)
9836  01000000           [0469] (1)
983A  01000000           [0470] (1)
983E  01000000           [0471] (1)
9842  01000000           [0472] (1)
9846  01000000           [0473] (1)
984A  01000000           [0474] (1)
984E  01000000           [0475] (1)
9852  01000000           [0476] (1)
9856  01000000           [0477] (1)
985A  01000000           [0478] (1)
985E  01000000           [0479] (1)
9862  01000000           [0480] (1)
9866  01000000           [0481] (1)
986A  01000000           [0482] (1)
986E  01000000           [0483] (1)
9872  01000000           [0484] (1)
9876  01000000           [0485] (1)
987A  01000000           [0486] (1)
987E  01000000           [0487] (1)
9882  01000000           [0488] (1)
9886  01000000           [0489] (1)
988A  01000000           [0490] (1)
988E  01000000           [0491] (1)
9892  01000000           [0492] (1)
9896  01000000           [0493] (1)
989A  01000000           [0494] (1)
989E  01000000           [0495] (1)
98A2  01000000           [0496] (1)
98A6  01000000           [0497] (1)
98AA  01000000           [0498] (1)
98AE  01000000           [0499] (1)
98B2  01000000           [0500] (1)
98B6  01000000           [0501] (1)
98BA  01000000           [0502] (1)
98BE  01000000           [0503] (1)
98C2  01000000           [0504] (1)
98C6  01000000           [0505] (1)
98CA  01000000           [0506] (1)
98CE  01000000           [0507] (1)
98D2  01000000           [0508] (1)
98D6  01000000           [0509] (1)
98DA  01000000           [0510] (1)
98DE  01000000           [0511] (1)
98E2  01000000           [0512] (1)
98E6  01000000           [0513] (1)
98EA  01000000           [0514] (1)
98EE  01000000           [0515] (1)
98F2  01000000           [0516] (1)
98F6  01000000           [0517] (1)
98FA  01000000           [0518] (1)
98FE  01000000           [0519] (1)
9902  01000000           [0520] (1)
9906  01000000           [0521] (1)
990A  01000000           [0522] (1)
990E  01000000           [0523] (1)
9912  01000000           [0524] (1)
9916  01000000           [0525] (1)
991A  01000000           [0526] (1)
991E  01000000           [0527] (1)
9922  01000000           [0528] (1)
9926  01000000           [0529] (1)
992A  01000000           [0530] (1)
992E  01000000           [0531] (1)
9932  01000000           [0532] (1)
9936  01000000           [0533] (1)
993A  01000000           [0534] (1)
993E  01000000           [0535] (1)
9942  01000000           [0536] (1)
9946  01000000           [0537] (1)
994A  01000000           [0538] (1)
994E  01000000           [0539] (1)
9952  01000000           [0540] (1)
9956  01000000           [0541] (1)
995A  01000000           [0542] (1)
995E  01000000           [0543] (1)
9962  01000000           [0544] (1)
9966  01000000           [0545] (1)
996A  01000000           [0546] (1)
996E  01000000           [0547] (1)
9972  01000000           [0548] (1)
9976  01000000           [0549] (1)
997A  01000000           [0550] (1)
997E  01000000           [0551] (1)
9982  01000000           [0552] (1)
9986  01000000           [0553] (1)
998A  01000000           [0554] (1)
998E  01000000           [0555] (1)
9992  01000000           [0556] (1)
9996  01000000           [0557] (1)
999A  01000000           [0558] (1)
999E  01000000           [0559] (1)
99A2  01000000           [0560] (1)
99A6  01000000           [0561] (1)
99AA  01000000           [0562] (1)
99AE  01000000           [0563] (1)
99B2  01000000           [0564] (1)
99B6  01000000           [0565] (1)
99BA  01000000           [0566] (1)
99BE  01000000           [0567] (1)
99C2  01000000           [0568] (1)
99C6  01000000           [0569] (1)
99CA  01000000           [0570] (1)
99CE  01000000           [0571] (1)
99D2  01000000           [0572] (1)
99D6  01000000           [0573] (1)
99DA  01000000           [0574] (1)
99DE  01000000           [0575] (1)
99E2  01000000           [0576] (1)
99E6  01000000           [0577] (1)
99EA  01000000           [0578] (1)
99EE  01000000           [0579] (1)
99F2  01000000           [0580] (1)
99F6  01000000           [0581] (1)
99FA  01000000           [0582] (1)
99FE  01000000           [0583] (1)
9A02  01000000           [0584] (1)
9A06  01000000           [0585] (1)
9A0A  01000000           [0586] (1)
9A0E  01000000           [0587] (1)
9A12  01000000           [0588] (1)
9A16  01000000           [0589] (1)
9A1A  01000000           [0590] (1)
9A1E  01000000           [0591] (1)
9A22  01000000           [0592] (1)
9A26  01000000           [0593] (1)
9A2A  01000000           [0594] (1)
9A2E  01000000           [0595] (1)
9A32  01000000           [0596] (1)
9A36  01000000           [0597] (1)
9A3A  01000000           [0598] (1)
9A3E  01000000           [0599] (1)
9A42  01000000           [0600] (1)
9A46  01000000           [0601] (1)
9A4A  01000000           [0602] (1)
9A4E  01000000           [0603] (1)
9A52  01000000           [0604] (1)
9A56  01000000           [0605] (1)
9A5A  01000000           [0606] (1)
9A5E  01000000           [0607] (1)
9A62  01000000           [0608] (1)
9A66  01000000           [0609] (1)
9A6A  01000000           [0610] (1)
9A6E  01000000           [0611] (1)
9A72  01000000           [0612] (1)
9A76  01000000           [0613] (1)
9A7A  01000000           [0614] (1)
9A7E  01000000           [0615] (1)
9A82  01000000           [0616] (1)
9A86  01000000           [0617] (1)
9A8A  01000000           [0618] (1)
9A8E  01000000           [0619] (1)
9A92  01000000           [0620] (1)
9A96  01000000           [0621] (1)
9A9A  01000000           [0622] (1)
9A9E  01000000           [0623] (1)
9AA2  01000000           [0624] (1)
9AA6  01000000           [0625] (1)
9AAA  01000000           [0626] (1)
9AAE  01000000           [0627] (1)
9AB2  01000000           [0628] (1)
9AB6  01000000           [0629] (1)
9ABA  01000000           [0630] (1)
9ABE  01000000           [0631] (1)
9AC2  01000000           [0632] (1)
9AC6  01000000           [0633] (1)
9ACA  01000000           [0634] (1)
9ACE  01000000           [0635] (1)
9AD2  01000000           [0636] (1)
9AD6  01000000           [0637] (1)
9ADA  01000000           [0638] (1)
9ADE  01000000           [0639] (1)
9AE2  01000000           [0640] (1)
9AE6  01000000           [0641] (1)
9AEA  01000000           [0642] (1)
9AEE  01000000           [0643] (1)
9AF2  01000000           [0644] (1)
9AF6  01000000           [0645] (1)
9AFA  01000000           [0646] (1)
9AFE  01000000           [0647] (1)
9B02  01000000           [0648] (1)
9B06  01000000           [0649] (1)
9B0A  01000000           [0650] (1)
9B0E  01000000           [0651] (1)
9B12  01000000           [0652] (1)
9B16  01000000           [0653] (1)
9B1A  01000000           [0654] (1)
9B1E  01000000           [0655] (1)
9B22  01000000           [0656] (1)
9B26  01000000           [0657] (1)
9B2A  01000000           [0658] (1)
9B2E  01000000           [0659] (1)
9B32  01000000           [0660] (1)
9B36  01000000           [0661] (1)
9B3A  01000000           [0662] (1)
9B3E  01000000           [0663] (1)
9B42  01000000           [0664] (1)
9B46  01000000           [0665] (1)
9B4A  01000000           [0666] (1)
9B4E  01000000           [0667] (1)
9B52  01000000           [0668] (1)
9B56  01000000           [0669] (1)
9B5A  01000000           [0670] (1)
9B5E  01000000           [0671] (1)
9B62  01000000           [0672] (1)
9B66  01000000           [0673] (1)
9B6A  01000000           [0674] (1)
9B6E  01000000           [0675] (1)
9B72  01000000           [0676] (1)
9B76  01000000           [0677] (1)
9B7A  01000000           [0678] (1)
9B7E  01000000           [0679] (1)
9B82  01000000           [0680] (1)
9B86  01000000           [0681] (1)
9B8A  01000000           [0682] (1)
9B8E  01000000           [0683] (1)
9B92  01000000           [0684] (1)
9B96  01000000           [0685] (1)
9B9A  01000000           [0686] (1)
9B9E  01000000           [0687] (1)
9BA2  01000000           [0688] (1)
9BA6  01000000           [0689] (1)
9BAA  01000000           [0690] (1)
9BAE  01000000           [0691] (1)
9BB2  01000000           [0692] (1)
9BB6  01000000           [0693] (1)
9BBA  01000000           [0694] (1)
9BBE  01000000           [0695] (1)
9BC2  01000000           [0696] (1)
9BC6  01000000           [0697] (1)
9BCA  01000000           [0698] (1)
9BCE  01000000           [0699] (1)
9BD2  01000000           [0700] (1)
9BD6  01000000           [0701] (1)
9BDA  01000000           [0702] (1)
9BDE  01000000           [0703] (1)
9BE2  01000000           [0704] (1)
9BE6  01000000           [0705] (1)
9BEA  01000000           [0706] (1)
9BEE  01000000           [0707] (1)
9BF2  01000000           [0708] (1)
9BF6  01000000           [0709] (1)
9BFA  01000000           [0710] (1)
9BFE  01000000           [0711] (1)
9C02  01000000           [0712] (1)
9C06  01000000           [0713] (1)
9C0A  01000000           [0714] (1)
9C0E  01000000           [0715] (1)
9C12  01000000           [0716] (1)
9C16  01000000           [0717] (1)
9C1A  01000000           [0718] (1)
9C1E  01000000           [0719] (1)
9C22  01000000           [0720] (1)
9C26  01000000           [0721] (1)
9C2A  01000000           [0722] (1)
9C2E  01000000           [0723] (1)
9C32  01000000           [0724] (1)
9C36  01000000           [0725] (1)
9C3A  01000000           [0726] (1)
9C3E  01000000           [0727] (1)
9C42  01000000           [0728] (1)
9C46  01000000           [0729] (1)
9C4A  01000000           [0730] (1)
9C4E  01000000           [0731] (1)
9C52  01000000           [0732] (1)
9C56  01000000           [0733] (1)
9C5A  01000000           [0734] (1)
9C5E  01000000           [0735] (1)
9C62  01000000           [0736] (1)
9C66  01000000           [0737] (1)
9C6A  01000000           [0738] (1)
9C6E  01000000           [0739] (1)
9C72  01000000           [0740] (1)
9C76  01000000           [0741] (1)
9C7A  01000000           [0742] (1)
9C7E  01000000           [0743] (1)
9C82  01000000           [0744] (1)
9C86  01000000           [0745] (1)
9C8A  01000000           [0746] (1)
9C8E  01000000           [0747] (1)
9C92  01000000           [0748] (1)
9C96  01000000           [0749] (1)
9C9A  01000000           [0750] (1)
9C9E  01000000           [0751] (1)
9CA2  01000000           [0752] (1)
9CA6  01000000           [0753] (1)
9CAA  01000000           [0754] (1)
9CAE  01000000           [0755] (1)
9CB2  01000000           [0756] (1)
9CB6  01000000           [0757] (1)
9CBA  01000000           [0758] (1)
9CBE  01000000           [0759] (1)
9CC2  01000000           [0760] (1)
9CC6  01000000           [0761] (1)
9CCA  01000000           [0762] (1)
9CCE  01000000           [0763] (1)
9CD2  01000000           [0764] (1)
9CD6  01000000           [0765] (1)
9CDA  01000000           [0766] (1)
9CDE  01000000           [0767] (1)
9CE2  01000000           [0768] (1)
9CE6  01000000           [0769] (1)
9CEA  01000000           [0770] (1)
9CEE  01000000           [0771] (1)
9CF2  01000000           [0772] (1)
9CF6  01000000           [0773] (1)
9CFA  01000000           [0774] (1)
9CFE  01000000           [0775] (1)
9D02  01000000           [0776] (1)
9D06  01000000           [0777] (1)
9D0A  01000000           [0778] (1)
9D0E  01000000           [0779] (1)
9D12  01000000           [0780] (1)
9D16  01000000           [0781] (1)
9D1A  01000000           [0782] (1)
9D1E  01000000           [0783] (1)
9D22  01000000           [0784] (1)
9D26  01000000           [0785] (1)
9D2A  01000000           [0786] (1)
9D2E  01000000           [0787] (1)
9D32  01000000           [0788] (1)
9D36  01000000           [0789] (1)
9D3A  01000000           [0790] (1)
9D3E  01000000           [0791] (1)
9D42  01000000           [0792] (1)
9D46  01000000           [0793] (1)
9D4A  01000000           [0794] (1)
9D4E  01000000           [0795] (1)
9D52  01000000           [0796] (1)
9D56  01000000           [0797] (1)
9D5A  01000000           [0798] (1)
9D5E  01000000           [0799] (1)
9D62  01000000           [0800] (1)
9D66  01000000           [0801] (1)
9D6A  01000000           [0802] (1)
9D6E  01000000           [0803] (1)
9D72  01000000           [0804] (1)
9D76  01000000           [0805] (1)
9D7A  01000000           [0806] (1)
9D7E  01000000           [0807] (1)
9D82  01000000           [0808] (1)
9D86  01000000           [0809] (1)
9D8A  01000000           [0810] (1)
9D8E  01000000           [0811] (1)
9D92  01000000           [0812] (1)
9D96  01000000           [0813] (1)
9D9A  01000000           [0814] (1)
9D9E  01000000           [0815] (1)
9DA2  01000000           [0816] (1)
9DA6  01000000           [0817] (1)
9DAA  01000000           [0818] (1)
9DAE  01000000           [0819] (1)
9DB2  01000000           [0820] (1)
9DB6  01000000           [0821] (1)
9DBA  01000000           [0822] (1)
9DBE  01000000           [0823] (1)
9DC2  01000000           [0824] (1)
9DC6  01000000           [0825] (1)
9DCA  01000000           [0826] (1)
9DCE  01000000           [0827] (1)
9DD2  01000000           [0828] (1)
9DD6  01000000           [0829] (1)
9DDA  01000000           [0830] (1)
9DDE  01000000           [0831] (1)
9DE2  01000000           [0832] (1)
9DE6  01000000           [0833] (1)
9DEA  01000000           [0834] (1)
9DEE  01000000           [0835] (1)
9DF2  01000000           [0836] (1)
9DF6  01000000           [0837] (1)
9DFA  01000000           [0838] (1)
9DFE  01000000           [0839] (1)
9E02  01000000           [0840] (1)
9E06  01000000           [0841] (1)
9E0A  01000000           [0842] (1)
9E0E  01000000           [0843] (1)
9E12  01000000           [0844] (1)
9E16  01000000           [0845] (1)
9E1A  01000000           [0846] (1)
9E1E  01000000           [0847] (1)
9E22  01000000           [0848] (1)
9E26  01000000           [0849] (1)
9E2A  01000000           [0850] (1)
9E2E  01000000           [0851] (1)
9E32  01000000           [0852] (1)
9E36  01000000           [0853] (1)
9E3A  01000000           [0854] (1)
9E3E  01000000           [0855] (1)
9E42  01000000           [0856] (1)
9E46  01000000           [0857] (1)
9E4A  01000000           [0858] (1)
9E4E  01000000           [0859] (1)
9E52  01000000           [0860] (1)
9E56  01000000           [0861] (1)
9E5A  01000000           [0862] (1)
9E5E  01000000           [0863] (1)
9E62  01000000           [0864] (1)
9E66  01000000           [0865] (1)
9E6A  01000000           [0866] (1)
9E6E  01000000           [0867] (1)
9E72  01000000           [0868] (1)
9E76  01000000           [0869] (1)
9E7A  01000000           [0870] (1)
9E7E  01000000           [0871] (1)
9E82  01000000           [0872] (1)
9E86  01000000           [0873] (1)
9E8A  01000000           [0874] (1)
9E8E  01000000           [0875] (1)
9E92  01000000           [0876] (1)
9E96  01000000           [0877] (1)
9E9A  01000000           [0878] (1)
9E9E  01000000           [0879] (1)
9EA2  01000000           [0880] (1)
9EA6  01000000           [0881] (1)
9EAA  01000000           [0882] (1)
9EAE  01000000           [0883] (1)
9EB2  01000000           [0884] (1)
9EB6  01000000           [0885] (1)
9EBA  01000000           [0886] (1)
9EBE  01000000           [0887] (1)
9EC2  01000000           [0888] (1)
9EC6  01000000           [0889] (1)
9ECA  01000000           [0890] (1)
9ECE  01000000           [0891] (1)
9ED2  01000000           [0892] (1)
9ED6  01000000           [0893] (1)
9EDA  01000000           [0894] (1)
9EDE  01000000           [0895] (1)
9EE2  01000000           [0896] (1)
9EE6  01000000           [0897] (1)
9EEA  01000000           [0898] (1)
9EEE  01000000           [0899] (1)
9EF2  01000000           [0900] (1)
9EF6  01000000           [0901] (1)
9EFA  01000000           [0902] (1)
9EFE  01000000           [0903] (1)
9F02  01000000           [0904] (1)
9F06  01000000           [0905] (1)
9F0A  01000000           [0906] (1)
9F0E  01000000           [0907] (1)
9F12  01000000           [0908] (1)
9F16  01000000           [0909] (1)
9F1A  01000000           [0910] (1)
9F1E  01000000           [0911] (1)
9F22  01000000           [0912] (1)
9F26  01000000           [0913] (1)
9F2A  01000000           [0914] (1)
9F2E  01000000           [0915] (1)
9F32  01000000           [0916] (1)
9F36  01000000           [0917] (1)
9F3A  01000000           [0918] (1)
9F3E  01000000           [0919] (1)
9F42  01000000           [0920] (1)
9F46  01000000           [0921] (1)
9F4A  01000000           [0922] (1)
9F4E  01000000           [0923] (1)
9F52  01000000           [0924] (1)
9F56  01000000           [0925] (1)
9F5A  01000000           [0926] (1)
9F5E  01000000           [0927] (1)
9F62  01000000           [0928] (1)
9F66  01000000           [0929] (1)
9F6A  01000000           [0930] (1)
9F6E  01000000           [0931] (1)
9F72  01000000           [0932] (1)
9F76  01000000           [0933] (1)
9F7A  01000000           [0934] (1)
9F7E  01000000           [0935] (1)
9F82  01000000           [0936] (1)
9F86  01000000           [0937] (1)
9F8A  01000000           [0938] (1)
9F8E  01000000           [0939] (1)
9F92  01000000           [0940] (1)
9F96  01000000           [0941] (1)
9F9A  01000000           [0942] (1)
9F9E  01000000           [0943] (1)
9FA2  01000000           [0944] (1)
9FA6  01000000           [0945] (1)
9FAA  01000000           [0946] (1)
9FAE  01000000           [0947] (1)
9FB2  01000000           [0948] (1)
9FB6  01000000           [0949] (1)
9FBA  01000000           [0950] (1)
9FBE  01000000           [0951] (1)
9FC2  01000000           [0952] (1)
9FC6  01000000           [0953] (1)
9FCA  01000000           [0954] (1)
9FCE  01000000           [0955] (1)
9FD2  01000000           [0956] (1)
9FD6  01000000           [0957] (1)
9FDA  01000000           [0958] (1)
9FDE  01000000           [0959] (1)
9FE2  01000000           [0960] (1)
9FE6  01000000           [0961] (1)
9FEA  01000000           [0962] (1)
9FEE  01000000           [0963] (1)
9FF2  01000000           [0964] (1)
9FF6  01000000           [0965] (1)
9FFA  01000000           [0966] (1)
9FFE  01000000           [0967] (1)
A002  01000000           [0968] (1)
A006  01000000           [0969] (1)
A00A  01000000           [0970] (1)
A00E  01000000           [0971] (1)
A012  01000000           [0972] (1)
A016  01000000           [0973] (1)
A01A  01000000           [0974] (1)
A01E  01000000           [0975] (1)
A022  01000000           [0976] (1)
A026  01000000           [0977] (1)
A02A  01000000           [0978] (1)
A02E  01000000           [0979] (1)
A032  01000000           [0980] (1)
A036  01000000           [0981] (1)
A03A  01000000           [0982] (1)
A03E  01000000           [0983] (1)
A042  01000000           [0984] (1)
A046  01000000           [0985] (1)
A04A  01000000           [0986] (1)
A04E  01000000           [0987] (1)
A052  01000000           [0988] (1)
A056  01000000           [0989] (1)
A05A  01000000           [0990] (1)
A05E  01000000           [0991] (1)
A062  01000000           [0992] (1)
A066  01000000           [0993] (1)
A06A  01000000           [0994] (1)
A06E  01000000           [0995] (1)
A072  01000000           [0996] (1)
A076  01000000           [0997] (1)
A07A  01000000           [0998] (1)
A07E  01000000           [0999] (1)
A082  01000000           [1000] (1)
A086  01000000           [1001] (1)
A08A  01000000           [1002] (1)
A08E  01000000           [1003] (1)
A092  01000000           [1004] (1)
A096  01000000           [1005] (1)
A09A  01000000           [1006] (1)
A09E  01000000           [1007] (1)
A0A2  01000000           [1008] (1)
A0A6  01000000           [1009] (1)
A0AA  01000000           [1010] (1)
A0AE  01000000           [1011] (1)
A0B2  01000000           [1012] (1)
A0B6  01000000           [1013] (1)
A0BA  01000000           [1014] (1)
A0BE  01000000           [1015] (1)
A0C2  01000000           [1016] (1)
A0C6  01000000           [1017] (1)
A0CA  01000000           [1018] (1)
A0CE  01000000           [1019] (1)
A0D2  01000000           [1020] (1)
A0D6  01000000           [1021] (1)
A0DA  01000000           [1022] (1)
A0DE  01000000           [1023] (1)
A0E2  01000000           [1024] (1)
A0E6  01000000           [1025] (1)
A0EA  01000000           [1026] (1)
A0EE  01000000           [1027] (1)
A0F2  01000000           [1028] (1)
A0F6  01000000           [1029] (1)
A0FA  01000000           [1030] (1)
A0FE  01000000           [1031] (1)
A102  01000000           [1032] (1)
A106  01000000           [1033] (1)
A10A  01000000           [1034] (1)
A10E  01000000           [1035] (1)
A112  01000000           [1036] (1)
A116  01000000           [1037] (1)
A11A  01000000           [1038] (1)
A11E  01000000           [1039] (1)
A122  01000000           [1040] (1)
A126  01000000           [1041] (1)
A12A  01000000           [1042] (1)
A12E  01000000           [1043] (1)
A132  01000000           [1044] (1)
A136  01000000           [1045] (1)
A13A  01000000           [1046] (1)
A13E  01000000           [1047] (1)
A142  01000000           [1048] (1)
A146  01000000           [1049] (1)
A14A  01000000           [1050] (1)
A14E  01000000           [1051] (1)
A152  01000000           [1052] (1)
A156  01000000           [1053] (1)
A15A  01000000           [1054] (1)
A15E  01000000           [1055] (1)
A162  01000000           [1056] (1)
A166  01000000           [1057] (1)
A16A  01000000           [1058] (1)
A16E  01000000           [1059] (1)
A172  01000000           [1060] (1)
A176  01000000           [1061] (1)
A17A  01000000           [1062] (1)
A17E  01000000           [1063] (1)
A182  01000000           [1064] (1)
A186  01000000           [1065] (1)
A18A  01000000           [1066] (1)
A18E  01000000           [1067] (1)
A192  01000000           [1068] (1)
A196  01000000           [1069] (1)
A19A  01000000           [1070] (1)
A19E  01000000           [1071] (1)
A1A2  01000000           [1072] (1)
A1A6  01000000           [1073] (1)
A1AA  01000000           [1074] (1)
A1AE  01000000           [1075] (1)
A1B2  01000000           [1076] (1)
A1B6  01000000           [1077] (1)
A1BA  01000000           [1078] (1)
A1BE  01000000           [1079] (1)
A1C2  01000000           [1080] (1)
A1C6  01000000           [1081] (1)
A1CA  01000000           [1082] (1)
A1CE  01000000           [1083] (1)
A1D2  01000000           [1084] (1)
A1D6  01000000           [1085] (1)
A1DA  01000000           [1086] (1)
A1DE  01000000           [1087] (1)
A1E2  01000000           [1088] (1)
A1E6  01000000           [1089] (1)
A1EA  01000000           [1090] (1)
A1EE  01000000           [1091] (1)
A1F2  01000000           [1092] (1)
A1F6  01000000           [1093] (1)
A1FA  01000000           [1094] (1)
A1FE  01000000           [1095] (1)
A202  01000000           [1096] (1)
A206  01000000           [1097] (1)
A20A  01000000           [1098] (1)
A20E  01000000           [1099] (1)
A212  01000000           [1100] (1)
A216  01000000           [1101] (1)
A21A  01000000           [1102] (1)
A21E  01000000           [1103] (1)
A222  01000000           [1104] (1)
A226  01000000           [1105] (1)
A22A  01000000           [1106] (1)
A22E  01000000           [1107] (1)
A232  01000000           [1108] (1)
A236  01000000           [1109] (1)
A23A  01000000           [1110] (1)
A23E  01000000           [1111] (1)
A242  01000000           [1112] (1)
A246  01000000           [1113] (1)
A24A  01000000           [1114] (1)
A24E  01000000           [1115] (1)
A252  01000000           [1116] (1)
A256  01000000           [1117] (1)
A25A  01000000           [1118] (1)
A25E  01000000           [1119] (1)
A262  01000000           [1120] (1)
A266  01000000           [1121] (1)
A26A  01000000           [1122] (1)
A26E  01000000           [1123] (1)
A272  01000000           [1124] (1)
A276  01000000           [1125] (1)
A27A  01000000           [1126] (1)
A27E  01000000           [1127] (1)
A282  01000000           [1128] (1)
A286  01000000           [1129] (1)
A28A  01000000           [1130] (1)
A28E  01000000           [1131] (1)
A292  01000000           [1132] (1)
A296  01000000           [1133] (1)
A29A  01000000           [1134] (1)
A29E  01000000           [1135] (1)
A2A2  01000000           [1136] (1)
A2A6  01000000           [1137] (1)
A2AA  01000000           [1138] (1)
A2AE  01000000           [1139] (1)
A2B2  01000000           [1140] (1)
A2B6  01000000           [1141] (1)
A2BA  01000000           [1142] (1)
A2BE  01000000           [1143] (1)
A2C2  01000000           [1144] (1)
A2C6  01000000           [1145] (1)
A2CA  01000000           [1146] (1)
A2CE  01000000           [1147] (1)
A2D2  01000000           [1148] (1)
A2D6  01000000           [1149] (1)
A2DA  01000000           [1150] (1)
A2DE  01000000           [1151] (1)
A2E2  01000000           [1152] (1)
A2E6  01000000           [1153] (1)
A2EA  01000000           [1154] (1)
A2EE  01000000           [1155] (1)
A2F2  01000000           [1156] (1)
A2F6  01000000           [1157] (1)
A2FA  01000000           [1158] (1)
A2FE  01000000           [1159] (1)
A302  01000000           [1160] (1)
A306  01000000           [1161] (1)
A30A  01000000           [1162] (1)
A30E  01000000           [1163] (1)
A312  01000000           [1164] (1)
A316  01000000           [1165] (1)
A31A  01000000           [1166] (1)
A31E  01000000           [1167] (1)
A322  01000000           [1168] (1)
A326  01000000           [1169] (1)
A32A  01000000           [1170] (1)
A32E  01000000           [1171] (1)
A332  01000000           [1172] (1)
A336  01000000           [1173] (1)
A33A  01000000           [1174] (1)
A33E  01000000           [1175] (1)
A342  01000000           [1176] (1)
A346  01000000           [1177] (1)
A34A  01000000           [1178] (1)
A34E  01000000           [1179] (1)
A352  01000000           [1180] (1)
A356  01000000           [1181] (1)
A35A  01000000           [1182] (1)
A35E  01000000           [1183] (1)
A362  01000000           [1184] (1)
A366  01000000           [1185] (1)
A36A  01000000           [1186] (1)
A36E  01000000           [1187] (1)
A372  01000000           [1188] (1)
A376  01000000           [1189] (1)
A37A  01000000           [1190] (1)
A37E  01000000           [1191] (1)
A382  01000000           [1192] (1)
A386  01000000           [1193] (1)
A38A  01000000           [1194] (1)
A38E  01000000           [1195] (1)
A392  01000000           [1196] (1)
A396  01000000           [1197] (1)
A39A  01000000           [1198] (1)
A39E  01000000           [1199] (1)
A3A2  01000000           [1200] (1)
A3A6  01000000           [1201] (1)
A3AA  01000000           [1202] (1)
A3AE  01000000           [1203] (1)
A3B2  01000000           [1204] (1)
A3B6  01000000           [1205] (1)
A3BA  01000000           [1206] (1)
A3BE  01000000           [1207] (1)
A3C2  01000000           [1208] (1)
A3C6  01000000           [1209] (1)
A3CA  01000000           [1210] (1)
A3CE  01000000           [1211] (1)
A3D2  01000000           [1212] (1)
A3D6  01000000           [1213] (1)
A3DA  01000000           [1214] (1)
A3DE  01000000           [1215] (1)
A3E2  01000000           [1216] (1)
A3E6  01000000           [1217] (1)
A3EA  01000000           [1218] (1)
A3EE  01000000           [1219] (1)
A3F2  01000000           [1220] (1)
A3F6  01000000           [1221] (1)
A3FA  01000000           [1222] (1)
A3FE  01000000           [1223] (1)
A402  01000000           [1224] (1)
A406  01000000           [1225] (1)
A40A  01000000           [1226] (1)
A40E  01000000           [1227] (1)
A412  01000000           [1228] (1)
A416  01000000           [1229] (1)
A41A  01000000           [1230] (1)
A41E  01000000           [1231] (1)
A422  01000000           [1232] (1)
A426  01000000           [1233] (1)
A42A  01000000           [1234] (1)
A42E  01000000           [1235] (1)
A432  01000000           [1236] (1)
A436  01000000           [1237] (1)
A43A  01000000           [1238] (1)
A43E  01000000           [1239] (1)
A442  01000000           [1240] (1)
A446  01000000           [1241] (1)
A44A  01000000           [1242] (1)
A44E  01000000           [1243] (1)
A452  01000000           [1244] (1)
A456  01000000           [1245] (1)
A45A  01000000           [1246] (1)
A45E  01000000           [1247] (1)
A462  01000000           [1248] (1)
A466  01000000           [1249] (1)
A46A  01000000           [1250] (1)
A46E  01000000           [1251] (1)
A472  01000000           [1252] (1)
A476  01000000           [1253] (1)
A47A  01000000           [1254] (1)
A47E  01000000           [1255] (1)
A482  01000000           [1256] (1)
A486  01000000           [1257] (1)
A48A  01000000           [1258] (1)
A48E  01000000           [1259] (1)
A492  01000000           [1260] (1)
A496  01000000           [1261] (1)
A49A  01000000           [1262] (1)
A49E  01000000           [1263] (1)
A4A2  01000000           [1264] (1)
A4A6  01000000           [1265] (1)
A4AA  01000000           [1266] (1)
A4AE  01000000           [1267] (1)
A4B2  01000000           [1268] (1)
A4B6  01000000           [1269] (1)
A4BA  01000000           [1270] (1)
A4BE  01000000           [1271] (1)
A4C2  01000000           [1272] (1)
A4C6  01000000           [1273] (1)
A4CA  01000000           [1274] (1)
A4CE  01000000           [1275] (1)
A4D2  01000000           [1276] (1)
A4D6  01000000           [1277] (1)
A4DA  01000000           [1278] (1)
A4DE  01000000           [1279] (1)
A4E2  01000000           [1280] (1)
A4E6  01000000           [1281] (1)
A4EA  01000000           [1282] (1)
A4EE  01000000           [1283] (1)
A4F2  01000000           [1284] (1)
A4F6  01000000           [1285] (1)
A4FA  01000000           [1286] (1)
A4FE  01000000           [1287] (1)
A502  01000000           [1288] (1)
A506  01000000           [1289] (1)
A50A  01000000           [1290] (1)
A50E  01000000           [1291] (1)
A512  01000000           [1292] (1)
A516  01000000           [1293] (1)
A51A  01000000           [1294] (1)
A51E  01000000           [1295] (1)
A522  01000000           [1296] (1)
A526  01000000           [1297] (1)
A52A  01000000           [1298] (1)
A52E  01000000           [1299] (1)
A532  01000000           [1300] (1)
A536  01000000           [1301] (1)
A53A  01000000           [1302] (1)
A53E  01000000           [1303] (1)
A542  01000000           [1304] (1)
A546  01000000           [1305] (1)
A54A  01000000           [1306] (1)
A54E  01000000           [1307] (1)
A552  01000000           [1308] (1)
A556  01000000           [1309] (1)
A55A  01000000           [1310] (1)
A55E  01000000           [1311] (1)
A562  01000000           [1312] (1)
A566  01000000           [1313] (1)
A56A  01000000           [1314] (1)
A56E  01000000           [1315] (1)
A572  01000000           [1316] (1)
A576  01000000           [1317] (1)
A57A  01000000           [1318] (1)
A57E  01000000           [1319] (1)
A582  01000000           [1320] (1)
A586  01000000           [1321] (1)
A58A  01000000           [1322] (1)
A58E  01000000           [1323] (1)
A592  01000000           [1324] (1)
A596  01000000           [1325] (1)
A59A  01000000           [1326] (1)
A59E  01000000           [1327] (1)
A5A2  01000000           [1328] (1)
A5A6  01000000           [1329] (1)
A5AA  01000000           [1330] (1)
A5AE  01000000           [1331] (1)
A5B2  01000000           [1332] (1)
A5B6  01000000           [1333] (1)
A5BA  01000000           [1334] (1)
A5BE  01000000           [1335] (1)
A5C2  01000000           [1336] (1)
A5C6  01000000           [1337] (1)
A5CA  01000000           [1338] (1)
A5CE  01000000           [1339] (1)
A5D2  01000000           [1340] (1)
A5D6  01000000           [1341] (1)
A5DA  01000000           [1342] (1)
A5DE  01000000           [1343] (1)
A5E2  01000000           [1344] (1)
A5E6  01000000           [1345] (1)
A5EA  01000000           [1346] (1)
A5EE  01000000           [1347] (1)
A5F2  01000000           [1348] (1)
A5F6  01000000           [1349] (1)
A5FA  01000000           [1350] (1)
A5FE  01000000           [1351] (1)
A602  01000000           [1352] (1)
A606  01000000           [1353] (1)
A60A  01000000           [1354] (1)
A60E  01000000           [1355] (1)
A612  01000000           [1356] (1)
A616  01000000           [1357] (1)
A61A  01000000           [1358] (1)
A61E  01000000           [1359] (1)
A622  01000000           [1360] (1)
A626  01000000           [1361] (1)
A62A  01000000           [1362] (1)
A62E  01000000           [1363] (1)
A632  01000000           [1364] (1)
A636  01000000           [1365] (1)
A63A  01000000           [1366] (1)
A63E  01000000           [1367] (1)
A642  01000000           [1368] (1)
A646  01000000           [1369] (1)
A64A  01000000           [1370] (1)
A64E  01000000           [1371] (1)
A652  01000000           [1372] (1)
A656  01000000           [1373] (1)
A65A  01000000           [1374] (1)
A65E  01000000           [1375] (1)
A662  01000000           [1376] (1)
A666  01000000           [1377] (1)
A66A  01000000           [1378] (1)
A66E  01000000           [1379] (1)
A672  01000000           [1380] (1)
A676  01000000           [1381] (1)
A67A  01000000           [1382] (1)
A67E  01000000           [1383] (1)
A682  01000000           [1384] (1)
A686  01000000           [1385] (1)
A68A  01000000           [1386] (1)
A68E  01000000           [1387] (1)
A692  01000000           [1388] (1)
A696  01000000           [1389] (1)
A69A  01000000           [1390] (1)
A69E  01000000           [1391] (1)
A6A2  01000000           [1392] (1)
A6A6  01000000           [1393] (1)
A6AA  01000000           [1394] (1)
A6AE  01000000           [1395] (1)
A6B2  01000000           [1396] (1)
A6B6  01000000           [1397] (1)
A6BA  01000000           [1398] (1)
A6BE  01000000           [1399] (1)
A6C2  01000000           [1400] (1)
A6C6  01000000           [1401] (1)
A6CA  01000000           [1402] (1)
A6CE  01000000           [1403] (1)
A6D2  01000000           [1404] (1)
A6D6  01000000           [1405] (1)
A6DA  01000000           [1406] (1)
A6DE  01000000           [1407] (1)
A6E2  01000000           [1408] (1)
A6E6  01000000           [1409] (1)
A6EA  01000000           [1410] (1)
A6EE  01000000           [1411] (1)
A6F2  01000000           [1412] (1)
A6F6  01000000           [1413] (1)
A6FA  01000000           [1414] (1)
A6FE  01000000           [1415] (1)
A702  01000000           [1416] (1)
A706  01000000           [1417] (1)
A70A  01000000           [1418] (1)
A70E  01000000           [1419] (1)
A712  01000000           [1420] (1)
A716  01000000           [1421] (1)
A71A  01000000           [1422] (1)
A71E  01000000           [1423] (1)
A722  01000000           [1424] (1)
A726  01000000           [1425] (1)
A72A  01000000           [1426] (1)
A72E  01000000           [1427] (1)
A732  01000000           [1428] (1)
A736  01000000           [1429] (1)
A73A  01000000           [1430] (1)
A73E  01000000           [1431] (1)
A742  01000000           [1432] (1)
A746  01000000           [1433] (1)
A74A  01000000           [1434] (1)
A74E  01000000           [1435] (1)
A752  01000000           [1436] (1)
A756  01000000           [1437] (1)
A75A  01000000           [1438] (1)
A75E  01000000           [1439] (1)
A762  01000000           [1440] (1)
A766  01000000           [1441] (1)
A76A  01000000           [1442] (1)
A76E  01000000           [1443] (1)
A772  01000000           [1444] (1)
A776  01000000           [1445] (1)
A77A  01000000           [1446] (1)
A77E  01000000           [1447] (1)
A782  01000000           [1448] (1)
A786  01000000           [1449] (1)
A78A  01000000           [1450] (1)
A78E  01000000           [1451] (1)
A792  01000000           [1452] (1)
A796  01000000           [1453] (1)
A79A  01000000           [1454] (1)
A79E  01000000           [1455] (1)
A7A2  01000000           [1456] (1)
A7A6  01000000           [1457] (1)
A7AA  01000000           [1458] (1)
A7AE  01000000           [1459] (1)
A7B2  01000000           [1460] (1)
A7B6  01000000           [1461] (1)
A7BA  01000000           [1462] (1)
A7BE  01000000           [1463] (1)
A7C2  01000000           [1464] (1)
A7C6  01000000           [1465] (1)
A7CA  01000000           [1466] (1)
A7CE  01000000           [1467] (1)
A7D2  01000000           [1468] (1)
A7D6  01000000           [1469] (1)
A7DA  01000000           [1470] (1)
A7DE  01000000           [1471] (1)
A7E2  01000000           [1472] (1)
A7E6  01000000           [1473] (1)
A7EA  01000000           [1474] (1)
A7EE  01000000           [1475] (1)
A7F2  01000000           [1476] (1)
A7F6  01000000           [1477] (1)
A7FA  01000000           [1478] (1)
A7FE  01000000           [1479] (1)
A802  01000000           [1480] (1)
A806  01000000           [1481] (1)
A80A  01000000           [1482] (1)
A80E  01000000           [1483] (1)
A812  01000000           [1484] (1)
A816  01000000           [1485] (1)
A81A  01000000           [1486] (1)
A81E  01000000           [1487] (1)
A822  01000000           [1488] (1)
A826  01000000           [1489] (1)
A82A  01000000           [1490] (1)
A82E  01000000           [1491] (1)
A832  01000000           [1492] (1)
A836  01000000           [1493] (1)
A83A  01000000           [1494] (1)
A83E  01000000           [1495] (1)
A842  01000000           [1496] (1)
A846  01000000           [1497] (1)
A84A  01000000           [1498] (1)
A84E  01000000           [1499] (1)
A852  01000000           [1500] (1)
A856  01000000           [1501] (1)
A85A  01000000           [1502] (1)
A85E  01000000           [1503] (1)
A862  01000000           [1504] (1)
A866  01000000           [1505] (1)
A86A  01000000           [1506] (1)
A86E  01000000           [1507] (1)
A872  01000000           [1508] (1)
A876  01000000           [1509] (1)
A87A  01000000           [1510] (1)
A87E  01000000           [1511] (1)
A882  01000000           [1512] (1)
A886  01000000           [1513] (1)
A88A  01000000           [1514] (1)
A88E  01000000           [1515] (1)
A892  01000000           [1516] (1)
A896  01000000           [1517] (1)
A89A  01000000           [1518] (1)
A89E  01000000           [1519] (1)
A8A2  01000000           [1520] (1)
A8A6  01000000           [1521] (1)
A8AA  01000000           [1522] (1)
A8AE  01000000           [1523] (1)
A8B2  01000000           [1524] (1)
A8B6  01000000           [1525] (1)
A8BA  01000000           [1526] (1)
A8BE  01000000           [1527] (1)
A8C2  01000000           [1528] (1)
A8C6  01000000           [1529] (1)
A8CA  01000000           [1530] (1)
A8CE  01000000           [1531] (1)
A8D2  01000000           [1532] (1)
A8D6  01000000           [1533] (1)
A8DA  01000000           [1534] (1)
A8DE  01000000           [1535] (1)
A8E2  01000000           [1536] (1)
A8E6  01000000           [1537] (1)
A8EA  01000000           [1538] (1)
A8EE  01000000           [1539] (1)
A8F2  01000000           [1540] (1)
A8F6  01000000           [1541] (1)
A8FA  01000000           [1542] (1)
A8FE  01000000           [1543] (1)
A902  01000000           [1544] (1)
A906  01000000           [1545] (1)
A90A  01000000           [1546] (1)
A90E  01000000           [1547] (1)
A912  01000000           [1548] (1)
A916  01000000           [1549] (1)
A91A  01000000           [1550] (1)
A91E  01000000           [1551] (1)
A922  01000000           [1552] (1)
A926  01000000           [1553] (1)
A92A  01000000           [1554] (1)
A92E  01000000           [1555] (1)
A932  01000000           [1556] (1)
A936  01000000           [1557] (1)
A93A  01000000           [1558] (1)
A93E  01000000           [1559] (1)
A942  01000000           [1560] (1)
A946  01000000           [1561] (1)
A94A  01000000           [1562] (1)
A94E  01000000           [1563] (1)
A952  01000000           [1564] (1)
A956  01000000           [1565] (1)
A95A  01000000           [1566] (1)
A95E  01000000           [1567] (1)
A962  01000000           [1568] (1)
A966  01000000           [1569] (1)
A96A  01000000           [1570] (1)
A96E  01000000           [1571] (1)
A972  01000000           [1572] (1)
A976  01000000           [1573] (1)
A97A  01000000           [1574] (1)
A97E  01000000           [1575] (1)
A982  01000000           [1576] (1)
A986  01000000           [1577] (1)
A98A  01000000           [1578] (1)
A98E  01000000           [1579] (1)
A992  01000000           [1580] (1)
A996  01000000           [1581] (1)
A99A  01000000           [1582] (1)
A99E  01000000           [1583] (1)
A9A2  01000000           [1584] (1)
A9A6  01000000           [1585] (1)
A9AA  01000000           [1586] (1)
A9AE  01000000           [1587] (1)
A9B2  01000000           [1588] (1)
A9B6  01000000           [1589] (1)
A9BA  01000000           [1590] (1)
A9BE  01000000           [1591] (1)
A9C2  01000000           [1592] (1)
A9C6  01000000           [1593] (1)
A9CA  01000000           [1594] (1)
A9CE  01000000           [1595] (1)
A9D2  01000000           [1596] (1)
A9D6  01000000           [1597] (1)
A9DA  01000000           [1598] (1)
A9DE  01000000           [1599] (1)
A9E2  01000000           [1600] (1)
A9E6  01000000           [1601] (1)
A9EA  01000000           [1602] (1)
A9EE  01000000           [1603] (1)
A9F2  01000000           [1604] (1)
A9F6  01000000           [1605] (1)
A9FA  01000000           [1606] (1)
A9FE  01000000           [1607] (1)
AA02  01000000           [1608] (1)
AA06  01000000           [1609] (1)
AA0A  01000000           [1610] (1)
AA0E  01000000           [1611] (1)
AA12  01000000           [1612] (1)
AA16  01000000           [1613] (1)
AA1A  01000000           [1614] (1)
AA1E  01000000           [1615] (1)
AA22  01000000           [1616] (1)
AA26  01000000           [1617] (1)
AA2A  01000000           [1618] (1)
AA2E  01000000           [1619] (1)
AA32  01000000           [1620] (1)
AA36  01000000           [1621] (1)
AA3A  01000000           [1622] (1)
AA3E  01000000           [1623] (1)
AA42  01000000           [1624] (1)
AA46  01000000           [1625] (1)
AA4A  01000000           [1626] (1)
AA4E  01000000           [1627] (1)
AA52  01000000           [1628] (1)
AA56  01000000           [1629] (1)
AA5A  01000000           [1630] (1)
AA5E  01000000           [1631] (1)
AA62  01000000           [1632] (1)
AA66  01000000           [1633] (1)
AA6A  01000000           [1634] (1)
AA6E  01000000           [1635] (1)
AA72  01000000           [1636] (1)
AA76  01000000           [1637] (1)
AA7A  01000000           [1638] (1)
AA7E  01000000           [1639] (1)
AA82  01000000           [1640] (1)
AA86  01000000           [1641] (1)
AA8A  01000000           [1642] (1)
AA8E  01000000           [1643] (1)
AA92  01000000           [1644] (1)
AA96  01000000           [1645] (1)
AA9A  01000000           [1646] (1)
AA9E  01000000           [1647] (1)
AAA2  01000000           [1648] (1)
AAA6  01000000           [1649] (1)
AAAA  01000000           [1650] (1)
AAAE  01000000           [1651] (1)
AAB2  01000000           [1652] (1)
AAB6  01000000           [1653] (1)
AABA  01000000           [1654] (1)
AABE  01000000           [1655] (1)
AAC2  01000000           [1656] (1)
AAC6  01000000           [1657] (1)
AACA  01000000           [1658] (1)
AACE  01000000           [1659] (1)
AAD2  01000000           [1660] (1)
AAD6  01000000           [1661] (1)
AADA  01000000           [1662] (1)
AADE  01000000           [1663] (1)
AAE2  01000000           [1664] (1)
AAE6  01000000           [1665] (1)
AAEA  01000000           [1666] (1)
AAEE  01000000           [1667] (1)
AAF2  01000000           [1668] (1)
AAF6  01000000           [1669] (1)
AAFA  01000000           [1670] (1)
AAFE  01000000           [1671] (1)
AB02  01000000           [1672] (1)
AB06  01000000           [1673] (1)
AB0A  01000000           [1674] (1)
AB0E  01000000           [1675] (1)
AB12  01000000           [1676] (1)
AB16  01000000           [1677] (1)
AB1A  01000000           [1678] (1)
AB1E  01000000           [1679] (1)
AB22  01000000           [1680] (1)
AB26  01000000           [1681] (1)
AB2A  01000000           [1682] (1)
AB2E  01000000           [1683] (1)
AB32  01000000           [1684] (1)
AB36  01000000           [1685] (1)
AB3A  01000000           [1686] (1)
AB3E  01000000           [1687] (1)
AB42  01000000           [1688] (1)
AB46  01000000           [1689] (1)
AB4A  01000000           [1690] (1)
AB4E  01000000           [1691] (1)
AB52  01000000           [1692] (1)
AB56  01000000           [1693] (1)
AB5A  01000000           [1694] (1)
AB5E  01000000           [1695] (1)
AB62  01000000           [1696] (1)
AB66  01000000           [1697] (1)
AB6A  01000000           [1698] (1)
AB6E  01000000           [1699] (1)
AB72  01000000           [1700] (1)
AB76  01000000           [1701] (1)
AB7A  01000000           [1702] (1)
AB7E  01000000           [1703] (1)
AB82  01000000           [1704] (1)
AB86  01000000           [1705] (1)
AB8A  01000000           [1706] (1)
AB8E  01000000           [1707] (1)
AB92  01000000           [1708] (1)
AB96  01000000           [1709] (1)
AB9A  01000000           [1710] (1)
AB9E  01000000           [1711] (1)
ABA2  01000000           [1712] (1)
ABA6  01000000           [1713] (1)
ABAA  01000000           [1714] (1)
ABAE  01000000           [1715] (1)
ABB2  01000000           [1716] (1)
ABB6  01000000           [1717] (1)
ABBA  01000000           [1718] (1)
ABBE  01000000           [1719] (1)
ABC2  01000000           [1720] (1)
ABC6  01000000           [1721] (1)
ABCA  01000000           [1722] (1)
ABCE  01000000           [1723] (1)
ABD2  01000000           [1724] (1)
ABD6  01000000           [1725] (1)
ABDA  01000000           [1726] (1)
ABDE  01000000           [1727] (1)
ABE2  01000000           [1728] (1)
ABE6  01000000           [1729] (1)
ABEA  01000000           [1730] (1)
ABEE  01000000           [1731] (1)
ABF2  01000000           [1732] (1)
ABF6  01000000           [1733] (1)
ABFA  01000000           [1734] (1)
ABFE  01000000           [1735] (1)
AC02  01000000           [1736] (1)
AC06  01000000           [1737] (1)
AC0A  01000000           [1738] (1)
AC0E  01000000           [1739] (1)
AC12  01000000           [1740] (1)
AC16  01000000           [1741] (1)
AC1A  01000000           [1742] (1)
AC1E  01000000           [1743] (1)
AC22  01000000           [1744] (1)
AC26  01000000           [1745] (1)
AC2A  01000000           [1746] (1)
AC2E  01000000           [1747] (1)
AC32  01000000           [1748] (1)
AC36  01000000           [1749] (1)
AC3A  01000000           [1750] (1)
AC3E  01000000           [1751] (1)
AC42  01000000           [1752] (1)
AC46  01000000           [1753] (1)
AC4A  01000000           [1754] (1)
AC4E  01000000           [1755] (1)
AC52  01000000           [1756] (1)
AC56  01000000           [1757] (1)
AC5A  01000000           [1758] (1)
AC5E  01000000           [1759] (1)
AC62  01000000           [1760] (1)
AC66  01000000           [1761] (1)
AC6A  01000000           [1762] (1)
AC6E  01000000           [1763] (1)
AC72  01000000           [1764] (1)
AC76  01000000           [1765] (1)
AC7A  01000000           [1766] (1)
AC7E  01000000           [1767] (1)
AC82  01000000           [1768] (1)
AC86  01000000           [1769] (1)
AC8A  01000000           [1770] (1)
AC8E  01000000           [1771] (1)
AC92  01000000           [1772] (1)
AC96  01000000           [1773] (1)
AC9A  01000000           [1774] (1)
AC9E  01000000           [1775] (1)
ACA2  01000000           [1776] (1)
ACA6  01000000           [1777] (1)
ACAA  01000000           [1778] (1)
ACAE  01000000           [1779] (1)
ACB2  01000000           [1780] (1)
ACB6  01000000           [1781] (1)
ACBA  01000000           [1782] (1)
ACBE  01000000           [1783] (1)
ACC2  01000000           [1784] (1)
ACC6  01000000           [1785] (1)
ACCA  01000000           [1786] (1)
ACCE  01000000           [1787] (1)
ACD2  01000000           [1788] (1)
ACD6  01000000           [1789] (1)
ACDA  01000000           [1790] (1)
ACDE  01000000           [1791] (1)
ACE2  01000000           [1792] (1)
ACE6  01000000           [1793] (1)
ACEA  01000000           [1794] (1)
ACEE  01000000           [1795] (1)
ACF2  01000000           [1796] (1)
ACF6  01000000           [1797] (1)
ACFA  01000000           [1798] (1)
ACFE  01000000           [1799] (1)
AD02  01000000           [1800] (1)
AD06  01000000           [1801] (1)
AD0A  01000000           [1802] (1)
AD0E  01000000           [1803] (1)
AD12  01000000           [1804] (1)
AD16  01000000           [1805] (1)
AD1A  01000000           [1806] (1)
AD1E  01000000           [1807] (1)
AD22  01000000           [1808] (1)
AD26  01000000           [1809] (1)
AD2A  01000000           [1810] (1)
AD2E  01000000           [1811] (1)
AD32  01000000           [1812] (1)
AD36  01000000           [1813] (1)
AD3A  01000000           [1814] (1)
AD3E  01000000           [1815] (1)
AD42  01000000           [1816] (1)
AD46  01000000           [1817] (1)
AD4A  01000000           [1818] (1)
AD4E  01000000           [1819] (1)
AD52  01000000           [1820] (1)
AD56  01000000           [1821] (1)
AD5A  01000000           [1822] (1)
AD5E  01000000           [1823] (1)
AD62  01000000           [1824] (1)
AD66  01000000           [1825] (1)
AD6A  01000000           [1826] (1)
AD6E  01000000           [1827] (1)
AD72  01000000           [1828] (1)
AD76  01000000           [1829] (1)
AD7A  01000000           [1830] (1)
AD7E  01000000           [1831] (1)
AD82  01000000           [1832] (1)
AD86  01000000           [1833] (1)
AD8A  01000000           [1834] (1)
AD8E  01000000           [1835] (1)
AD92  01000000           [1836] (1)
AD96  01000000           [1837] (1)
AD9A  01000000           [1838] (1)
AD9E  01000000           [1839] (1)
ADA2  01000000           [1840] (1)
ADA6  01000000           [1841] (1)
ADAA  01000000           [1842] (1)
ADAE  01000000           [1843] (1)
ADB2  01000000           [1844] (1)
ADB6  01000000           [1845] (1)
ADBA  01000000           [1846] (1)
ADBE  01000000           [1847] (1)
ADC2  01000000           [1848] (1)
ADC6  01000000           [1849] (1)
ADCA  01000000           [1850] (1)
ADCE  01000000           [1851] (1)
ADD2  01000000           [1852] (1)
ADD6  01000000           [1853] (1)
ADDA  01000000           [1854] (1)
ADDE  01000000           [1855] (1)
ADE2  01000000           [1856] (1)
ADE6  01000000           [1857] (1)
ADEA  01000000           [1858] (1)
ADEE  01000000           [1859] (1)
ADF2  01000000           [1860] (1)
ADF6  01000000           [1861] (1)
ADFA  01000000           [1862] (1)
ADFE  01000000           [1863] (1)
AE02  01000000           [1864] (1)
AE06  01000000           [1865] (1)
AE0A  01000000           [1866] (1)
AE0E  01000000           [1867] (1)
AE12  01000000           [1868] (1)
AE16  01000000           [1869] (1)
AE1A  01000000           [1870] (1)
AE1E  01000000           [1871] (1)
AE22  01000000           [1872] (1)
AE26  01000000           [1873] (1)
AE2A  01000000           [1874] (1)
AE2E  01000000           [1875] (1)
AE32  01000000           [1876] (1)
AE36  01000000           [1877] (1)
AE3A  01000000           [1878] (1)
AE3E  01000000           [1879] (1)
AE42  01000000           [1880] (1)
AE46  01000000           [1881] (1)
AE4A  01000000           [1882] (1)
AE4E  01000000           [1883] (1)
AE52  01000000           [1884] (1)
AE56  01000000           [1885] (1)
AE5A  01000000           [1886] (1)
AE5E  01000000           [1887] (1)
AE62  01000000           [1888] (1)
AE66  01000000           [1889] (1)
AE6A  01000000           [1890] (1)
AE6E  01000000           [1891] (1)
AE72  01000000           [1892] (1)
AE76  01000000           [1893] (1)
AE7A  01000000           [1894] (1)
AE7E  01000000           [1895] (1)
AE82  01000000           [1896] (1)
AE86  01000000           [1897] (1)
AE8A  01000000           [1898] (1)
AE8E  01000000           [1899] (1)
AE92  01000000           [1900] (1)
AE96  01000000           [1901] (1)
AE9A  01000000           [1902] (1)
AE9E  01000000           [1903] (1)
AEA2  01000000           [1904] (1)
AEA6  01000000           [1905] (1)
AEAA  01000000           [1906] (1)
AEAE  01000000           [1907] (1)
AEB2  01000000           [1908] (1)
AEB6  01000000           [1909] (1)
AEBA  01000000           [1910] (1)
AEBE  01000000           [1911] (1)
AEC2  01000000           [1912] (1)
AEC6  01000000           [1913] (1)
AECA  01000000           [1914] (1)
AECE  01000000           [1915] (1)
AED2  01000000           [1916] (1)
AED6  01000000           [1917] (1)
AEDA  01000000           [1918] (1)
AEDE  01000000           [1919] (1)
AEE2  01000000           [1920] (1)
                         * locals:
AEE6  29010000           sizelocvars (297)
AEEA  04000000           string size (4)
AEEE  61726700           "arg\0"
                         local [0]: arg
AEF2  00000000             startpc (0)
AEF6  7F070000             endpc   (1919)
AEFA  05000000           string size (5)
AEFE  7631303000         "v100\0"
                         local [1]: v100
AF03  01000000             startpc (1)
AF07  7F070000             endpc   (1919)
AF0B  05000000           string size (5)
AF0F  7631303100         "v101\0"
                         local [2]: v101
AF14  02000000             startpc (2)
AF18  7F070000             endpc   (1919)
AF1C  05000000           string size (5)
AF20  7631303200         "v102\0"
                         local [3]: v102
AF25  03000000             startpc (3)
AF29  7F070000             endpc   (1919)
AF2D  05000000           string size (5)
AF31  7631303300         "v103\0"
                         local [4]: v103
AF36  04000000             startpc (4)
AF3A  7F070000             endpc   (1919)
AF3E  05000000           string size (5)
AF42  7631303400         "v104\0"
                         local [5]: v104
AF47  05000000             startpc (5)
AF4B  7F070000             endpc   (1919)
AF4F  05000000           string size (5)
AF53  7631303500         "v105\0"
                         local [6]: v105
AF58  06000000             startpc (6)
AF5C  7F070000             endpc   (1919)
AF60  05000000           string size (5)
AF64  7631303600         "v106\0"
                         local [7]: v106
AF69  07000000             startpc (7)
AF6D  7F070000             endpc   (1919)
AF71  05000000           string size (5)
AF75  7631303700         "v107\0"
                         local [8]: v107
AF7A  0A000000             startpc (10)
AF7E  7F070000             endpc   (1919)
AF82  05000000           string size (5)
AF86  7631303800         "v108\0"
                         local [9]: v108
AF8B  0F000000             startpc (15)
AF8F  7F070000             endpc   (1919)
AF93  05000000           string size (5)
AF97  7631303900         "v109\0"
                         local [10]: v109
AF9C  10000000             startpc (16)
AFA0  7F070000             endpc   (1919)
AFA4  05000000           string size (5)
AFA8  7631313000         "v110\0"
                         local [11]: v110
AFAD  11000000             startpc (17)
AFB1  7F070000             endpc   (1919)
AFB5  0C000000           string size (12)
AFB9  28666F7220696E64+  "(for ind"
AFC1  65782900           "ex)\0"
                         local [12]: (for index)
AFC5  14000000             startpc (20)
AFC9  20000000             endpc   (32)
AFCD  0C000000           string size (12)
AFD1  28666F72206C696D+  "(for lim"
AFD9  69742900           "it)\0"
                         local [13]: (for limit)
AFDD  14000000             startpc (20)
AFE1  20000000             endpc   (32)
AFE5  0B000000           string size (11)
AFE9  28666F7220737465+  "(for ste"
AFF1  702900             "p)\0"
                         local [14]: (for step)
AFF4  14000000             startpc (20)
AFF8  20000000             endpc   (32)
AFFC  05000000           string size (5)
B000  7631313600         "v116\0"
                         local [15]: v116
B005  15000000             startpc (21)
B009  1F000000             endpc   (31)
B00D  05000000           string size (5)
B011  7631313100         "v111\0"
                         local [16]: v111
B016  23000000             startpc (35)
B01A  7F070000             endpc   (1919)
B01E  05000000           string size (5)
B022  7631313200         "v112\0"
                         local [17]: v112
B027  24000000             startpc (36)
B02B  7F070000             endpc   (1919)
B02F  05000000           string size (5)
B033  7631313300         "v113\0"
                         local [18]: v113
B038  24000000             startpc (36)
B03C  7F070000             endpc   (1919)
B040  05000000           string size (5)
B044  7631363900         "v169\0"
                         local [19]: v169
B049  58000000             startpc (88)
B04D  65000000             endpc   (101)
B051  05000000           string size (5)
B055  7631373000         "v170\0"
                         local [20]: v170
B05A  59000000             startpc (89)
B05E  65000000             endpc   (101)
B062  05000000           string size (5)
B066  7631343400         "v144\0"
                         local [21]: v144
B06B  72000000             startpc (114)
B06F  80000000             endpc   (128)
B073  05000000           string size (5)
B077  7631343500         "v145\0"
                         local [22]: v145
B07C  73000000             startpc (115)
B080  80000000             endpc   (128)
B084  05000000           string size (5)
B088  7631373200         "v172\0"
                         local [23]: v172
B08D  84000000             startpc (132)
B091  AB000000             endpc   (171)
B095  05000000           string size (5)
B099  7631373300         "v173\0"
                         local [24]: v173
B09E  85000000             startpc (133)
B0A2  AB000000             endpc   (171)
B0A6  05000000           string size (5)
B0AA  7631373400         "v174\0"
                         local [25]: v174
B0AF  85000000             startpc (133)
B0B3  AB000000             endpc   (171)
B0B7  05000000           string size (5)
B0BB  7631373500         "v175\0"
                         local [26]: v175
B0C0  85000000             startpc (133)
B0C4  AB000000             endpc   (171)
B0C8  05000000           string size (5)
B0CC  7631373600         "v176\0"
                         local [27]: v176
B0D1  85000000             startpc (133)
B0D5  AB000000             endpc   (171)
B0D9  0C000000           string size (12)
B0DD  28666F7220696E64+  "(for ind"
B0E5  65782900           "ex)\0"
                         local [28]: (for index)
B0E9  9F000000             startpc (159)
B0ED  A9000000             endpc   (169)
B0F1  0C000000           string size (12)
B0F5  28666F72206C696D+  "(for lim"
B0FD  69742900           "it)\0"
                         local [29]: (for limit)
B101  9F000000             startpc (159)
B105  A9000000             endpc   (169)
B109  0B000000           string size (11)
B10D  28666F7220737465+  "(for ste"
B115  702900             "p)\0"
                         local [30]: (for step)
B118  9F000000             startpc (159)
B11C  A9000000             endpc   (169)
B120  05000000           string size (5)
B124  7634373300         "v473\0"
                         local [31]: v473
B129  A0000000             startpc (160)
B12D  A8000000             endpc   (168)
B131  05000000           string size (5)
B135  7634373400         "v474\0"
                         local [32]: v474
B13A  A1000000             startpc (161)
B13E  A8000000             endpc   (168)
B142  05000000           string size (5)
B146  7631373700         "v177\0"
                         local [33]: v177
B14B  AD000000             startpc (173)
B14F  B3000000             endpc   (179)
B153  05000000           string size (5)
B157  7631373800         "v178\0"
                         local [34]: v178
B15C  B9000000             startpc (185)
B160  C5000000             endpc   (197)
B164  05000000           string size (5)
B168  7631373900         "v179\0"
                         local [35]: v179
B16D  BA000000             startpc (186)
B171  C5000000             endpc   (197)
B175  05000000           string size (5)
B179  7631383100         "v181\0"
                         local [36]: v181
B17E  D4000000             startpc (212)
B182  FB000000             endpc   (251)
B186  05000000           string size (5)
B18A  7631383200         "v182\0"
                         local [37]: v182
B18F  D5000000             startpc (213)
B193  FB000000             endpc   (251)
B197  05000000           string size (5)
B19B  7631383300         "v183\0"
                         local [38]: v183
B1A0  D5000000             startpc (213)
B1A4  FB000000             endpc   (251)
B1A8  05000000           string size (5)
B1AC  7631383400         "v184\0"
                         local [39]: v184
B1B1  D5000000             startpc (213)
B1B5  FB000000             endpc   (251)
B1B9  05000000           string size (5)
B1BD  7631383500         "v185\0"
                         local [40]: v185
B1C2  D5000000             startpc (213)
B1C6  FB000000             endpc   (251)
B1CA  0C000000           string size (12)
B1CE  28666F7220696E64+  "(for ind"
B1D6  65782900           "ex)\0"
                         local [41]: (for index)
B1DA  DA000000             startpc (218)
B1DE  E4000000             endpc   (228)
B1E2  0C000000           string size (12)
B1E6  28666F72206C696D+  "(for lim"
B1EE  69742900           "it)\0"
                         local [42]: (for limit)
B1F2  DA000000             startpc (218)
B1F6  E4000000             endpc   (228)
B1FA  0B000000           string size (11)
B1FE  28666F7220737465+  "(for ste"
B206  702900             "p)\0"
                         local [43]: (for step)
B209  DA000000             startpc (218)
B20D  E4000000             endpc   (228)
B211  05000000           string size (5)
B215  7634373500         "v475\0"
                         local [44]: v475
B21A  DB000000             startpc (219)
B21E  E3000000             endpc   (227)
B222  05000000           string size (5)
B226  7634373600         "v476\0"
                         local [45]: v476
B22B  DC000000             startpc (220)
B22F  E3000000             endpc   (227)
B233  05000000           string size (5)
B237  7631343600         "v146\0"
                         local [46]: v146
B23C  03010000             startpc (259)
B240  08010000             endpc   (264)
B244  05000000           string size (5)
B248  7631383800         "v188\0"
                         local [47]: v188
B24D  13010000             startpc (275)
B251  21010000             endpc   (289)
B255  05000000           string size (5)
B259  7631383900         "v189\0"
                         local [48]: v189
B25E  14010000             startpc (276)
B262  21010000             endpc   (289)
B266  05000000           string size (5)
B26A  7631393000         "v190\0"
                         local [49]: v190
B26F  27010000             startpc (295)
B273  35010000             endpc   (309)
B277  05000000           string size (5)
B27B  7631393100         "v191\0"
                         local [50]: v191
B280  28010000             startpc (296)
B284  35010000             endpc   (309)
B288  05000000           string size (5)
B28C  7631393400         "v194\0"
                         local [51]: v194
B291  40010000             startpc (320)
B295  6A010000             endpc   (362)
B299  05000000           string size (5)
B29D  7631393500         "v195\0"
                         local [52]: v195
B2A2  41010000             startpc (321)
B2A6  6A010000             endpc   (362)
B2AA  0C000000           string size (12)
B2AE  28666F7220696E64+  "(for ind"
B2B6  65782900           "ex)\0"
                         local [53]: (for index)
B2BA  44010000             startpc (324)
B2BE  6A010000             endpc   (362)
B2C2  0C000000           string size (12)
B2C6  28666F72206C696D+  "(for lim"
B2CE  69742900           "it)\0"
                         local [54]: (for limit)
B2D2  44010000             startpc (324)
B2D6  6A010000             endpc   (362)
B2DA  0B000000           string size (11)
B2DE  28666F7220737465+  "(for ste"
B2E6  702900             "p)\0"
                         local [55]: (for step)
B2E9  44010000             startpc (324)
B2ED  6A010000             endpc   (362)
B2F1  05000000           string size (5)
B2F5  7633363200         "v362\0"
                         local [56]: v362
B2FA  45010000             startpc (325)
B2FE  69010000             endpc   (361)
B302  05000000           string size (5)
B306  7633363300         "v363\0"
                         local [57]: v363
B30B  46010000             startpc (326)
B30F  69010000             endpc   (361)
B313  05000000           string size (5)
B317  7633363400         "v364\0"
                         local [58]: v364
B31C  47010000             startpc (327)
B320  69010000             endpc   (361)
B324  0C000000           string size (12)
B328  28666F7220696E64+  "(for ind"
B330  65782900           "ex)\0"
                         local [59]: (for index)
B334  4D010000             startpc (333)
B338  67010000             endpc   (359)
B33C  0C000000           string size (12)
B340  28666F72206C696D+  "(for lim"
B348  69742900           "it)\0"
                         local [60]: (for limit)
B34C  4D010000             startpc (333)
B350  67010000             endpc   (359)
B354  0B000000           string size (11)
B358  28666F7220737465+  "(for ste"
B360  702900             "p)\0"
                         local [61]: (for step)
B363  4D010000             startpc (333)
B367  67010000             endpc   (359)
B36B  05000000           string size (5)
B36F  7635323100         "v521\0"
                         local [62]: v521
B374  4E010000             startpc (334)
B378  66010000             endpc   (358)
B37C  05000000           string size (5)
B380  7635323200         "v522\0"
                         local [63]: v522
B385  4F010000             startpc (335)
B389  66010000             endpc   (358)
B38D  05000000           string size (5)
B391  7635323300         "v523\0"
                         local [64]: v523
B396  50010000             startpc (336)
B39A  66010000             endpc   (358)
B39E  05000000           string size (5)
B3A2  7635323400         "v524\0"
                         local [65]: v524
B3A7  50010000             startpc (336)
B3AB  66010000             endpc   (358)
B3AF  05000000           string size (5)
B3B3  7635323500         "v525\0"
                         local [66]: v525
B3B8  50010000             startpc (336)
B3BC  66010000             endpc   (358)
B3C0  05000000           string size (5)
B3C4  7635373300         "v573\0"
                         local [67]: v573
B3C9  58010000             startpc (344)
B3CD  5F010000             endpc   (351)
B3D1  05000000           string size (5)
B3D5  7631393600         "v196\0"
                         local [68]: v196
B3DA  6C010000             startpc (364)
B3DE  A0010000             endpc   (416)
B3E2  05000000           string size (5)
B3E6  7631393700         "v197\0"
                         local [69]: v197
B3EB  6D010000             startpc (365)
B3EF  A0010000             endpc   (416)
B3F3  05000000           string size (5)
B3F7  7631393800         "v198\0"
                         local [70]: v198
B3FC  6D010000             startpc (365)
B400  A0010000             endpc   (416)
B404  0C000000           string size (12)
B408  28666F7220696E64+  "(for ind"
B410  65782900           "ex)\0"
                         local [71]: (for index)
B414  72010000             startpc (370)
B418  98010000             endpc   (408)
B41C  0C000000           string size (12)
B420  28666F72206C696D+  "(for lim"
B428  69742900           "it)\0"
                         local [72]: (for limit)
B42C  72010000             startpc (370)
B430  98010000             endpc   (408)
B434  0B000000           string size (11)
B438  28666F7220737465+  "(for ste"
B440  702900             "p)\0"
                         local [73]: (for step)
B443  72010000             startpc (370)
B447  98010000             endpc   (408)
B44B  05000000           string size (5)
B44F  7634373800         "v478\0"
                         local [74]: v478
B454  73010000             startpc (371)
B458  97010000             endpc   (407)
B45C  05000000           string size (5)
B460  7634373900         "v479\0"
                         local [75]: v479
B465  74010000             startpc (372)
B469  97010000             endpc   (407)
B46D  05000000           string size (5)
B471  7634383000         "v480\0"
                         local [76]: v480
B476  75010000             startpc (373)
B47A  97010000             endpc   (407)
B47E  0C000000           string size (12)
B482  28666F7220696E64+  "(for ind"
B48A  65782900           "ex)\0"
                         local [77]: (for index)
B48E  7B010000             startpc (379)
B492  95010000             endpc   (405)
B496  0C000000           string size (12)
B49A  28666F72206C696D+  "(for lim"
B4A2  69742900           "it)\0"
                         local [78]: (for limit)
B4A6  7B010000             startpc (379)
B4AA  95010000             endpc   (405)
B4AE  0B000000           string size (11)
B4B2  28666F7220737465+  "(for ste"
B4BA  702900             "p)\0"
                         local [79]: (for step)
B4BD  7B010000             startpc (379)
B4C1  95010000             endpc   (405)
B4C5  05000000           string size (5)
B4C9  7635363400         "v564\0"
                         local [80]: v564
B4CE  7C010000             startpc (380)
B4D2  94010000             endpc   (404)
B4D6  05000000           string size (5)
B4DA  7635363500         "v565\0"
                         local [81]: v565
B4DF  7D010000             startpc (381)
B4E3  94010000             endpc   (404)
B4E7  05000000           string size (5)
B4EB  7635363600         "v566\0"
                         local [82]: v566
B4F0  7E010000             startpc (382)
B4F4  94010000             endpc   (404)
B4F8  05000000           string size (5)
B4FC  7635363700         "v567\0"
                         local [83]: v567
B501  7E010000             startpc (382)
B505  94010000             endpc   (404)
B509  05000000           string size (5)
B50D  7635363800         "v568\0"
                         local [84]: v568
B512  7E010000             startpc (382)
B516  94010000             endpc   (404)
B51A  05000000           string size (5)
B51E  7635383000         "v580\0"
                         local [85]: v580
B523  86010000             startpc (390)
B527  8D010000             endpc   (397)
B52B  05000000           string size (5)
B52F  7631343800         "v148\0"
                         local [86]: v148
B534  A6010000             startpc (422)
B538  C3010000             endpc   (451)
B53C  05000000           string size (5)
B540  7631343900         "v149\0"
                         local [87]: v149
B545  A7010000             startpc (423)
B549  C3010000             endpc   (451)
B54D  05000000           string size (5)
B551  7631353000         "v150\0"
                         local [88]: v150
B556  A7010000             startpc (423)
B55A  C3010000             endpc   (451)
B55E  05000000           string size (5)
B562  7631353100         "v151\0"
                         local [89]: v151
B567  A7010000             startpc (423)
B56B  C3010000             endpc   (451)
B56F  05000000           string size (5)
B573  7631353200         "v152\0"
                         local [90]: v152
B578  A7010000             startpc (423)
B57C  C3010000             endpc   (451)
B580  0C000000           string size (12)
B584  28666F7220696E64+  "(for ind"
B58C  65782900           "ex)\0"
                         local [91]: (for index)
B590  BC010000             startpc (444)
B594  C1010000             endpc   (449)
B598  0C000000           string size (12)
B59C  28666F72206C696D+  "(for lim"
B5A4  69742900           "it)\0"
                         local [92]: (for limit)
B5A8  BC010000             startpc (444)
B5AC  C1010000             endpc   (449)
B5B0  0B000000           string size (11)
B5B4  28666F7220737465+  "(for ste"
B5BC  702900             "p)\0"
                         local [93]: (for step)
B5BF  BC010000             startpc (444)
B5C3  C1010000             endpc   (449)
B5C7  05000000           string size (5)
B5CB  7633393800         "v398\0"
                         local [94]: v398
B5D0  BD010000             startpc (445)
B5D4  C0010000             endpc   (448)
B5D8  05000000           string size (5)
B5DC  7631393900         "v199\0"
                         local [95]: v199
B5E1  C7010000             startpc (455)
B5E5  D2010000             endpc   (466)
B5E9  05000000           string size (5)
B5ED  7632303000         "v200\0"
                         local [96]: v200
B5F2  C8010000             startpc (456)
B5F6  D2010000             endpc   (466)
B5FA  05000000           string size (5)
B5FE  7632303100         "v201\0"
                         local [97]: v201
B603  D4010000             startpc (468)
B607  E2010000             endpc   (482)
B60B  05000000           string size (5)
B60F  7632303200         "v202\0"
                         local [98]: v202
B614  D5010000             startpc (469)
B618  E2010000             endpc   (482)
B61C  05000000           string size (5)
B620  7632303900         "v209\0"
                         local [99]: v209
B625  15020000             startpc (533)
B629  2D020000             endpc   (557)
B62D  05000000           string size (5)
B631  7632313000         "v210\0"
                         local [100]: v210
B636  16020000             startpc (534)
B63A  2D020000             endpc   (557)
B63E  05000000           string size (5)
B642  7632313100         "v211\0"
                         local [101]: v211
B647  17020000             startpc (535)
B64B  2D020000             endpc   (557)
B64F  05000000           string size (5)
B653  7632313200         "v212\0"
                         local [102]: v212
B658  1E020000             startpc (542)
B65C  2D020000             endpc   (557)
B660  0C000000           string size (12)
B664  28666F7220696E64+  "(for ind"
B66C  65782900           "ex)\0"
                         local [103]: (for index)
B670  21020000             startpc (545)
B674  26020000             endpc   (550)
B678  0C000000           string size (12)
B67C  28666F72206C696D+  "(for lim"
B684  69742900           "it)\0"
                         local [104]: (for limit)
B688  21020000             startpc (545)
B68C  26020000             endpc   (550)
B690  0B000000           string size (11)
B694  28666F7220737465+  "(for ste"
B69C  702900             "p)\0"
                         local [105]: (for step)
B69F  21020000             startpc (545)
B6A3  26020000             endpc   (550)
B6A7  05000000           string size (5)
B6AB  7633363600         "v366\0"
                         local [106]: v366
B6B0  22020000             startpc (546)
B6B4  25020000             endpc   (549)
B6B8  05000000           string size (5)
B6BC  7632313300         "v213\0"
                         local [107]: v213
B6C1  27020000             startpc (551)
B6C5  2D020000             endpc   (557)
B6C9  05000000           string size (5)
B6CD  7632313500         "v215\0"
                         local [108]: v215
B6D2  37020000             startpc (567)
B6D6  40020000             endpc   (576)
B6DA  05000000           string size (5)
B6DE  7632313600         "v216\0"
                         local [109]: v216
B6E3  38020000             startpc (568)
B6E7  40020000             endpc   (576)
B6EB  05000000           string size (5)
B6EF  7632313700         "v217\0"
                         local [110]: v217
B6F4  42020000             startpc (578)
B6F8  66020000             endpc   (614)
B6FC  05000000           string size (5)
B700  7632313800         "v218\0"
                         local [111]: v218
B705  43020000             startpc (579)
B709  66020000             endpc   (614)
B70D  05000000           string size (5)
B711  7632313900         "v219\0"
                         local [112]: v219
B716  43020000             startpc (579)
B71A  66020000             endpc   (614)
B71E  05000000           string size (5)
B722  7632323000         "v220\0"
                         local [113]: v220
B727  43020000             startpc (579)
B72B  66020000             endpc   (614)
B72F  05000000           string size (5)
B733  7632323100         "v221\0"
                         local [114]: v221
B738  43020000             startpc (579)
B73C  66020000             endpc   (614)
B740  0C000000           string size (12)
B744  28666F7220696E64+  "(for ind"
B74C  65782900           "ex)\0"
                         local [115]: (for index)
B750  54020000             startpc (596)
B754  5E020000             endpc   (606)
B758  0C000000           string size (12)
B75C  28666F72206C696D+  "(for lim"
B764  69742900           "it)\0"
                         local [116]: (for limit)
B768  54020000             startpc (596)
B76C  5E020000             endpc   (606)
B770  0B000000           string size (11)
B774  28666F7220737465+  "(for ste"
B77C  702900             "p)\0"
                         local [117]: (for step)
B77F  54020000             startpc (596)
B783  5E020000             endpc   (606)
B787  05000000           string size (5)
B78B  7634383100         "v481\0"
                         local [118]: v481
B790  55020000             startpc (597)
B794  5D020000             endpc   (605)
B798  05000000           string size (5)
B79C  7634383200         "v482\0"
                         local [119]: v482
B7A1  56020000             startpc (598)
B7A5  5D020000             endpc   (605)
B7A9  05000000           string size (5)
B7AD  7632323300         "v223\0"
                         local [120]: v223
B7B2  82020000             startpc (642)
B7B6  A1020000             endpc   (673)
B7BA  05000000           string size (5)
B7BE  7632323400         "v224\0"
                         local [121]: v224
B7C3  83020000             startpc (643)
B7C7  A1020000             endpc   (673)
B7CB  05000000           string size (5)
B7CF  7632323500         "v225\0"
                         local [122]: v225
B7D4  83020000             startpc (643)
B7D8  A1020000             endpc   (673)
B7DC  05000000           string size (5)
B7E0  7632323600         "v226\0"
                         local [123]: v226
B7E5  83020000             startpc (643)
B7E9  A1020000             endpc   (673)
B7ED  0C000000           string size (12)
B7F1  28666F7220696E64+  "(for ind"
B7F9  65782900           "ex)\0"
                         local [124]: (for index)
B7FD  BA020000             startpc (698)
B801  BD020000             endpc   (701)
B805  0C000000           string size (12)
B809  28666F72206C696D+  "(for lim"
B811  69742900           "it)\0"
                         local [125]: (for limit)
B815  BA020000             startpc (698)
B819  BD020000             endpc   (701)
B81D  0B000000           string size (11)
B821  28666F7220737465+  "(for ste"
B829  702900             "p)\0"
                         local [126]: (for step)
B82C  BA020000             startpc (698)
B830  BD020000             endpc   (701)
B834  05000000           string size (5)
B838  7633363900         "v369\0"
                         local [127]: v369
B83D  BB020000             startpc (699)
B841  BC020000             endpc   (700)
B845  05000000           string size (5)
B849  7632323800         "v228\0"
                         local [128]: v228
B84E  C1020000             startpc (705)
B852  C5020000             endpc   (709)
B856  05000000           string size (5)
B85A  7632323900         "v229\0"
                         local [129]: v229
B85F  C7020000             startpc (711)
B863  EE020000             endpc   (750)
B867  05000000           string size (5)
B86B  7632333000         "v230\0"
                         local [130]: v230
B870  C8020000             startpc (712)
B874  EE020000             endpc   (750)
B878  05000000           string size (5)
B87C  7632333100         "v231\0"
                         local [131]: v231
B881  C8020000             startpc (712)
B885  EE020000             endpc   (750)
B889  05000000           string size (5)
B88D  7632333200         "v232\0"
                         local [132]: v232
B892  C8020000             startpc (712)
B896  EE020000             endpc   (750)
B89A  05000000           string size (5)
B89E  7632333300         "v233\0"
                         local [133]: v233
B8A3  C8020000             startpc (712)
B8A7  EE020000             endpc   (750)
B8AB  0C000000           string size (12)
B8AF  28666F7220696E64+  "(for ind"
B8B7  65782900           "ex)\0"
                         local [134]: (for index)
B8BB  E2020000             startpc (738)
B8BF  EC020000             endpc   (748)
B8C3  0C000000           string size (12)
B8C7  28666F72206C696D+  "(for lim"
B8CF  69742900           "it)\0"
                         local [135]: (for limit)
B8D3  E2020000             startpc (738)
B8D7  EC020000             endpc   (748)
B8DB  0B000000           string size (11)
B8DF  28666F7220737465+  "(for ste"
B8E7  702900             "p)\0"
                         local [136]: (for step)
B8EA  E2020000             startpc (738)
B8EE  EC020000             endpc   (748)
B8F2  05000000           string size (5)
B8F6  7634383300         "v483\0"
                         local [137]: v483
B8FB  E3020000             startpc (739)
B8FF  EB020000             endpc   (747)
B903  05000000           string size (5)
B907  7634383400         "v484\0"
                         local [138]: v484
B90C  E4020000             startpc (740)
B910  EB020000             endpc   (747)
B914  05000000           string size (5)
B918  7632333400         "v234\0"
                         local [139]: v234
B91D  26030000             startpc (806)
B921  39030000             endpc   (825)
B925  05000000           string size (5)
B929  7632333500         "v235\0"
                         local [140]: v235
B92E  27030000             startpc (807)
B932  39030000             endpc   (825)
B936  05000000           string size (5)
B93A  7632333600         "v236\0"
                         local [141]: v236
B93F  27030000             startpc (807)
B943  39030000             endpc   (825)
B947  0C000000           string size (12)
B94B  28666F7220696E64+  "(for ind"
B953  65782900           "ex)\0"
                         local [142]: (for index)
B957  31030000             startpc (817)
B95B  37030000             endpc   (823)
B95F  0C000000           string size (12)
B963  28666F72206C696D+  "(for lim"
B96B  69742900           "it)\0"
                         local [143]: (for limit)
B96F  31030000             startpc (817)
B973  37030000             endpc   (823)
B977  0B000000           string size (11)
B97B  28666F7220737465+  "(for ste"
B983  702900             "p)\0"
                         local [144]: (for step)
B986  31030000             startpc (817)
B98A  37030000             endpc   (823)
B98E  05000000           string size (5)
B992  7634383500         "v485\0"
                         local [145]: v485
B997  32030000             startpc (818)
B99B  36030000             endpc   (822)
B99F  05000000           string size (5)
B9A3  7632343000         "v240\0"
                         local [146]: v240
B9A8  58030000             startpc (856)
B9AC  6F030000             endpc   (879)
B9B0  05000000           string size (5)
B9B4  7632343100         "v241\0"
                         local [147]: v241
B9B9  61030000             startpc (865)
B9BD  6F030000             endpc   (879)
B9C1  05000000           string size (5)
B9C5  7632343200         "v242\0"
                         local [148]: v242
B9CA  62030000             startpc (866)
B9CE  6F030000             endpc   (879)
B9D2  0C000000           string size (12)
B9D6  28666F7220696E64+  "(for ind"
B9DE  65782900           "ex)\0"
                         local [149]: (for index)
B9E2  65030000             startpc (869)
B9E6  6F030000             endpc   (879)
B9EA  0C000000           string size (12)
B9EE  28666F72206C696D+  "(for lim"
B9F6  69742900           "it)\0"
                         local [150]: (for limit)
B9FA  65030000             startpc (869)
B9FE  6F030000             endpc   (879)
BA02  0B000000           string size (11)
BA06  28666F7220737465+  "(for ste"
BA0E  702900             "p)\0"
                         local [151]: (for step)
BA11  65030000             startpc (869)
BA15  6F030000             endpc   (879)
BA19  05000000           string size (5)
BA1D  7633373100         "v371\0"
                         local [152]: v371
BA22  66030000             startpc (870)
BA26  6E030000             endpc   (878)
BA2A  05000000           string size (5)
BA2E  7633373200         "v372\0"
                         local [153]: v372
BA33  67030000             startpc (871)
BA37  6E030000             endpc   (878)
BA3B  05000000           string size (5)
BA3F  7632343300         "v243\0"
                         local [154]: v243
BA44  71030000             startpc (881)
BA48  85030000             endpc   (901)
BA4C  05000000           string size (5)
BA50  7632343400         "v244\0"
                         local [155]: v244
BA55  72030000             startpc (882)
BA59  85030000             endpc   (901)
BA5D  05000000           string size (5)
BA61  7632343500         "v245\0"
                         local [156]: v245
BA66  72030000             startpc (882)
BA6A  85030000             endpc   (901)
BA6E  0C000000           string size (12)
BA72  28666F7220696E64+  "(for ind"
BA7A  65782900           "ex)\0"
                         local [157]: (for index)
BA7E  7C030000             startpc (892)
BA82  81030000             endpc   (897)
BA86  0C000000           string size (12)
BA8A  28666F72206C696D+  "(for lim"
BA92  69742900           "it)\0"
                         local [158]: (for limit)
BA96  7C030000             startpc (892)
BA9A  81030000             endpc   (897)
BA9E  0B000000           string size (11)
BAA2  28666F7220737465+  "(for ste"
BAAA  702900             "p)\0"
                         local [159]: (for step)
BAAD  7C030000             startpc (892)
BAB1  81030000             endpc   (897)
BAB5  05000000           string size (5)
BAB9  7634383800         "v488\0"
                         local [160]: v488
BABE  7D030000             startpc (893)
BAC2  80030000             endpc   (896)
BAC6  05000000           string size (5)
BACA  7632343600         "v246\0"
                         local [161]: v246
BACF  89030000             startpc (905)
BAD3  96030000             endpc   (918)
BAD7  05000000           string size (5)
BADB  7632343700         "v247\0"
                         local [162]: v247
BAE0  8A030000             startpc (906)
BAE4  96030000             endpc   (918)
BAE8  05000000           string size (5)
BAEC  7632343800         "v248\0"
                         local [163]: v248
BAF1  98030000             startpc (920)
BAF5  A8030000             endpc   (936)
BAF9  05000000           string size (5)
BAFD  7632343900         "v249\0"
                         local [164]: v249
BB02  99030000             startpc (921)
BB06  A8030000             endpc   (936)
BB0A  05000000           string size (5)
BB0E  7632353000         "v250\0"
                         local [165]: v250
BB13  99030000             startpc (921)
BB17  A8030000             endpc   (936)
BB1B  05000000           string size (5)
BB1F  7632353100         "v251\0"
                         local [166]: v251
BB24  AE030000             startpc (942)
BB28  BB030000             endpc   (955)
BB2C  05000000           string size (5)
BB30  7632353200         "v252\0"
                         local [167]: v252
BB35  AF030000             startpc (943)
BB39  BB030000             endpc   (955)
BB3D  05000000           string size (5)
BB41  7632353500         "v255\0"
                         local [168]: v255
BB46  CE030000             startpc (974)
BB4A  DB030000             endpc   (987)
BB4E  05000000           string size (5)
BB52  7632353600         "v256\0"
                         local [169]: v256
BB57  CF030000             startpc (975)
BB5B  DB030000             endpc   (987)
BB5F  05000000           string size (5)
BB63  7632353700         "v257\0"
                         local [170]: v257
BB68  F0030000             startpc (1008)
BB6C  04040000             endpc   (1028)
BB70  05000000           string size (5)
BB74  7632353800         "v258\0"
                         local [171]: v258
BB79  F1030000             startpc (1009)
BB7D  04040000             endpc   (1028)
BB81  05000000           string size (5)
BB85  7632353900         "v259\0"
                         local [172]: v259
BB8A  F1030000             startpc (1009)
BB8E  04040000             endpc   (1028)
BB92  0C000000           string size (12)
BB96  28666F7220696E64+  "(for ind"
BB9E  65782900           "ex)\0"
                         local [173]: (for index)
BBA2  F6030000             startpc (1014)
BBA6  FB030000             endpc   (1019)
BBAA  0C000000           string size (12)
BBAE  28666F72206C696D+  "(for lim"
BBB6  69742900           "it)\0"
                         local [174]: (for limit)
BBBA  F6030000             startpc (1014)
BBBE  FB030000             endpc   (1019)
BBC2  0B000000           string size (11)
BBC6  28666F7220737465+  "(for ste"
BBCE  702900             "p)\0"
                         local [175]: (for step)
BBD1  F6030000             startpc (1014)
BBD5  FB030000             endpc   (1019)
BBD9  05000000           string size (5)
BBDD  7634383900         "v489\0"
                         local [176]: v489
BBE2  F7030000             startpc (1015)
BBE6  FA030000             endpc   (1018)
BBEA  05000000           string size (5)
BBEE  7632363200         "v262\0"
                         local [177]: v262
BBF3  15040000             startpc (1045)
BBF7  28040000             endpc   (1064)
BBFB  05000000           string size (5)
BBFF  7632363300         "v263\0"
                         local [178]: v263
BC04  16040000             startpc (1046)
BC08  28040000             endpc   (1064)
BC0C  05000000           string size (5)
BC10  7632363400         "v264\0"
                         local [179]: v264
BC15  16040000             startpc (1046)
BC19  28040000             endpc   (1064)
BC1D  0C000000           string size (12)
BC21  28666F7220696E64+  "(for ind"
BC29  65782900           "ex)\0"
                         local [180]: (for index)
BC2D  20040000             startpc (1056)
BC31  26040000             endpc   (1062)
BC35  0C000000           string size (12)
BC39  28666F72206C696D+  "(for lim"
BC41  69742900           "it)\0"
                         local [181]: (for limit)
BC45  20040000             startpc (1056)
BC49  26040000             endpc   (1062)
BC4D  0B000000           string size (11)
BC51  28666F7220737465+  "(for ste"
BC59  702900             "p)\0"
                         local [182]: (for step)
BC5C  20040000             startpc (1056)
BC60  26040000             endpc   (1062)
BC64  05000000           string size (5)
BC68  7634393000         "v490\0"
                         local [183]: v490
BC6D  21040000             startpc (1057)
BC71  25040000             endpc   (1061)
BC75  05000000           string size (5)
BC79  7632363500         "v265\0"
                         local [184]: v265
BC7E  2C040000             startpc (1068)
BC82  4B040000             endpc   (1099)
BC86  05000000           string size (5)
BC8A  7632363600         "v266\0"
                         local [185]: v266
BC8F  2D040000             startpc (1069)
BC93  4B040000             endpc   (1099)
BC97  05000000           string size (5)
BC9B  7632363700         "v267\0"
                         local [186]: v267
BCA0  2D040000             startpc (1069)
BCA4  4B040000             endpc   (1099)
BCA8  05000000           string size (5)
BCAC  7632363800         "v268\0"
                         local [187]: v268
BCB1  2D040000             startpc (1069)
BCB5  4B040000             endpc   (1099)
BCB9  05000000           string size (5)
BCBD  7632363900         "v269\0"
                         local [188]: v269
BCC2  5F040000             startpc (1119)
BCC6  83040000             endpc   (1155)
BCCA  05000000           string size (5)
BCCE  7632373000         "v270\0"
                         local [189]: v270
BCD3  60040000             startpc (1120)
BCD7  83040000             endpc   (1155)
BCDB  05000000           string size (5)
BCDF  7632373100         "v271\0"
                         local [190]: v271
BCE4  60040000             startpc (1120)
BCE8  83040000             endpc   (1155)
BCEC  05000000           string size (5)
BCF0  7632373200         "v272\0"
                         local [191]: v272
BCF5  60040000             startpc (1120)
BCF9  83040000             endpc   (1155)
BCFD  05000000           string size (5)
BD01  7632373300         "v273\0"
                         local [192]: v273
BD06  60040000             startpc (1120)
BD0A  83040000             endpc   (1155)
BD0E  0C000000           string size (12)
BD12  28666F7220696E64+  "(for ind"
BD1A  65782900           "ex)\0"
                         local [193]: (for index)
BD1E  77040000             startpc (1143)
BD22  81040000             endpc   (1153)
BD26  0C000000           string size (12)
BD2A  28666F72206C696D+  "(for lim"
BD32  69742900           "it)\0"
                         local [194]: (for limit)
BD36  77040000             startpc (1143)
BD3A  81040000             endpc   (1153)
BD3E  0B000000           string size (11)
BD42  28666F7220737465+  "(for ste"
BD4A  702900             "p)\0"
                         local [195]: (for step)
BD4D  77040000             startpc (1143)
BD51  81040000             endpc   (1153)
BD55  05000000           string size (5)
BD59  7634393100         "v491\0"
                         local [196]: v491
BD5E  78040000             startpc (1144)
BD62  80040000             endpc   (1152)
BD66  05000000           string size (5)
BD6A  7634393200         "v492\0"
                         local [197]: v492
BD6F  79040000             startpc (1145)
BD73  80040000             endpc   (1152)
BD77  05000000           string size (5)
BD7B  7632373600         "v276\0"
                         local [198]: v276
BD80  AC040000             startpc (1196)
BD84  FA040000             endpc   (1274)
BD88  05000000           string size (5)
BD8C  7632373700         "v277\0"
                         local [199]: v277
BD91  AD040000             startpc (1197)
BD95  FA040000             endpc   (1274)
BD99  05000000           string size (5)
BD9D  7632373800         "v278\0"
                         local [200]: v278
BDA2  AD040000             startpc (1197)
BDA6  FA040000             endpc   (1274)
BDAA  05000000           string size (5)
BDAE  7632373900         "v279\0"
                         local [201]: v279
BDB3  AD040000             startpc (1197)
BDB7  FA040000             endpc   (1274)
BDBB  0C000000           string size (12)
BDBF  28666F7220696E64+  "(for ind"
BDC7  65782900           "ex)\0"
                         local [202]: (for index)
BDCB  B8040000             startpc (1208)
BDCF  D9040000             endpc   (1241)
BDD3  0C000000           string size (12)
BDD7  28666F72206C696D+  "(for lim"
BDDF  69742900           "it)\0"
                         local [203]: (for limit)
BDE3  B8040000             startpc (1208)
BDE7  D9040000             endpc   (1241)
BDEB  0B000000           string size (11)
BDEF  28666F7220737465+  "(for ste"
BDF7  702900             "p)\0"
                         local [204]: (for step)
BDFA  B8040000             startpc (1208)
BDFE  D9040000             endpc   (1241)
BE02  05000000           string size (5)
BE06  7634393300         "v493\0"
                         local [205]: v493
BE0B  B9040000             startpc (1209)
BE0F  D8040000             endpc   (1240)
BE13  05000000           string size (5)
BE17  7634393400         "v494\0"
                         local [206]: v494
BE1C  BA040000             startpc (1210)
BE20  D8040000             endpc   (1240)
BE24  05000000           string size (5)
BE28  7634393500         "v495\0"
                         local [207]: v495
BE2D  BB040000             startpc (1211)
BE31  D8040000             endpc   (1240)
BE35  05000000           string size (5)
BE39  7631353700         "v157\0"
                         local [208]: v157
BE3E  03050000             startpc (1283)
BE42  0A050000             endpc   (1290)
BE46  05000000           string size (5)
BE4A  7632383100         "v281\0"
                         local [209]: v281
BE4F  12050000             startpc (1298)
BE53  1C050000             endpc   (1308)
BE57  05000000           string size (5)
BE5B  7632383200         "v282\0"
                         local [210]: v282
BE60  13050000             startpc (1299)
BE64  1C050000             endpc   (1308)
BE68  0C000000           string size (12)
BE6C  28666F7220696E64+  "(for ind"
BE74  65782900           "ex)\0"
                         local [211]: (for index)
BE78  16050000             startpc (1302)
BE7C  1C050000             endpc   (1308)
BE80  0C000000           string size (12)
BE84  28666F72206C696D+  "(for lim"
BE8C  69742900           "it)\0"
                         local [212]: (for limit)
BE90  16050000             startpc (1302)
BE94  1C050000             endpc   (1308)
BE98  0B000000           string size (11)
BE9C  28666F7220737465+  "(for ste"
BEA4  702900             "p)\0"
                         local [213]: (for step)
BEA7  16050000             startpc (1302)
BEAB  1C050000             endpc   (1308)
BEAF  05000000           string size (5)
BEB3  7633373300         "v373\0"
                         local [214]: v373
BEB8  17050000             startpc (1303)
BEBC  1B050000             endpc   (1307)
BEC0  05000000           string size (5)
BEC4  7632383300         "v283\0"
                         local [215]: v283
BEC9  23050000             startpc (1315)
BECD  62050000             endpc   (1378)
BED1  05000000           string size (5)
BED5  7632383400         "v284\0"
                         local [216]: v284
BEDA  24050000             startpc (1316)
BEDE  62050000             endpc   (1378)
BEE2  05000000           string size (5)
BEE6  7632383500         "v285\0"
                         local [217]: v285
BEEB  25050000             startpc (1317)
BEEF  62050000             endpc   (1378)
BEF3  0C000000           string size (12)
BEF7  28666F7220696E64+  "(for ind"
BEFF  65782900           "ex)\0"
                         local [218]: (for index)
BF03  3B050000             startpc (1339)
BF07  5B050000             endpc   (1371)
BF0B  0C000000           string size (12)
BF0F  28666F72206C696D+  "(for lim"
BF17  69742900           "it)\0"
                         local [219]: (for limit)
BF1B  3B050000             startpc (1339)
BF1F  5B050000             endpc   (1371)
BF23  0B000000           string size (11)
BF27  28666F7220737465+  "(for ste"
BF2F  702900             "p)\0"
                         local [220]: (for step)
BF32  3B050000             startpc (1339)
BF36  5B050000             endpc   (1371)
BF3A  05000000           string size (5)
BF3E  7633383200         "v382\0"
                         local [221]: v382
BF43  3C050000             startpc (1340)
BF47  5A050000             endpc   (1370)
BF4B  05000000           string size (5)
BF4F  7633383300         "v383\0"
                         local [222]: v383
BF54  3D050000             startpc (1341)
BF58  5A050000             endpc   (1370)
BF5C  05000000           string size (5)
BF60  7633383400         "v384\0"
                         local [223]: v384
BF65  3E050000             startpc (1342)
BF69  5A050000             endpc   (1370)
BF6D  05000000           string size (5)
BF71  7632383700         "v287\0"
                         local [224]: v287
BF76  65050000             startpc (1381)
BF7A  78050000             endpc   (1400)
BF7E  05000000           string size (5)
BF82  7632383800         "v288\0"
                         local [225]: v288
BF87  66050000             startpc (1382)
BF8B  78050000             endpc   (1400)
BF8F  05000000           string size (5)
BF93  7632383900         "v289\0"
                         local [226]: v289
BF98  66050000             startpc (1382)
BF9C  78050000             endpc   (1400)
BFA0  05000000           string size (5)
BFA4  7632393000         "v290\0"
                         local [227]: v290
BFA9  66050000             startpc (1382)
BFAD  78050000             endpc   (1400)
BFB1  0C000000           string size (12)
BFB5  28666F7220696E64+  "(for ind"
BFBD  65782900           "ex)\0"
                         local [228]: (for index)
BFC1  6C050000             startpc (1388)
BFC5  71050000             endpc   (1393)
BFC9  0C000000           string size (12)
BFCD  28666F72206C696D+  "(for lim"
BFD5  69742900           "it)\0"
                         local [229]: (for limit)
BFD9  6C050000             startpc (1388)
BFDD  71050000             endpc   (1393)
BFE1  0B000000           string size (11)
BFE5  28666F7220737465+  "(for ste"
BFED  702900             "p)\0"
                         local [230]: (for step)
BFF0  6C050000             startpc (1388)
BFF4  71050000             endpc   (1393)
BFF8  05000000           string size (5)
BFFC  7635303700         "v507\0"
                         local [231]: v507
C001  6D050000             startpc (1389)
C005  70050000             endpc   (1392)
C009  05000000           string size (5)
C00D  7632393300         "v293\0"
                         local [232]: v293
C012  95050000             startpc (1429)
C016  B2050000             endpc   (1458)
C01A  05000000           string size (5)
C01E  7632393400         "v294\0"
                         local [233]: v294
C023  96050000             startpc (1430)
C027  B2050000             endpc   (1458)
C02B  05000000           string size (5)
C02F  7632393500         "v295\0"
                         local [234]: v295
C034  97050000             startpc (1431)
C038  B2050000             endpc   (1458)
C03C  05000000           string size (5)
C040  7632393600         "v296\0"
                         local [235]: v296
C045  9E050000             startpc (1438)
C049  B2050000             endpc   (1458)
C04D  0C000000           string size (12)
C051  28666F7220696E64+  "(for ind"
C059  65782900           "ex)\0"
                         local [236]: (for index)
C05D  A1050000             startpc (1441)
C061  A6050000             endpc   (1446)
C065  0C000000           string size (12)
C069  28666F72206C696D+  "(for lim"
C071  69742900           "it)\0"
                         local [237]: (for limit)
C075  A1050000             startpc (1441)
C079  A6050000             endpc   (1446)
C07D  0B000000           string size (11)
C081  28666F7220737465+  "(for ste"
C089  702900             "p)\0"
                         local [238]: (for step)
C08C  A1050000             startpc (1441)
C090  A6050000             endpc   (1446)
C094  05000000           string size (5)
C098  7633383500         "v385\0"
                         local [239]: v385
C09D  A2050000             startpc (1442)
C0A1  A5050000             endpc   (1445)
C0A5  05000000           string size (5)
C0A9  7632393700         "v297\0"
                         local [240]: v297
C0AE  A7050000             startpc (1447)
C0B2  B2050000             endpc   (1458)
C0B6  05000000           string size (5)
C0BA  7634313400         "v414\0"
                         local [241]: v414
C0BF  AA050000             startpc (1450)
C0C3  B0050000             endpc   (1456)
C0C7  05000000           string size (5)
C0CB  7632393800         "v298\0"
                         local [242]: v298
C0D0  B4050000             startpc (1460)
C0D4  C8050000             endpc   (1480)
C0D8  05000000           string size (5)
C0DC  7632393900         "v299\0"
                         local [243]: v299
C0E1  BD050000             startpc (1469)
C0E5  C8050000             endpc   (1480)
C0E9  05000000           string size (5)
C0ED  7633303000         "v300\0"
                         local [244]: v300
C0F2  BD050000             startpc (1469)
C0F6  C8050000             endpc   (1480)
C0FA  05000000           string size (5)
C0FE  7633303100         "v301\0"
                         local [245]: v301
C103  C0050000             startpc (1472)
C107  C8050000             endpc   (1480)
C10B  0C000000           string size (12)
C10F  28666F7220696E64+  "(for ind"
C117  65782900           "ex)\0"
                         local [246]: (for index)
C11B  C3050000             startpc (1475)
C11F  C8050000             endpc   (1480)
C123  0C000000           string size (12)
C127  28666F72206C696D+  "(for lim"
C12F  69742900           "it)\0"
                         local [247]: (for limit)
C133  C3050000             startpc (1475)
C137  C8050000             endpc   (1480)
C13B  0B000000           string size (11)
C13F  28666F7220737465+  "(for ste"
C147  702900             "p)\0"
                         local [248]: (for step)
C14A  C3050000             startpc (1475)
C14E  C8050000             endpc   (1480)
C152  05000000           string size (5)
C156  7633383800         "v388\0"
                         local [249]: v388
C15B  C4050000             startpc (1476)
C15F  C7050000             endpc   (1479)
C163  05000000           string size (5)
C167  7633303200         "v302\0"
                         local [250]: v302
C16C  D0050000             startpc (1488)
C170  F2050000             endpc   (1522)
C174  05000000           string size (5)
C178  7633303300         "v303\0"
                         local [251]: v303
C17D  D1050000             startpc (1489)
C181  F2050000             endpc   (1522)
C185  05000000           string size (5)
C189  7633303400         "v304\0"
                         local [252]: v304
C18E  D1050000             startpc (1489)
C192  F2050000             endpc   (1522)
C196  05000000           string size (5)
C19A  7633303500         "v305\0"
                         local [253]: v305
C19F  D1050000             startpc (1489)
C1A3  F2050000             endpc   (1522)
C1A7  05000000           string size (5)
C1AB  7633303600         "v306\0"
                         local [254]: v306
C1B0  D1050000             startpc (1489)
C1B4  F2050000             endpc   (1522)
C1B8  0C000000           string size (12)
C1BC  28666F7220696E64+  "(for ind"
C1C4  65782900           "ex)\0"
                         local [255]: (for index)
C1C8  D6050000             startpc (1494)
C1CC  E0050000             endpc   (1504)
C1D0  0C000000           string size (12)
C1D4  28666F72206C696D+  "(for lim"
C1DC  69742900           "it)\0"
                         local [256]: (for limit)
C1E0  D6050000             startpc (1494)
C1E4  E0050000             endpc   (1504)
C1E8  0B000000           string size (11)
C1EC  28666F7220737465+  "(for ste"
C1F4  702900             "p)\0"
                         local [257]: (for step)
C1F7  D6050000             startpc (1494)
C1FB  E0050000             endpc   (1504)
C1FF  05000000           string size (5)
C203  7635313000         "v510\0"
                         local [258]: v510
C208  D7050000             startpc (1495)
C20C  DF050000             endpc   (1503)
C210  05000000           string size (5)
C214  7635313100         "v511\0"
                         local [259]: v511
C219  D8050000             startpc (1496)
C21D  DF050000             endpc   (1503)
C221  05000000           string size (5)
C225  7633303700         "v307\0"
                         local [260]: v307
C22A  F6050000             startpc (1526)
C22E  11060000             endpc   (1553)
C232  05000000           string size (5)
C236  7633303800         "v308\0"
                         local [261]: v308
C23B  F8050000             startpc (1528)
C23F  11060000             endpc   (1553)
C243  05000000           string size (5)
C247  7633303900         "v309\0"
                         local [262]: v309
C24C  FA050000             startpc (1530)
C250  11060000             endpc   (1553)
C254  05000000           string size (5)
C258  7635313200         "v512\0"
                         local [263]: v512
C25D  02060000             startpc (1538)
C261  09060000             endpc   (1545)
C265  05000000           string size (5)
C269  7633313500         "v315\0"
                         local [264]: v315
C26E  32060000             startpc (1586)
C272  39060000             endpc   (1593)
C276  05000000           string size (5)
C27A  7633313600         "v316\0"
                         local [265]: v316
C27F  34060000             startpc (1588)
C283  39060000             endpc   (1593)
C287  05000000           string size (5)
C28B  7633323200         "v322\0"
                         local [266]: v322
C290  47060000             startpc (1607)
C294  55060000             endpc   (1621)
C298  05000000           string size (5)
C29C  7633323300         "v323\0"
                         local [267]: v323
C2A1  48060000             startpc (1608)
C2A5  55060000             endpc   (1621)
C2A9  05000000           string size (5)
C2AD  7631353900         "v159\0"
                         local [268]: v159
C2B2  6B060000             startpc (1643)
C2B6  92060000             endpc   (1682)
C2BA  05000000           string size (5)
C2BE  7631363000         "v160\0"
                         local [269]: v160
C2C3  6C060000             startpc (1644)
C2C7  92060000             endpc   (1682)
C2CB  05000000           string size (5)
C2CF  7631363100         "v161\0"
                         local [270]: v161
C2D4  6C060000             startpc (1644)
C2D8  92060000             endpc   (1682)
C2DC  05000000           string size (5)
C2E0  7631363200         "v162\0"
                         local [271]: v162
C2E5  6C060000             startpc (1644)
C2E9  92060000             endpc   (1682)
C2ED  05000000           string size (5)
C2F1  7635323800         "v528\0"
                         local [272]: v528
C2F6  7B060000             startpc (1659)
C2FA  82060000             endpc   (1666)
C2FE  05000000           string size (5)
C302  7633323700         "v327\0"
                         local [273]: v327
C307  96060000             startpc (1686)
C30B  A9060000             endpc   (1705)
C30F  05000000           string size (5)
C313  7633323800         "v328\0"
                         local [274]: v328
C318  97060000             startpc (1687)
C31C  A9060000             endpc   (1705)
C320  05000000           string size (5)
C324  7633323900         "v329\0"
                         local [275]: v329
C329  97060000             startpc (1687)
C32D  A9060000             endpc   (1705)
C331  05000000           string size (5)
C335  7633333000         "v330\0"
                         local [276]: v330
C33A  97060000             startpc (1687)
C33E  A9060000             endpc   (1705)
C342  0C000000           string size (12)
C346  28666F7220696E64+  "(for ind"
C34E  65782900           "ex)\0"
                         local [277]: (for index)
C352  9D060000             startpc (1693)
C356  A2060000             endpc   (1698)
C35A  0C000000           string size (12)
C35E  28666F72206C696D+  "(for lim"
C366  69742900           "it)\0"
                         local [278]: (for limit)
C36A  9D060000             startpc (1693)
C36E  A2060000             endpc   (1698)
C372  0B000000           string size (11)
C376  28666F7220737465+  "(for ste"
C37E  702900             "p)\0"
                         local [279]: (for step)
C381  9D060000             startpc (1693)
C385  A2060000             endpc   (1698)
C389  05000000           string size (5)
C38D  7635313500         "v515\0"
                         local [280]: v515
C392  9E060000             startpc (1694)
C396  A1060000             endpc   (1697)
C39A  05000000           string size (5)
C39E  7633333200         "v332\0"
                         local [281]: v332
C3A3  C9060000             startpc (1737)
C3A7  D1060000             endpc   (1745)
C3AB  05000000           string size (5)
C3AF  7633333300         "v333\0"
                         local [282]: v333
C3B4  D5060000             startpc (1749)
C3B8  DF060000             endpc   (1759)
C3BC  05000000           string size (5)
C3C0  7633333400         "v334\0"
                         local [283]: v334
C3C5  D6060000             startpc (1750)
C3C9  DF060000             endpc   (1759)
C3CD  05000000           string size (5)
C3D1  7633343100         "v341\0"
                         local [284]: v341
C3D6  0C070000             startpc (1804)
C3DA  0F070000             endpc   (1807)
C3DE  05000000           string size (5)
C3E2  7633343300         "v343\0"
                         local [285]: v343
C3E7  11070000             startpc (1809)
C3EB  2D070000             endpc   (1837)
C3EF  05000000           string size (5)
C3F3  7633343400         "v344\0"
                         local [286]: v344
C3F8  12070000             startpc (1810)
C3FC  2D070000             endpc   (1837)
C400  05000000           string size (5)
C404  7633343500         "v345\0"
                         local [287]: v345
C409  12070000             startpc (1810)
C40D  2D070000             endpc   (1837)
C411  05000000           string size (5)
C415  7633343600         "v346\0"
                         local [288]: v346
C41A  12070000             startpc (1810)
C41E  2D070000             endpc   (1837)
C422  0C000000           string size (12)
C426  28666F7220696E64+  "(for ind"
C42E  65782900           "ex)\0"
                         local [289]: (for index)
C432  26070000             startpc (1830)
C436  2B070000             endpc   (1835)
C43A  0C000000           string size (12)
C43E  28666F72206C696D+  "(for lim"
C446  69742900           "it)\0"
                         local [290]: (for limit)
C44A  26070000             startpc (1830)
C44E  2B070000             endpc   (1835)
C452  0B000000           string size (11)
C456  28666F7220737465+  "(for ste"
C45E  702900             "p)\0"
                         local [291]: (for step)
C461  26070000             startpc (1830)
C465  2B070000             endpc   (1835)
C469  05000000           string size (5)
C46D  7635313800         "v518\0"
                         local [292]: v518
C472  27070000             startpc (1831)
C476  2A070000             endpc   (1834)
C47A  0C000000           string size (12)
C47E  28666F7220696E64+  "(for ind"
C486  65782900           "ex)\0"
                         local [293]: (for index)
C48A  51070000             startpc (1873)
C48E  54070000             endpc   (1876)
C492  0C000000           string size (12)
C496  28666F72206C696D+  "(for lim"
C49E  69742900           "it)\0"
                         local [294]: (for limit)
C4A2  51070000             startpc (1873)
C4A6  54070000             endpc   (1876)
C4AA  0B000000           string size (11)
C4AE  28666F7220737465+  "(for ste"
C4B6  702900             "p)\0"
                         local [295]: (for step)
C4B9  51070000             startpc (1873)
C4BD  54070000             endpc   (1876)
C4C1  05000000           string size (5)
C4C5  7633393400         "v394\0"
                         local [296]: v394
C4CA  52070000             startpc (1874)
C4CE  53070000             endpc   (1875)
                         * upvalues:
C4D2  0C000000           sizeupvalues (12)
C4D6  04000000           string size (4)
C4DA  76353900           "v59\0"
                         upvalue [0]: v59
C4DE  04000000           string size (4)
C4E2  76363000           "v60\0"
                         upvalue [1]: v60
C4E6  04000000           string size (4)
C4EA  76363100           "v61\0"
                         upvalue [2]: v61
C4EE  04000000           string size (4)
C4F2  76333900           "v39\0"
                         upvalue [3]: v39
C4F6  04000000           string size (4)
C4FA  76323000           "v20\0"
                         upvalue [4]: v20
C4FE  04000000           string size (4)
C502  76353600           "v56\0"
                         upvalue [5]: v56
C506  04000000           string size (4)
C50A  76323100           "v21\0"
                         upvalue [6]: v21
C50E  04000000           string size (4)
C512  76353700           "v57\0"
                         upvalue [7]: v57
C516  03000000           string size (3)
C51A  763700             "v7\0"
                         upvalue [8]: v7
C51D  04000000           string size (4)
C521  76313500           "v15\0"
                         upvalue [9]: v15
C525  04000000           string size (4)
C529  76343100           "v41\0"
                         upvalue [10]: v41
C52D  04000000           string size (4)
C531  76313800           "v18\0"
                         upvalue [11]: v18
                         ** end of function 0_2_2_0 **

                         * lines:
C535  1A000000           sizelineinfo (26)
                         [pc] (line)
C539  01000000           [01] (1)
C53D  01000000           [02] (1)
C541  01000000           [03] (1)
C545  01000000           [04] (1)
C549  01000000           [05] (1)
C54D  01000000           [06] (1)
C551  01000000           [07] (1)
C555  01000000           [08] (1)
C559  01000000           [09] (1)
C55D  01000000           [10] (1)
C561  01000000           [11] (1)
C565  01000000           [12] (1)
C569  01000000           [13] (1)
C56D  01000000           [14] (1)
C571  01000000           [15] (1)
C575  01000000           [16] (1)
C579  01000000           [17] (1)
C57D  01000000           [18] (1)
C581  01000000           [19] (1)
C585  01000000           [20] (1)
C589  01000000           [21] (1)
C58D  01000000           [22] (1)
C591  01000000           [23] (1)
C595  01000000           [24] (1)
C599  01000000           [25] (1)
C59D  01000000           [26] (1)
                         * locals:
C5A1  07000000           sizelocvars (7)
C5A5  04000000           string size (4)
C5A9  76353500           "v55\0"
                         local [0]: v55
C5AD  00000000             startpc (0)
C5B1  19000000             endpc   (25)
C5B5  04000000           string size (4)
C5B9  76353600           "v56\0"
                         local [1]: v56
C5BD  00000000             startpc (0)
C5C1  19000000             endpc   (25)
C5C5  04000000           string size (4)
C5C9  76353700           "v57\0"
                         local [2]: v57
C5CD  00000000             startpc (0)
C5D1  19000000             endpc   (25)
C5D5  04000000           string size (4)
C5D9  76353800           "v58\0"
                         local [3]: v58
C5DD  01000000             startpc (1)
C5E1  19000000             endpc   (25)
C5E5  04000000           string size (4)
C5E9  76353900           "v59\0"
                         local [4]: v59
C5ED  02000000             startpc (2)
C5F1  19000000             endpc   (25)
C5F5  04000000           string size (4)
C5F9  76363000           "v60\0"
                         local [5]: v60
C5FD  02000000             startpc (2)
C601  19000000             endpc   (25)
C605  04000000           string size (4)
C609  76363100           "v61\0"
                         local [6]: v61
C60D  02000000             startpc (2)
C611  19000000             endpc   (25)
                         * upvalues:
C615  07000000           sizeupvalues (7)
C619  04000000           string size (4)
C61D  76333900           "v39\0"
                         upvalue [0]: v39
C621  04000000           string size (4)
C625  76323000           "v20\0"
                         upvalue [1]: v20
C629  04000000           string size (4)
C62D  76323100           "v21\0"
                         upvalue [2]: v21
C631  03000000           string size (3)
C635  763700             "v7\0"
                         upvalue [3]: v7
C638  04000000           string size (4)
C63C  76313500           "v15\0"
                         upvalue [4]: v15
C640  04000000           string size (4)
C644  76343100           "v41\0"
                         upvalue [5]: v41
C648  04000000           string size (4)
C64C  76313800           "v18\0"
                         upvalue [6]: v18
                         ** end of function 0_2_2 **

                         
C650                     ** function [3] definition (level 3) 0_2_3
                         ** start of function 0_2_3 **
C650  00000000           string size (0)
                         source name: (none)
C654  01000000           line defined (1)
C658  01000000           last line defined (1)
C65C  03                 nups (3)
C65D  00                 numparams (0)
C65E  00                 is_vararg (0)
C65F  06                 maxstacksize (6)
                         * code:
C660  13000000           sizecode (19)
C664  01000000           [01] loadk      0   0        ; R0 := 0
C668  43008000           [02] loadnil    1   1        ; R1,  := nil
C66C  17004000           [03] eq         0   0   256  ; R0 == 0, pc+=1 (goto [5]) if true
C670  16400280           [04] jmp        10           ; pc+=10 (goto [15])
C674  84000000           [05] getupval   2   0        ; R2 := U0 , v9
C678  C4008000           [06] getupval   3   1        ; R3 := U1 , v27
C67C  04010001           [07] getupval   4   2        ; R4 := U2 , v30
C680  44010001           [08] getupval   5   2        ; R5 := U2 , v30
C684  9C800002           [09] call       2   4   2    ; R2 := R2(R3 to R5)
C688  40000001           [10] move       1   2        ; R1 := R2
C68C  84000001           [11] getupval   2   2        ; R2 := U2 , v30
C690  8C404001           [12] add        2   2   257  ; R2 := R2 + 1
C694  88000001           [13] setupval   2   2        ; U2 := R2 , v30
C698  01400000           [14] loadk      0   1        ; R0 := 1
C69C  17404000           [15] eq         0   0   257  ; R0 == 1, pc+=1 (goto [17]) if true
C6A0  1640FC7F           [16] jmp        -14          ; pc+=-14 (goto [3])
C6A4  5E000001           [17] return     1   2        ; return R1
C6A8  16C0FB7F           [18] jmp        -16          ; pc+=-16 (goto [3])
C6AC  1E008000           [19] return     0   1        ; return 
                         * constants:
C6B0  02000000           sizek (2)
C6B4  03                 const type 3
C6B5  0000000000000000   const [0]: (0)
C6BD  03                 const type 3
C6BE  000000000000F03F   const [1]: (1)
                         * functions:
C6C6  00000000           sizep (0)
                         * lines:
C6CA  13000000           sizelineinfo (19)
                         [pc] (line)
C6CE  01000000           [01] (1)
C6D2  01000000           [02] (1)
C6D6  01000000           [03] (1)
C6DA  01000000           [04] (1)
C6DE  01000000           [05] (1)
C6E2  01000000           [06] (1)
C6E6  01000000           [07] (1)
C6EA  01000000           [08] (1)
C6EE  01000000           [09] (1)
C6F2  01000000           [10] (1)
C6F6  01000000           [11] (1)
C6FA  01000000           [12] (1)
C6FE  01000000           [13] (1)
C702  01000000           [14] (1)
C706  01000000           [15] (1)
C70A  01000000           [16] (1)
C70E  01000000           [17] (1)
C712  01000000           [18] (1)
C716  01000000           [19] (1)
                         * locals:
C71A  02000000           sizelocvars (2)
C71E  04000000           string size (4)
C722  76363200           "v62\0"
                         local [0]: v62
C726  01000000             startpc (1)
C72A  12000000             endpc   (18)
C72E  04000000           string size (4)
C732  76363300           "v63\0"
                         local [1]: v63
C736  02000000             startpc (2)
C73A  12000000             endpc   (18)
                         * upvalues:
C73E  03000000           sizeupvalues (3)
C742  03000000           string size (3)
C746  763900             "v9\0"
                         upvalue [0]: v9
C749  04000000           string size (4)
C74D  76323700           "v27\0"
                         upvalue [1]: v27
C751  04000000           string size (4)
C755  76333000           "v30\0"
                         upvalue [2]: v30
                         ** end of function 0_2_3 **

                         
C759                     ** function [4] definition (level 3) 0_2_4
                         ** start of function 0_2_4 **
C759  00000000           string size (0)
                         source name: (none)
C75D  01000000           line defined (1)
C761  01000000           last line defined (1)
C765  03                 nups (3)
C766  00                 numparams (0)
C767  00                 is_vararg (0)
C768  04                 maxstacksize (4)
                         * code:
C769  0D000000           sizecode (13)
C76D  04000000           [01] getupval   0   0        ; R0 := U0 , v9
C771  44008000           [02] getupval   1   1        ; R1 := U1 , v27
C775  84000001           [03] getupval   2   2        ; R2 := U2 , v30
C779  C4000001           [04] getupval   3   2        ; R3 := U2 , v30
C77D  CC00C001           [05] add        3   3   256  ; R3 := R3 + 2
C781  1CC00002           [06] call       0   4   3    ; R0, R1 := R0(R1 to R3)
C785  84000001           [07] getupval   2   2        ; R2 := U2 , v30
C789  8C004001           [08] add        2   2   256  ; R2 := R2 + 2
C78D  88000001           [09] setupval   2   2        ; U2 := R2 , v30
C791  8E40C000           [10] mul        2   1   257  ; R2 := R1 * 256
C795  8C000001           [11] add        2   2   0    ; R2 := R2 + R0
C799  9E000001           [12] return     2   2        ; return R2
C79D  1E008000           [13] return     0   1        ; return 
                         * constants:
C7A1  02000000           sizek (2)
C7A5  03                 const type 3
C7A6  0000000000000040   const [0]: (2)
C7AE  03                 const type 3
C7AF  0000000000007040   const [1]: (256)
                         * functions:
C7B7  00000000           sizep (0)
                         * lines:
C7BB  0D000000           sizelineinfo (13)
                         [pc] (line)
C7BF  01000000           [01] (1)
C7C3  01000000           [02] (1)
C7C7  01000000           [03] (1)
C7CB  01000000           [04] (1)
C7CF  01000000           [05] (1)
C7D3  01000000           [06] (1)
C7D7  01000000           [07] (1)
C7DB  01000000           [08] (1)
C7DF  01000000           [09] (1)
C7E3  01000000           [10] (1)
C7E7  01000000           [11] (1)
C7EB  01000000           [12] (1)
C7EF  01000000           [13] (1)
                         * locals:
C7F3  02000000           sizelocvars (2)
C7F7  04000000           string size (4)
C7FB  76363400           "v64\0"
                         local [0]: v64
C7FF  06000000             startpc (6)
C803  0C000000             endpc   (12)
C807  04000000           string size (4)
C80B  76363500           "v65\0"
                         local [1]: v65
C80F  06000000             startpc (6)
C813  0C000000             endpc   (12)
                         * upvalues:
C817  03000000           sizeupvalues (3)
C81B  03000000           string size (3)
C81F  763900             "v9\0"
                         upvalue [0]: v9
C822  04000000           string size (4)
C826  76323700           "v27\0"
                         upvalue [1]: v27
C82A  04000000           string size (4)
C82E  76333000           "v30\0"
                         upvalue [2]: v30
                         ** end of function 0_2_4 **

                         
C832                     ** function [5] definition (level 3) 0_2_5
                         ** start of function 0_2_5 **
C832  00000000           string size (0)
                         source name: (none)
C836  01000000           line defined (1)
C83A  01000000           last line defined (1)
C83E  06                 nups (6)
C83F  01                 numparams (1)
C840  00                 is_vararg (0)
C841  08                 maxstacksize (8)
                         * code:
C842  38000000           sizecode (56)
C846  44000000           [01] getupval   1   0        ; R1 := U0 , v9
C84A  80000000           [02] move       2   0        ; R2 := R0
C84E  C1000000           [03] loadk      3   0        ; R3 := 2
C852  5C808001           [04] call       1   3   2    ; R1 := R1(R2, R3)
C856  1740C000           [05] eq         0   1   257  ; R1 == 79, pc+=1 (goto [7]) if true
C85A  16800380           [06] jmp        15           ; pc+=15 (goto [22])
C85E  41800000           [07] loadk      1   2        ; R1 := 0
C862  1780C000           [08] eq         0   1   258  ; R1 == 0, pc+=1 (goto [10]) if true
C866  1640FF7F           [09] jmp        -2           ; pc+=-2 (goto [8])
C86A  84000001           [10] getupval   2   2        ; R2 := U2 , v8
C86E  C4008001           [11] getupval   3   3        ; R3 := U3 , v11
C872  00010000           [12] move       4   0        ; R4 := R0
C876  41C10000           [13] loadk      5   3        ; R5 := 1
C87A  81C10000           [14] loadk      6   3        ; R6 := 1
C87E  DC000002           [15] call       3   4   0    ; R3 to top := R3(R4 to R6)
C882  9C800000           [16] call       2   0   2    ; R2 := R2(R3 to top)
C886  88008000           [17] setupval   2   1        ; U1 := R2 , v31
C88A  81000100           [18] loadk      2   4        ; R2 := ""
C88E  9E000001           [19] return     2   2        ; return R2
C892  1680FC7F           [20] jmp        -13          ; pc+=-13 (goto [8])
C896  16400880           [21] jmp        34           ; pc+=34 (goto [56])
C89A  41800000           [22] loadk      1   2        ; R1 := 0
C89E  83000001           [23] loadnil    2   2        ; R2,  := nil
C8A2  1780C000           [24] eq         0   1   258  ; R1 == 0, pc+=1 (goto [26]) if true
C8A6  1640FF7F           [25] jmp        -2           ; pc+=-2 (goto [24])
C8AA  C4000002           [26] getupval   3   4        ; R3 := U4 , v10
C8AE  04010001           [27] getupval   4   2        ; R4 := U2 , v8
C8B2  40010000           [28] move       5   0        ; R5 := R0
C8B6  81410100           [29] loadk      6   5        ; R6 := 16
C8BA  1C018001           [30] call       4   3   0    ; R4 to top := R4(R5, R6)
C8BE  DC800000           [31] call       3   0   2    ; R3 := R3(R4 to top)
C8C2  80008001           [32] move       2   3        ; R2 := R3
C8C6  C4008000           [33] getupval   3   1        ; R3 := U1 , v31
C8CA  DA000000           [34] test       3       0    ; if R3 then pc+=1 (goto [36])
C8CE  16000480           [35] jmp        17           ; pc+=17 (goto [53])
C8D2  C1800000           [36] loadk      3   2        ; R3 := 0
C8D6  03010002           [37] loadnil    4   4        ; R4,  := nil
C8DA  17C0C001           [38] eq         0   3   259  ; R3 == 1, pc+=1 (goto [40]) if true
C8DE  16000080           [39] jmp        1            ; pc+=1 (goto [41])
C8E2  1E010001           [40] return     4   2        ; return R4
C8E6  1780C001           [41] eq         0   3   258  ; R3 == 0, pc+=1 (goto [43]) if true
C8EA  1680FE7F           [42] jmp        -5           ; pc+=-5 (goto [38])
C8EE  44018002           [43] getupval   5   5        ; R5 := U5 , v13
C8F2  80010001           [44] move       6   2        ; R6 := R2
C8F6  C4018000           [45] getupval   7   1        ; R7 := U1 , v31
C8FA  5C818001           [46] call       5   3   2    ; R5 := R5(R6, R7)
C8FE  00018002           [47] move       4   5        ; R4 := R5
C902  43018002           [48] loadnil    5   5        ; R5,  := nil
C906  48018000           [49] setupval   5   1        ; U1 := R5 , v31
C90A  C1C00000           [50] loadk      3   3        ; R3 := 1
C90E  1640FC7F           [51] jmp        -14          ; pc+=-14 (goto [38])
C912  16800080           [52] jmp        3            ; pc+=3 (goto [56])
C916  9E000001           [53] return     2   2        ; return R2
C91A  16000080           [54] jmp        1            ; pc+=1 (goto [56])
C91E  16C0F77F           [55] jmp        -32          ; pc+=-32 (goto [24])
C922  1E008000           [56] return     0   1        ; return 
                         * constants:
C926  06000000           sizek (6)
C92A  03                 const type 3
C92B  0000000000000040   const [0]: (2)
C933  03                 const type 3
C934  0000000000C05340   const [1]: (79)
C93C  03                 const type 3
C93D  0000000000000000   const [2]: (0)
C945  03                 const type 3
C946  000000000000F03F   const [3]: (1)
C94E  04                 const type 4
C94F  01000000           string size (0)
                         const [4]: ""
C954  03                 const type 3
C955  0000000000003040   const [5]: (16)
                         * functions:
C95D  00000000           sizep (0)
                         * lines:
C961  38000000           sizelineinfo (56)
                         [pc] (line)
C965  01000000           [01] (1)
C969  01000000           [02] (1)
C96D  01000000           [03] (1)
C971  01000000           [04] (1)
C975  01000000           [05] (1)
C979  01000000           [06] (1)
C97D  01000000           [07] (1)
C981  01000000           [08] (1)
C985  01000000           [09] (1)
C989  01000000           [10] (1)
C98D  01000000           [11] (1)
C991  01000000           [12] (1)
C995  01000000           [13] (1)
C999  01000000           [14] (1)
C99D  01000000           [15] (1)
C9A1  01000000           [16] (1)
C9A5  01000000           [17] (1)
C9A9  01000000           [18] (1)
C9AD  01000000           [19] (1)
C9B1  01000000           [20] (1)
C9B5  01000000           [21] (1)
C9B9  01000000           [22] (1)
C9BD  01000000           [23] (1)
C9C1  01000000           [24] (1)
C9C5  01000000           [25] (1)
C9C9  01000000           [26] (1)
C9CD  01000000           [27] (1)
C9D1  01000000           [28] (1)
C9D5  01000000           [29] (1)
C9D9  01000000           [30] (1)
C9DD  01000000           [31] (1)
C9E1  01000000           [32] (1)
C9E5  01000000           [33] (1)
C9E9  01000000           [34] (1)
C9ED  01000000           [35] (1)
C9F1  01000000           [36] (1)
C9F5  01000000           [37] (1)
C9F9  01000000           [38] (1)
C9FD  01000000           [39] (1)
CA01  01000000           [40] (1)
CA05  01000000           [41] (1)
CA09  01000000           [42] (1)
CA0D  01000000           [43] (1)
CA11  01000000           [44] (1)
CA15  01000000           [45] (1)
CA19  01000000           [46] (1)
CA1D  01000000           [47] (1)
CA21  01000000           [48] (1)
CA25  01000000           [49] (1)
CA29  01000000           [50] (1)
CA2D  01000000           [51] (1)
CA31  01000000           [52] (1)
CA35  01000000           [53] (1)
CA39  01000000           [54] (1)
CA3D  01000000           [55] (1)
CA41  01000000           [56] (1)
                         * locals:
CA45  06000000           sizelocvars (6)
CA49  04000000           string size (4)
CA4D  76363600           "v66\0"
                         local [0]: v66
CA51  00000000             startpc (0)
CA55  37000000             endpc   (55)
CA59  04000000           string size (4)
CA5D  76383100           "v81\0"
                         local [1]: v81
CA61  07000000             startpc (7)
CA65  14000000             endpc   (20)
CA69  04000000           string size (4)
CA6D  76383200           "v82\0"
                         local [2]: v82
CA71  16000000             startpc (22)
CA75  37000000             endpc   (55)
CA79  04000000           string size (4)
CA7D  76383300           "v83\0"
                         local [3]: v83
CA81  17000000             startpc (23)
CA85  37000000             endpc   (55)
CA89  05000000           string size (5)
CA8D  7631323500         "v125\0"
                         local [4]: v125
CA92  24000000             startpc (36)
CA96  33000000             endpc   (51)
CA9A  05000000           string size (5)
CA9E  7631323600         "v126\0"
                         local [5]: v126
CAA3  25000000             startpc (37)
CAA7  33000000             endpc   (51)
                         * upvalues:
CAAB  06000000           sizeupvalues (6)
CAAF  03000000           string size (3)
CAB3  763900             "v9\0"
                         upvalue [0]: v9
CAB6  04000000           string size (4)
CABA  76333100           "v31\0"
                         upvalue [1]: v31
CABE  03000000           string size (3)
CAC2  763800             "v8\0"
                         upvalue [2]: v8
CAC5  04000000           string size (4)
CAC9  76313100           "v11\0"
                         upvalue [3]: v11
CACD  04000000           string size (4)
CAD1  76313000           "v10\0"
                         upvalue [4]: v10
CAD5  04000000           string size (4)
CAD9  76313300           "v13\0"
                         upvalue [5]: v13
                         ** end of function 0_2_5 **

                         
CADD                     ** function [6] definition (level 3) 0_2_6
                         ** start of function 0_2_6 **
CADD  00000000           string size (0)
                         source name: (none)
CAE1  01000000           line defined (1)
CAE5  01000000           last line defined (1)
CAE9  00                 nups (0)
CAEA  03                 numparams (3)
CAEB  00                 is_vararg (0)
CAEC  08                 maxstacksize (8)
                         * code:
CAED  20000000           sizecode (32)
CAF1  9A000000           [01] test       2       0    ; if R2 then pc+=1 (goto [3])
CAF5  16400480           [02] jmp        18           ; pc+=18 (goto [21])
CAF9  C1000000           [03] loadk      3   0        ; R3 := 0
CAFD  03010002           [04] loadnil    4   4        ; R4,  := nil
CB01  1700C001           [05] eq         0   3   256  ; R3 == 0, pc+=1 (goto [7]) if true
CB05  1640FF7F           [06] jmp        -2           ; pc+=-2 (goto [5])
CB09  4D41C000           [07] sub        5   1   257  ; R5 := R1 - 1
CB0D  51410181           [08] pow        5   258 5    ; R5 := 2 ^ R5
CB11  4F410100           [09] div        5   0   5    ; R5 := R0 / R5
CB15  8D414001           [10] sub        6   2   257  ; R6 := R2 - 1
CB19  CD41C000           [11] sub        7   1   257  ; R7 := R1 - 1
CB1D  8DC10103           [12] sub        6   6   7    ; R6 := R6 - R7
CB21  8C414003           [13] add        6   6   257  ; R6 := R6 + 1
CB25  91810181           [14] pow        6   258 6    ; R6 := 2 ^ R6
CB29  10818102           [15] mod        4   5   6    ; R4 := R5 % R6
CB2D  50414002           [16] mod        5   4   257  ; R5 := R4 % 1
CB31  4D410102           [17] sub        5   4   5    ; R5 := R4 - R5
CB35  5E010001           [18] return     5   2        ; return R5
CB39  1600FC7F           [19] jmp        -15          ; pc+=-15 (goto [5])
CB3D  16800280           [20] jmp        11           ; pc+=11 (goto [32])
CB41  CD40C000           [21] sub        3   1   257  ; R3 := R1 - 1
CB45  D1C00081           [22] pow        3   258 3    ; R3 := 2 ^ R3
CB49  0CC18001           [23] add        4   3   3    ; R4 := R3 + R3
CB4D  10010100           [24] mod        4   0   4    ; R4 := R0 % R4
CB51  19008101           [25] le         0   3   4    ; R3 <= R4, pc+=1 (goto [27]) if true
CB55  16800080           [26] jmp        3            ; pc+=3 (goto [30])
CB59  01410000           [27] loadk      4   1        ; R4 := 1
CB5D  1A410000           [28] test       4       1    ; if not R4 then pc+=1 (goto [30])
CB61  16000080           [29] jmp        1            ; pc+=1 (goto [31])
CB65  01010000           [30] loadk      4   0        ; R4 := 0
CB69  1E010001           [31] return     4   2        ; return R4
CB6D  1E008000           [32] return     0   1        ; return 
                         * constants:
CB71  03000000           sizek (3)
CB75  03                 const type 3
CB76  0000000000000000   const [0]: (0)
CB7E  03                 const type 3
CB7F  000000000000F03F   const [1]: (1)
CB87  03                 const type 3
CB88  0000000000000040   const [2]: (2)
                         * functions:
CB90  00000000           sizep (0)
                         * lines:
CB94  20000000           sizelineinfo (32)
                         [pc] (line)
CB98  01000000           [01] (1)
CB9C  01000000           [02] (1)
CBA0  01000000           [03] (1)
CBA4  01000000           [04] (1)
CBA8  01000000           [05] (1)
CBAC  01000000           [06] (1)
CBB0  01000000           [07] (1)
CBB4  01000000           [08] (1)
CBB8  01000000           [09] (1)
CBBC  01000000           [10] (1)
CBC0  01000000           [11] (1)
CBC4  01000000           [12] (1)
CBC8  01000000           [13] (1)
CBCC  01000000           [14] (1)
CBD0  01000000           [15] (1)
CBD4  01000000           [16] (1)
CBD8  01000000           [17] (1)
CBDC  01000000           [18] (1)
CBE0  01000000           [19] (1)
CBE4  01000000           [20] (1)
CBE8  01000000           [21] (1)
CBEC  01000000           [22] (1)
CBF0  01000000           [23] (1)
CBF4  01000000           [24] (1)
CBF8  01000000           [25] (1)
CBFC  01000000           [26] (1)
CC00  01000000           [27] (1)
CC04  01000000           [28] (1)
CC08  01000000           [29] (1)
CC0C  01000000           [30] (1)
CC10  01000000           [31] (1)
CC14  01000000           [32] (1)
                         * locals:
CC18  06000000           sizelocvars (6)
CC1C  04000000           string size (4)
CC20  76363700           "v67\0"
                         local [0]: v67
CC24  00000000             startpc (0)
CC28  1F000000             endpc   (31)
CC2C  04000000           string size (4)
CC30  76363800           "v68\0"
                         local [1]: v68
CC34  00000000             startpc (0)
CC38  1F000000             endpc   (31)
CC3C  04000000           string size (4)
CC40  76363900           "v69\0"
                         local [2]: v69
CC44  00000000             startpc (0)
CC48  1F000000             endpc   (31)
CC4C  04000000           string size (4)
CC50  76383400           "v84\0"
                         local [3]: v84
CC54  03000000             startpc (3)
CC58  13000000             endpc   (19)
CC5C  04000000           string size (4)
CC60  76383500           "v85\0"
                         local [4]: v85
CC64  04000000             startpc (4)
CC68  13000000             endpc   (19)
CC6C  04000000           string size (4)
CC70  76383600           "v86\0"
                         local [5]: v86
CC74  16000000             startpc (22)
CC78  1F000000             endpc   (31)
                         * upvalues:
CC7C  00000000           sizeupvalues (0)
                         ** end of function 0_2_6 **

                         
CC80                     ** function [7] definition (level 3) 0_2_7
                         ** start of function 0_2_7 **
CC80  00000000           string size (0)
                         source name: (none)
CC84  01000000           line defined (1)
CC88  01000000           last line defined (1)
CC8C  03                 nups (3)
CC8D  00                 numparams (0)
CC8E  00                 is_vararg (0)
CC8F  0B                 maxstacksize (11)
                         * code:
CC90  4F000000           sizecode (79)
CC94  01000000           [01] loadk      0   0        ; R0 := 0
CC98  43000003           [02] loadnil    1   6        ; R1, R2, R3, R4, R5, R6,  := nil
CC9C  17404000           [03] eq         0   0   257  ; R0 == 1, pc+=1 (goto [5]) if true
CCA0  16000280           [04] jmp        9            ; pc+=9 (goto [14])
CCA4  C1400000           [05] loadk      3   1        ; R3 := 1
CCA8  C4010000           [06] getupval   7   0        ; R7 := U0 , v32
CCAC  00020001           [07] move       8   2        ; R8 := R2
CCB0  41420000           [08] loadk      9   1        ; R9 := 1
CCB4  81820000           [09] loadk      10  2        ; R10 := 20
CCB8  DC810002           [10] call       7   4   2    ; R7 := R7(R8 to R10)
CCBC  CEC1C003           [11] mul        7   7   259  ; R7 := R7 * 4294967296
CCC0  0C418003           [12] add        4   7   1    ; R4 := R7 + R1
CCC4  01000100           [13] loadk      0   4        ; R0 := 2
CCC8  17404100           [14] eq         0   0   261  ; R0 == 3, pc+=1 (goto [16]) if true
CCCC  16400880           [15] jmp        34           ; pc+=34 (goto [50])
CCD0  1700C002           [16] eq         0   5   256  ; R5 == 0, pc+=1 (goto [18]) if true
CCD4  16000380           [17] jmp        13           ; pc+=13 (goto [31])
CCD8  17004002           [18] eq         0   4   256  ; R4 == 0, pc+=1 (goto [20]) if true
CCDC  16800080           [19] jmp        3            ; pc+=3 (goto [23])
CCE0  CE014003           [20] mul        7   6   256  ; R7 := R6 * 0
CCE4  DE010001           [21] return     7   2        ; return R7
CCE8  16800480           [22] jmp        19           ; pc+=19 (goto [42])
CCEC  C1010000           [23] loadk      7   0        ; R7 := 0
CCF0  1700C003           [24] eq         0   7   256  ; R7 == 0, pc+=1 (goto [26]) if true
CCF4  1640FF7F           [25] jmp        -2           ; pc+=-2 (goto [24])
CCF8  41410000           [26] loadk      5   1        ; R5 := 1
CCFC  C1000000           [27] loadk      3   0        ; R3 := 0
CD00  16000380           [28] jmp        13           ; pc+=13 (goto [42])
CD04  1640FE7F           [29] jmp        -6           ; pc+=-6 (goto [24])
CD08  16800280           [30] jmp        11           ; pc+=11 (goto [42])
CD0C  1780C102           [31] eq         0   5   262  ; R5 == 2047, pc+=1 (goto [33]) if true
CD10  16000280           [32] jmp        9            ; pc+=9 (goto [42])
CD14  17004002           [33] eq         0   4   256  ; R4 == 0, pc+=1 (goto [35]) if true
CD18  16C00080           [34] jmp        4            ; pc+=4 (goto [39])
CD1C  CF01C080           [35] div        7   257 256  ; R7 := 1 / 0
CD20  CEC10103           [36] mul        7   6   7    ; R7 := R6 * R7
CD24  DA410000           [37] test       7       1    ; if not R7 then pc+=1 (goto [39])
CD28  16400080           [38] jmp        2            ; pc+=2 (goto [41])
CD2C  C5C10100           [39] getglobal  7   7        ; R7 := NaN
CD30  CEC10103           [40] mul        7   6   7    ; R7 := R6 * R7
CD34  DE010001           [41] return     7   2        ; return R7
CD38  C4018000           [42] getupval   7   1        ; R7 := U1 , v16
CD3C  00020003           [43] move       8   6        ; R8 := R6
CD40  4D02C202           [44] sub        9   5   264  ; R9 := R5 - 1023
CD44  DC818001           [45] call       7   3   2    ; R7 := R7(R8, R9)
CD48  0F424202           [46] div        8   4   265  ; R8 := R4 / 4.5035996273705e+015
CD4C  0C028201           [47] add        8   3   8    ; R8 := R3 + R8
CD50  CE018203           [48] mul        7   7   8    ; R7 := R7 * R8
CD54  DE010001           [49] return     7   2        ; return R7
CD58  17000080           [50] eq         0   256 0    ; 0 == R0, pc+=1 (goto [52]) if true
CD5C  16800180           [51] jmp        7            ; pc+=7 (goto [59])
CD60  C4010001           [52] getupval   7   2        ; R7 := U2 , v35
CD64  DC818000           [53] call       7   1   2    ; R7 := R7()
CD68  40008003           [54] move       1   7        ; R1 := R7
CD6C  C4010001           [55] getupval   7   2        ; R7 := U2 , v35
CD70  DC818000           [56] call       7   1   2    ; R7 := R7()
CD74  80008003           [57] move       2   7        ; R2 := R7
CD78  01400000           [58] loadk      0   1        ; R0 := 1
CD7C  17004100           [59] eq         0   0   260  ; R0 == 2, pc+=1 (goto [61]) if true
CD80  1640F17F           [60] jmp        -58          ; pc+=-58 (goto [3])
CD84  C4010000           [61] getupval   7   0        ; R7 := U0 , v32
CD88  00020001           [62] move       8   2        ; R8 := R2
CD8C  41820200           [63] loadk      9   10       ; R9 := 21
CD90  81C20200           [64] loadk      10  11       ; R10 := 31
CD94  DC810002           [65] call       7   4   2    ; R7 := R7(R8 to R10)
CD98  40018003           [66] move       5   7        ; R5 := R7
CD9C  C4010000           [67] getupval   7   0        ; R7 := U0 , v32
CDA0  00020001           [68] move       8   2        ; R8 := R2
CDA4  41020300           [69] loadk      9   12       ; R9 := 32
CDA8  DC818001           [70] call       7   3   2    ; R7 := R7(R8, R9)
CDAC  1740C003           [71] eq         0   7   257  ; R7 == 1, pc+=1 (goto [73]) if true
CDB0  16800080           [72] jmp        3            ; pc+=3 (goto [76])
CDB4  C1410300           [73] loadk      7   13       ; R7 := -1
CDB8  9B418003           [74] testset    6   7   1    ; if R7 then R6 = R7 else pc+=1 (goto [76])
CDBC  16000080           [75] jmp        1            ; pc+=1 (goto [77])
CDC0  81410000           [76] loadk      6   1        ; R6 := 1
CDC4  01400100           [77] loadk      0   5        ; R0 := 3
CDC8  16C0EC7F           [78] jmp        -76          ; pc+=-76 (goto [3])
CDCC  1E008000           [79] return     0   1        ; return 
                         * constants:
CDD0  0E000000           sizek (14)
CDD4  03                 const type 3
CDD5  0000000000000000   const [0]: (0)
CDDD  03                 const type 3
CDDE  000000000000F03F   const [1]: (1)
CDE6  03                 const type 3
CDE7  0000000000003440   const [2]: (20)
CDEF  03                 const type 3
CDF0  000000000000F041   const [3]: (4294967296)
CDF8  03                 const type 3
CDF9  0000000000000040   const [4]: (2)
CE01  03                 const type 3
CE02  0000000000000840   const [5]: (3)
CE0A  03                 const type 3
CE0B  0000000000FC9F40   const [6]: (2047)
CE13  04                 const type 4
CE14  04000000           string size (4)
CE18  4E614E00           "NaN\0"
                         const [7]: "NaN"
CE1C  03                 const type 3
CE1D  0000000000F88F40   const [8]: (1023)
CE25  03                 const type 3
CE26  0000000000003043   const [9]: (4.5035996273705e+015)
CE2E  03                 const type 3
CE2F  0000000000003540   const [10]: (21)
CE37  03                 const type 3
CE38  0000000000003F40   const [11]: (31)
CE40  03                 const type 3
CE41  0000000000004040   const [12]: (32)
CE49  03                 const type 3
CE4A  000000000000F0BF   const [13]: (-1)
                         * functions:
CE52  00000000           sizep (0)
                         * lines:
CE56  4F000000           sizelineinfo (79)
                         [pc] (line)
CE5A  01000000           [01] (1)
CE5E  01000000           [02] (1)
CE62  01000000           [03] (1)
CE66  01000000           [04] (1)
CE6A  01000000           [05] (1)
CE6E  01000000           [06] (1)
CE72  01000000           [07] (1)
CE76  01000000           [08] (1)
CE7A  01000000           [09] (1)
CE7E  01000000           [10] (1)
CE82  01000000           [11] (1)
CE86  01000000           [12] (1)
CE8A  01000000           [13] (1)
CE8E  01000000           [14] (1)
CE92  01000000           [15] (1)
CE96  01000000           [16] (1)
CE9A  01000000           [17] (1)
CE9E  01000000           [18] (1)
CEA2  01000000           [19] (1)
CEA6  01000000           [20] (1)
CEAA  01000000           [21] (1)
CEAE  01000000           [22] (1)
CEB2  01000000           [23] (1)
CEB6  01000000           [24] (1)
CEBA  01000000           [25] (1)
CEBE  01000000           [26] (1)
CEC2  01000000           [27] (1)
CEC6  01000000           [28] (1)
CECA  01000000           [29] (1)
CECE  01000000           [30] (1)
CED2  01000000           [31] (1)
CED6  01000000           [32] (1)
CEDA  01000000           [33] (1)
CEDE  01000000           [34] (1)
CEE2  01000000           [35] (1)
CEE6  01000000           [36] (1)
CEEA  01000000           [37] (1)
CEEE  01000000           [38] (1)
CEF2  01000000           [39] (1)
CEF6  01000000           [40] (1)
CEFA  01000000           [41] (1)
CEFE  01000000           [42] (1)
CF02  01000000           [43] (1)
CF06  01000000           [44] (1)
CF0A  01000000           [45] (1)
CF0E  01000000           [46] (1)
CF12  01000000           [47] (1)
CF16  01000000           [48] (1)
CF1A  01000000           [49] (1)
CF1E  01000000           [50] (1)
CF22  01000000           [51] (1)
CF26  01000000           [52] (1)
CF2A  01000000           [53] (1)
CF2E  01000000           [54] (1)
CF32  01000000           [55] (1)
CF36  01000000           [56] (1)
CF3A  01000000           [57] (1)
CF3E  01000000           [58] (1)
CF42  01000000           [59] (1)
CF46  01000000           [60] (1)
CF4A  01000000           [61] (1)
CF4E  01000000           [62] (1)
CF52  01000000           [63] (1)
CF56  01000000           [64] (1)
CF5A  01000000           [65] (1)
CF5E  01000000           [66] (1)
CF62  01000000           [67] (1)
CF66  01000000           [68] (1)
CF6A  01000000           [69] (1)
CF6E  01000000           [70] (1)
CF72  01000000           [71] (1)
CF76  01000000           [72] (1)
CF7A  01000000           [73] (1)
CF7E  01000000           [74] (1)
CF82  01000000           [75] (1)
CF86  01000000           [76] (1)
CF8A  01000000           [77] (1)
CF8E  01000000           [78] (1)
CF92  01000000           [79] (1)
                         * locals:
CF96  08000000           sizelocvars (8)
CF9A  04000000           string size (4)
CF9E  76373000           "v70\0"
                         local [0]: v70
CFA2  01000000             startpc (1)
CFA6  4E000000             endpc   (78)
CFAA  04000000           string size (4)
CFAE  76373100           "v71\0"
                         local [1]: v71
CFB2  02000000             startpc (2)
CFB6  4E000000             endpc   (78)
CFBA  04000000           string size (4)
CFBE  76373200           "v72\0"
                         local [2]: v72
CFC2  02000000             startpc (2)
CFC6  4E000000             endpc   (78)
CFCA  04000000           string size (4)
CFCE  76373300           "v73\0"
                         local [3]: v73
CFD2  02000000             startpc (2)
CFD6  4E000000             endpc   (78)
CFDA  04000000           string size (4)
CFDE  76373400           "v74\0"
                         local [4]: v74
CFE2  02000000             startpc (2)
CFE6  4E000000             endpc   (78)
CFEA  04000000           string size (4)
CFEE  76373500           "v75\0"
                         local [5]: v75
CFF2  02000000             startpc (2)
CFF6  4E000000             endpc   (78)
CFFA  04000000           string size (4)
CFFE  76373600           "v76\0"
                         local [6]: v76
D002  02000000             startpc (2)
D006  4E000000             endpc   (78)
D00A  05000000           string size (5)
D00E  7631323700         "v127\0"
                         local [7]: v127
D013  17000000             startpc (23)
D017  1D000000             endpc   (29)
                         * upvalues:
D01B  03000000           sizeupvalues (3)
D01F  04000000           string size (4)
D023  76333200           "v32\0"
                         upvalue [0]: v32
D027  04000000           string size (4)
D02B  76313600           "v16\0"
                         upvalue [1]: v16
D02F  04000000           string size (4)
D033  76333500           "v35\0"
                         upvalue [2]: v35
                         ** end of function 0_2_7 **

                         
D037                     ** function [8] definition (level 3) 0_2_8
                         ** start of function 0_2_8 **
D037  00000000           string size (0)
                         source name: (none)
D03B  01000000           line defined (1)
D03F  01000000           last line defined (1)
D043  07                 nups (7)
D044  01                 numparams (1)
D045  00                 is_vararg (0)
D046  0E                 maxstacksize (14)
                         * code:
D047  3E000000           sizecode (62)
D04B  41000000           [01] loadk      1   0        ; R1 := 0
D04F  83008001           [02] loadnil    2   3        ; R2, R3,  := nil
D053  17400080           [03] eq         0   256 1    ; 0 == R1, pc+=1 (goto [5]) if true
D057  16C00380           [04] jmp        16           ; pc+=16 (goto [21])
D05B  83000001           [05] loadnil    2   2        ; R2,  := nil
D05F  1A400000           [06] test       0       1    ; if not R0 then pc+=1 (goto [8])
D063  16C00280           [07] jmp        12           ; pc+=12 (goto [20])
D067  01010000           [08] loadk      4   0        ; R4 := 0
D06B  17004002           [09] eq         0   4   256  ; R4 == 0, pc+=1 (goto [11]) if true
D06F  1640FF7F           [10] jmp        -2           ; pc+=-2 (goto [9])
D073  44010000           [11] getupval   5   0        ; R5 := U0 , v35
D077  5C818000           [12] call       5   1   2    ; R5 := R5()
D07B  00008002           [13] move       0   5        ; R0 := R5
D07F  17004000           [14] eq         0   0   256  ; R0 == 0, pc+=1 (goto [16]) if true
D083  16C00080           [15] jmp        4            ; pc+=4 (goto [20])
D087  41410000           [16] loadk      5   1        ; R5 := ""
D08B  5E010001           [17] return     5   2        ; return R5
D08F  16000080           [18] jmp        1            ; pc+=1 (goto [20])
D093  1600FD7F           [19] jmp        -11          ; pc+=-11 (goto [9])
D097  41800000           [20] loadk      1   2        ; R1 := 1
D09B  17C0C000           [21] eq         0   1   259  ; R1 == 2, pc+=1 (goto [23]) if true
D09F  16400480           [22] jmp        18           ; pc+=18 (goto [41])
D0A3  0A010000           [23] newtable   4   0   0    ; R4 := {} , array=0, hash=0
D0A7  C0000002           [24] move       3   4        ; R3 := R4
D0AB  01810000           [25] loadk      4   2        ; R4 := 1
D0AF  54010001           [26] len        5   2        ; R5 := #R2
D0B3  81810000           [27] loadk      6   2        ; R6 := 1
D0B7  20410280           [28] forprep    4   10       ; R4 -= R6; PC := 39
D0BB  04028000           [29] getupval   8   1        ; R8 := U1 , v10
D0BF  44020001           [30] getupval   9   2        ; R9 := U2 , v9
D0C3  84028001           [31] getupval   10  3        ; R10 := U3 , v11
D0C7  C0020001           [32] move       11  2        ; R11 := R2
D0CB  00038003           [33] move       12  7        ; R12 := R7
D0CF  40038003           [34] move       13  7        ; R13 := R7
D0D3  9C020002           [35] call       10  4   0    ; R10 to top := R10(R11 to R13)
D0D7  5C020000           [36] call       9   0   0    ; R9 to top := R9(R10 to top)
D0DB  1C820000           [37] call       8   0   2    ; R8 := R8(R9 to top)
D0DF  C9008203           [38] settable   3   7   8    ; R3[R7] := R8
D0E3  1F01FD7F           [39] forloop    4   -11      ; R4 += R6; if R4 <= R5 then begin PC := 29; R7 := R4 end
D0E7  41000100           [40] loadk      1   4        ; R1 := 3
D0EB  1700C100           [41] eq         0   1   260  ; R1 == 3, pc+=1 (goto [43]) if true
D0EF  16C00080           [42] jmp        4            ; pc+=4 (goto [47])
D0F3  04010002           [43] getupval   4   4        ; R4 := U4 , v14
D0F7  40018001           [44] move       5   3        ; R5 := R3
D0FB  1D010001           [45] tailcall   4   2   0    ; R4 to top := R4(R5)
D0FF  1E010000           [46] return     4   0        ; return R4 to top
D103  1780C000           [47] eq         0   1   258  ; R1 == 1, pc+=1 (goto [49]) if true
D107  1640F47F           [48] jmp        -46          ; pc+=-46 (goto [3])
D10B  04018001           [49] getupval   4   3        ; R4 := U3 , v11
D10F  44018002           [50] getupval   5   5        ; R5 := U5 , v27
D113  84010003           [51] getupval   6   6        ; R6 := U6 , v30
D117  C4010003           [52] getupval   7   6        ; R7 := U6 , v30
D11B  CC018003           [53] add        7   7   0    ; R7 := R7 + R0
D11F  CD81C003           [54] sub        7   7   258  ; R7 := R7 - 1
D123  1C810002           [55] call       4   4   2    ; R4 := R4(R5 to R7)
D127  80000002           [56] move       2   4        ; R2 := R4
D12B  04010003           [57] getupval   4   6        ; R4 := U6 , v30
D12F  0C010002           [58] add        4   4   0    ; R4 := R4 + R0
D133  08010003           [59] setupval   4   6        ; U6 := R4 , v30
D137  41C00000           [60] loadk      1   3        ; R1 := 2
D13B  1600F17F           [61] jmp        -59          ; pc+=-59 (goto [3])
D13F  1E008000           [62] return     0   1        ; return 
                         * constants:
D143  05000000           sizek (5)
D147  03                 const type 3
D148  0000000000000000   const [0]: (0)
D150  04                 const type 4
D151  01000000           string size (0)
                         const [1]: ""
D156  03                 const type 3
D157  000000000000F03F   const [2]: (1)
D15F  03                 const type 3
D160  0000000000000040   const [3]: (2)
D168  03                 const type 3
D169  0000000000000840   const [4]: (3)
                         * functions:
D171  00000000           sizep (0)
                         * lines:
D175  3E000000           sizelineinfo (62)
                         [pc] (line)
D179  01000000           [01] (1)
D17D  01000000           [02] (1)
D181  01000000           [03] (1)
D185  01000000           [04] (1)
D189  01000000           [05] (1)
D18D  01000000           [06] (1)
D191  01000000           [07] (1)
D195  01000000           [08] (1)
D199  01000000           [09] (1)
D19D  01000000           [10] (1)
D1A1  01000000           [11] (1)
D1A5  01000000           [12] (1)
D1A9  01000000           [13] (1)
D1AD  01000000           [14] (1)
D1B1  01000000           [15] (1)
D1B5  01000000           [16] (1)
D1B9  01000000           [17] (1)
D1BD  01000000           [18] (1)
D1C1  01000000           [19] (1)
D1C5  01000000           [20] (1)
D1C9  01000000           [21] (1)
D1CD  01000000           [22] (1)
D1D1  01000000           [23] (1)
D1D5  01000000           [24] (1)
D1D9  01000000           [25] (1)
D1DD  01000000           [26] (1)
D1E1  01000000           [27] (1)
D1E5  01000000           [28] (1)
D1E9  01000000           [29] (1)
D1ED  01000000           [30] (1)
D1F1  01000000           [31] (1)
D1F5  01000000           [32] (1)
D1F9  01000000           [33] (1)
D1FD  01000000           [34] (1)
D201  01000000           [35] (1)
D205  01000000           [36] (1)
D209  01000000           [37] (1)
D20D  01000000           [38] (1)
D211  01000000           [39] (1)
D215  01000000           [40] (1)
D219  01000000           [41] (1)
D21D  01000000           [42] (1)
D221  01000000           [43] (1)
D225  01000000           [44] (1)
D229  01000000           [45] (1)
D22D  01000000           [46] (1)
D231  01000000           [47] (1)
D235  01000000           [48] (1)
D239  01000000           [49] (1)
D23D  01000000           [50] (1)
D241  01000000           [51] (1)
D245  01000000           [52] (1)
D249  01000000           [53] (1)
D24D  01000000           [54] (1)
D251  01000000           [55] (1)
D255  01000000           [56] (1)
D259  01000000           [57] (1)
D25D  01000000           [58] (1)
D261  01000000           [59] (1)
D265  01000000           [60] (1)
D269  01000000           [61] (1)
D26D  01000000           [62] (1)
                         * locals:
D271  09000000           sizelocvars (9)
D275  04000000           string size (4)
D279  76373700           "v77\0"
                         local [0]: v77
D27D  00000000             startpc (0)
D281  3D000000             endpc   (61)
D285  04000000           string size (4)
D289  76373800           "v78\0"
                         local [1]: v78
D28D  01000000             startpc (1)
D291  3D000000             endpc   (61)
D295  04000000           string size (4)
D299  76373900           "v79\0"
                         local [2]: v79
D29D  02000000             startpc (2)
D2A1  3D000000             endpc   (61)
D2A5  04000000           string size (4)
D2A9  76383000           "v80\0"
                         local [3]: v80
D2AD  02000000             startpc (2)
D2B1  3D000000             endpc   (61)
D2B5  05000000           string size (5)
D2B9  7631313900         "v119\0"
                         local [4]: v119
D2BE  08000000             startpc (8)
D2C2  13000000             endpc   (19)
D2C6  0C000000           string size (12)
D2CA  28666F7220696E64+  "(for ind"
D2D2  65782900           "ex)\0"
                         local [5]: (for index)
D2D6  1B000000             startpc (27)
D2DA  27000000             endpc   (39)
D2DE  0C000000           string size (12)
D2E2  28666F72206C696D+  "(for lim"
D2EA  69742900           "it)\0"
                         local [6]: (for limit)
D2EE  1B000000             startpc (27)
D2F2  27000000             endpc   (39)
D2F6  0B000000           string size (11)
D2FA  28666F7220737465+  "(for ste"
D302  702900             "p)\0"
                         local [7]: (for step)
D305  1B000000             startpc (27)
D309  27000000             endpc   (39)
D30D  05000000           string size (5)
D311  7631313400         "v114\0"
                         local [8]: v114
D316  1C000000             startpc (28)
D31A  26000000             endpc   (38)
                         * upvalues:
D31E  07000000           sizeupvalues (7)
D322  04000000           string size (4)
D326  76333500           "v35\0"
                         upvalue [0]: v35
D32A  04000000           string size (4)
D32E  76313000           "v10\0"
                         upvalue [1]: v10
D332  03000000           string size (3)
D336  763900             "v9\0"
                         upvalue [2]: v9
D339  04000000           string size (4)
D33D  76313100           "v11\0"
                         upvalue [3]: v11
D341  04000000           string size (4)
D345  76313400           "v14\0"
                         upvalue [4]: v14
D349  04000000           string size (4)
D34D  76323700           "v27\0"
                         upvalue [5]: v27
D351  04000000           string size (4)
D355  76333000           "v30\0"
                         upvalue [6]: v30
                         ** end of function 0_2_8 **

                         
D359                     ** function [9] definition (level 3) 0_2_9
                         ** start of function 0_2_9 **
D359  00000000           string size (0)
                         source name: (none)
D35D  01000000           line defined (1)
D361  01000000           last line defined (1)
D365  01                 nups (1)
D366  00                 numparams (0)
D367  03                 is_vararg (3)
D368  05                 maxstacksize (5)
                         * code:
D369  09000000           sizecode (9)
D36D  4A000000           [1] newtable   1   0   0    ; R1 := {} , array=0, hash=0
D371  A5000000           [2] vararg     2   0        ; R2 to top := ...
D375  62400000           [3] setlist    1   0   1    ; R1[1 to top] := R2 to top
D379  84000000           [4] getupval   2   0        ; R2 := U0 , v20
D37D  C1000000           [5] loadk      3   0        ; R3 := "#"
D381  25010000           [6] vararg     4   0        ; R4 to top := ...
D385  9C000000           [7] call       2   0   0    ; R2 to top := R2(R3 to top)
D389  5E000000           [8] return     1   0        ; return R1 to top
D38D  1E008000           [9] return     0   1        ; return 
                         * constants:
D391  01000000           sizek (1)
D395  04                 const type 4
D396  02000000           string size (2)
D39A  2300               "#\0"
                         const [0]: "#"
                         * functions:
D39C  00000000           sizep (0)
                         * lines:
D3A0  09000000           sizelineinfo (9)
                         [pc] (line)
D3A4  01000000           [1] (1)
D3A8  01000000           [2] (1)
D3AC  01000000           [3] (1)
D3B0  01000000           [4] (1)
D3B4  01000000           [5] (1)
D3B8  01000000           [6] (1)
D3BC  01000000           [7] (1)
D3C0  01000000           [8] (1)
D3C4  01000000           [9] (1)
                         * locals:
D3C8  01000000           sizelocvars (1)
D3CC  04000000           string size (4)
D3D0  61726700           "arg\0"
                         local [0]: arg
D3D4  00000000             startpc (0)
D3D8  08000000             endpc   (8)
                         * upvalues:
D3DC  01000000           sizeupvalues (1)
D3E0  04000000           string size (4)
D3E4  76323000           "v20\0"
                         upvalue [0]: v20
                         ** end of function 0_2_9 **

                         * lines:
D3E8  6D000000           sizelineinfo (109)
                         [pc] (line)
D3EC  01000000           [001] (1)
D3F0  01000000           [002] (1)
D3F4  01000000           [003] (1)
D3F8  01000000           [004] (1)
D3FC  01000000           [005] (1)
D400  01000000           [006] (1)
D404  01000000           [007] (1)
D408  01000000           [008] (1)
D40C  01000000           [009] (1)
D410  01000000           [010] (1)
D414  01000000           [011] (1)
D418  01000000           [012] (1)
D41C  01000000           [013] (1)
D420  01000000           [014] (1)
D424  01000000           [015] (1)
D428  01000000           [016] (1)
D42C  01000000           [017] (1)
D430  01000000           [018] (1)
D434  01000000           [019] (1)
D438  01000000           [020] (1)
D43C  01000000           [021] (1)
D440  01000000           [022] (1)
D444  01000000           [023] (1)
D448  01000000           [024] (1)
D44C  01000000           [025] (1)
D450  01000000           [026] (1)
D454  01000000           [027] (1)
D458  01000000           [028] (1)
D45C  01000000           [029] (1)
D460  01000000           [030] (1)
D464  01000000           [031] (1)
D468  01000000           [032] (1)
D46C  01000000           [033] (1)
D470  01000000           [034] (1)
D474  01000000           [035] (1)
D478  01000000           [036] (1)
D47C  01000000           [037] (1)
D480  01000000           [038] (1)
D484  01000000           [039] (1)
D488  01000000           [040] (1)
D48C  01000000           [041] (1)
D490  01000000           [042] (1)
D494  01000000           [043] (1)
D498  01000000           [044] (1)
D49C  01000000           [045] (1)
D4A0  01000000           [046] (1)
D4A4  01000000           [047] (1)
D4A8  01000000           [048] (1)
D4AC  01000000           [049] (1)
D4B0  01000000           [050] (1)
D4B4  01000000           [051] (1)
D4B8  01000000           [052] (1)
D4BC  01000000           [053] (1)
D4C0  01000000           [054] (1)
D4C4  01000000           [055] (1)
D4C8  01000000           [056] (1)
D4CC  01000000           [057] (1)
D4D0  01000000           [058] (1)
D4D4  01000000           [059] (1)
D4D8  01000000           [060] (1)
D4DC  01000000           [061] (1)
D4E0  01000000           [062] (1)
D4E4  01000000           [063] (1)
D4E8  01000000           [064] (1)
D4EC  01000000           [065] (1)
D4F0  01000000           [066] (1)
D4F4  01000000           [067] (1)
D4F8  01000000           [068] (1)
D4FC  01000000           [069] (1)
D500  01000000           [070] (1)
D504  01000000           [071] (1)
D508  01000000           [072] (1)
D50C  01000000           [073] (1)
D510  01000000           [074] (1)
D514  01000000           [075] (1)
D518  01000000           [076] (1)
D51C  01000000           [077] (1)
D520  01000000           [078] (1)
D524  01000000           [079] (1)
D528  01000000           [080] (1)
D52C  01000000           [081] (1)
D530  01000000           [082] (1)
D534  01000000           [083] (1)
D538  01000000           [084] (1)
D53C  01000000           [085] (1)
D540  01000000           [086] (1)
D544  01000000           [087] (1)
D548  01000000           [088] (1)
D54C  01000000           [089] (1)
D550  01000000           [090] (1)
D554  01000000           [091] (1)
D558  01000000           [092] (1)
D55C  01000000           [093] (1)
D560  01000000           [094] (1)
D564  01000000           [095] (1)
D568  01000000           [096] (1)
D56C  01000000           [097] (1)
D570  01000000           [098] (1)
D574  01000000           [099] (1)
D578  01000000           [100] (1)
D57C  01000000           [101] (1)
D580  01000000           [102] (1)
D584  01000000           [103] (1)
D588  01000000           [104] (1)
D58C  01000000           [105] (1)
D590  01000000           [106] (1)
D594  01000000           [107] (1)
D598  01000000           [108] (1)
D59C  01000000           [109] (1)
                         * locals:
D5A0  10000000           sizelocvars (16)
D5A4  04000000           string size (4)
D5A8  76323700           "v27\0"
                         local [0]: v27
D5AC  00000000             startpc (0)
D5B0  6C000000             endpc   (108)
D5B4  04000000           string size (4)
D5B8  76323800           "v28\0"
                         local [1]: v28
D5BC  00000000             startpc (0)
D5C0  6C000000             endpc   (108)
D5C4  04000000           string size (4)
D5C8  61726700           "arg\0"
                         local [2]: arg
D5CC  00000000             startpc (0)
D5D0  6C000000             endpc   (108)
D5D4  04000000           string size (4)
D5D8  76323900           "v29\0"
                         local [3]: v29
D5DC  01000000             startpc (1)
D5E0  6C000000             endpc   (108)
D5E4  04000000           string size (4)
D5E8  76333000           "v30\0"
                         local [4]: v30
D5EC  02000000             startpc (2)
D5F0  6C000000             endpc   (108)
D5F4  04000000           string size (4)
D5F8  76333100           "v31\0"
                         local [5]: v31
D5FC  02000000             startpc (2)
D600  6C000000             endpc   (108)
D604  04000000           string size (4)
D608  76333200           "v32\0"
                         local [6]: v32
D60C  02000000             startpc (2)
D610  6C000000             endpc   (108)
D614  04000000           string size (4)
D618  76333300           "v33\0"
                         local [7]: v33
D61C  02000000             startpc (2)
D620  6C000000             endpc   (108)
D624  04000000           string size (4)
D628  76333400           "v34\0"
                         local [8]: v34
D62C  02000000             startpc (2)
D630  6C000000             endpc   (108)
D634  04000000           string size (4)
D638  76333500           "v35\0"
                         local [9]: v35
D63C  02000000             startpc (2)
D640  6C000000             endpc   (108)
D644  04000000           string size (4)
D648  76333600           "v36\0"
                         local [10]: v36
D64C  02000000             startpc (2)
D650  6C000000             endpc   (108)
D654  04000000           string size (4)
D658  76333700           "v37\0"
                         local [11]: v37
D65C  02000000             startpc (2)
D660  6C000000             endpc   (108)
D664  04000000           string size (4)
D668  76333800           "v38\0"
                         local [12]: v38
D66C  02000000             startpc (2)
D670  6C000000             endpc   (108)
D674  04000000           string size (4)
D678  76333900           "v39\0"
                         local [13]: v39
D67C  02000000             startpc (2)
D680  6C000000             endpc   (108)
D684  04000000           string size (4)
D688  76343000           "v40\0"
                         local [14]: v40
D68C  02000000             startpc (2)
D690  6C000000             endpc   (108)
D694  04000000           string size (4)
D698  76343100           "v41\0"
                         local [15]: v41
D69C  02000000             startpc (2)
D6A0  6C000000             endpc   (108)
                         * upvalues:
D6A4  0D000000           sizeupvalues (13)
D6A8  03000000           string size (3)
D6AC  763900             "v9\0"
                         upvalue [0]: v9
D6AF  04000000           string size (4)
D6B3  76323000           "v20\0"
                         upvalue [1]: v20
D6B7  04000000           string size (4)
D6BB  76323100           "v21\0"
                         upvalue [2]: v21
D6BF  03000000           string size (3)
D6C3  763700             "v7\0"
                         upvalue [3]: v7
D6C6  04000000           string size (4)
D6CA  76313500           "v15\0"
                         upvalue [4]: v15
D6CE  04000000           string size (4)
D6D2  76313800           "v18\0"
                         upvalue [5]: v18
D6D6  04000000           string size (4)
D6DA  76313200           "v12\0"
                         upvalue [6]: v12
D6DE  04000000           string size (4)
D6E2  76313100           "v11\0"
                         upvalue [7]: v11
D6E6  03000000           string size (3)
D6EA  763800             "v8\0"
                         upvalue [8]: v8
D6ED  04000000           string size (4)
D6F1  76313000           "v10\0"
                         upvalue [9]: v10
D6F5  04000000           string size (4)
D6F9  76313300           "v13\0"
                         upvalue [10]: v13
D6FD  04000000           string size (4)
D701  76313600           "v16\0"
                         upvalue [11]: v16
D705  04000000           string size (4)
D709  76313400           "v14\0"
                         upvalue [12]: v14
                         ** end of function 0_2 **

                         * lines:
D70D  49000000           sizelineinfo (73)
                         [pc] (line)
D711  01000000           [01] (1)
D715  01000000           [02] (1)
D719  01000000           [03] (1)
D71D  01000000           [04] (1)
D721  01000000           [05] (1)
D725  01000000           [06] (1)
D729  01000000           [07] (1)
D72D  01000000           [08] (1)
D731  01000000           [09] (1)
D735  01000000           [10] (1)
D739  01000000           [11] (1)
D73D  01000000           [12] (1)
D741  01000000           [13] (1)
D745  01000000           [14] (1)
D749  01000000           [15] (1)
D74D  01000000           [16] (1)
D751  01000000           [17] (1)
D755  01000000           [18] (1)
D759  01000000           [19] (1)
D75D  01000000           [20] (1)
D761  01000000           [21] (1)
D765  01000000           [22] (1)
D769  01000000           [23] (1)
D76D  01000000           [24] (1)
D771  01000000           [25] (1)
D775  01000000           [26] (1)
D779  01000000           [27] (1)
D77D  01000000           [28] (1)
D781  01000000           [29] (1)
D785  01000000           [30] (1)
D789  01000000           [31] (1)
D78D  01000000           [32] (1)
D791  01000000           [33] (1)
D795  01000000           [34] (1)
D799  01000000           [35] (1)
D79D  01000000           [36] (1)
D7A1  01000000           [37] (1)
D7A5  01000000           [38] (1)
D7A9  01000000           [39] (1)
D7AD  01000000           [40] (1)
D7B1  01000000           [41] (1)
D7B5  01000000           [42] (1)
D7B9  01000000           [43] (1)
D7BD  01000000           [44] (1)
D7C1  01000000           [45] (1)
D7C5  01000000           [46] (1)
D7C9  01000000           [47] (1)
D7CD  01000000           [48] (1)
D7D1  01000000           [49] (1)
D7D5  01000000           [50] (1)
D7D9  01000000           [51] (1)
D7DD  01000000           [52] (1)
D7E1  01000000           [53] (1)
D7E5  01000000           [54] (1)
D7E9  01000000           [55] (1)
D7ED  01000000           [56] (1)
D7F1  01000000           [57] (1)
D7F5  01000000           [58] (1)
D7F9  01000000           [59] (1)
D7FD  01000000           [60] (1)
D801  01000000           [61] (1)
D805  01000000           [62] (1)
D809  01000000           [63] (1)
D80D  01000000           [64] (1)
D811  01000000           [65] (1)
D815  01000000           [66] (1)
D819  01000000           [67] (1)
D81D  01000000           [68] (1)
D821  01000000           [69] (1)
D825  01000000           [70] (1)
D829  01000000           [71] (1)
D82D  01000000           [72] (1)
D831  01000000           [73] (1)
                         * locals:
D835  18000000           sizelocvars (24)
D839  03000000           string size (3)
D83D  763000             "v0\0"
                         local [0]: v0
D840  02000000             startpc (2)
D844  48000000             endpc   (72)
D848  03000000           string size (3)
D84C  763100             "v1\0"
                         local [1]: v1
D84F  04000000             startpc (4)
D853  48000000             endpc   (72)
D857  03000000           string size (3)
D85B  763200             "v2\0"
                         local [2]: v2
D85E  06000000             startpc (6)
D862  48000000             endpc   (72)
D866  03000000           string size (3)
D86A  763300             "v3\0"
                         local [3]: v3
D86D  0A000000             startpc (10)
D871  48000000             endpc   (72)
D875  03000000           string size (3)
D879  763400             "v4\0"
                         local [4]: v4
D87C  0B000000             startpc (11)
D880  48000000             endpc   (72)
D884  03000000           string size (3)
D888  763500             "v5\0"
                         local [5]: v5
D88B  0D000000             startpc (13)
D88F  48000000             endpc   (72)
D893  03000000           string size (3)
D897  763600             "v6\0"
                         local [6]: v6
D89A  0F000000             startpc (15)
D89E  48000000             endpc   (72)
D8A2  03000000           string size (3)
D8A6  763700             "v7\0"
                         local [7]: v7
D8A9  16000000             startpc (22)
D8AD  48000000             endpc   (72)
D8B1  03000000           string size (3)
D8B5  763800             "v8\0"
                         local [8]: v8
D8B8  17000000             startpc (23)
D8BC  48000000             endpc   (72)
D8C0  03000000           string size (3)
D8C4  763900             "v9\0"
                         local [9]: v9
D8C7  19000000             startpc (25)
D8CB  48000000             endpc   (72)
D8CF  04000000           string size (4)
D8D3  76313000           "v10\0"
                         local [10]: v10
D8D7  1B000000             startpc (27)
D8DB  48000000             endpc   (72)
D8DF  04000000           string size (4)
D8E3  76313100           "v11\0"
                         local [11]: v11
D8E7  1D000000             startpc (29)
D8EB  48000000             endpc   (72)
D8EF  04000000           string size (4)
D8F3  76313200           "v12\0"
                         local [12]: v12
D8F7  1F000000             startpc (31)
D8FB  48000000             endpc   (72)
D8FF  04000000           string size (4)
D903  76313300           "v13\0"
                         local [13]: v13
D907  21000000             startpc (33)
D90B  48000000             endpc   (72)
D90F  04000000           string size (4)
D913  76313400           "v14\0"
                         local [14]: v14
D917  23000000             startpc (35)
D91B  48000000             endpc   (72)
D91F  04000000           string size (4)
D923  76313500           "v15\0"
                         local [15]: v15
D927  25000000             startpc (37)
D92B  48000000             endpc   (72)
D92F  04000000           string size (4)
D933  76313600           "v16\0"
                         local [16]: v16
D937  27000000             startpc (39)
D93B  48000000             endpc   (72)
D93F  04000000           string size (4)
D943  76313700           "v17\0"
                         local [17]: v17
D947  2B000000             startpc (43)
D94B  48000000             endpc   (72)
D94F  04000000           string size (4)
D953  76313800           "v18\0"
                         local [18]: v18
D957  2C000000             startpc (44)
D95B  48000000             endpc   (72)
D95F  04000000           string size (4)
D963  76313900           "v19\0"
                         local [19]: v19
D967  2D000000             startpc (45)
D96B  48000000             endpc   (72)
D96F  04000000           string size (4)
D973  76323000           "v20\0"
                         local [20]: v20
D977  2E000000             startpc (46)
D97B  48000000             endpc   (72)
D97F  04000000           string size (4)
D983  76323100           "v21\0"
                         local [21]: v21
D987  33000000             startpc (51)
D98B  48000000             endpc   (72)
D98F  04000000           string size (4)
D993  76323200           "v22\0"
                         local [22]: v22
D997  34000000             startpc (52)
D99B  48000000             endpc   (72)
D99F  04000000           string size (4)
D9A3  76323300           "v23\0"
                         local [23]: v23
D9A7  42000000             startpc (66)
D9AB  48000000             endpc   (72)
                         * upvalues:
D9AF  00000000           sizeupvalues (0)
                         ** end of function 0 **

D9B3                     ** end of chunk **
